libwx_baseu-2.8.so.0:CompareCharsetItems
libwx_baseu-2.8.so.0:ConvertFromIeeeExtended
libwx_baseu-2.8.so.0:ConvertToIeeeExtended
libwx_baseu-2.8.so.0:Tcl_UniCharToLower
libwx_baseu-2.8.so.0:Tcl_UniCharToTitle
libwx_baseu-2.8.so.0:Tcl_UniCharToUpper
libwx_baseu-2.8.so.0:WXU_2.8
libwx_baseu-2.8.so.0:WXU_2.8.1
libwx_baseu-2.8.so.0:WXU_2.8.10
libwx_baseu-2.8.so.0:WXU_2.8.11
libwx_baseu-2.8.so.0:WXU_2.8.12
libwx_baseu-2.8.so.0:WXU_2.8.2
libwx_baseu-2.8.so.0:WXU_2.8.4
libwx_baseu-2.8.so.0:WXU_2.8.5
libwx_baseu-2.8.so.0:WXU_2.8.7
libwx_baseu-2.8.so.0:WXU_2.8.8
libwx_baseu-2.8.so.0:WXU_2.8.9
libwx_baseu-2.8.so.0:_Z10wxCopyFileRK8wxStringS1_b
libwx_baseu-2.8.so.0:_Z10wxDecToHexi
libwx_baseu-2.8.so.0:_Z10wxDecToHexiPw
libwx_baseu-2.8.so.0:_Z10wxDoGetCwdPwi
libwx_baseu-2.8.so.0:_Z10wxHexToDecRK8wxString
libwx_baseu-2.8.so.0:_Z10wxLogErrorPKwz
libwx_baseu-2.8.so.0:_Z10wxNextWDayRN10wxDateTime7WeekDayE
libwx_baseu-2.8.so.0:_Z10wxPathOnlyPw
libwx_baseu-2.8.so.0:_Z10wxPathOnlyRK8wxString
libwx_baseu-2.8.so.0:_Z10wxPrevWDayRN10wxDateTime7WeekDayE
libwx_baseu-2.8.so.0:_Z10wxRealPathPw
libwx_baseu-2.8.so.0:_Z10wxRealPathRK8wxString
libwx_baseu-2.8.so.0:_Z10wxShutdown15wxShutdownFlags
libwx_baseu-2.8.so.0:_Z10wxSnprintfPwmPKwz
libwx_baseu-2.8.so.0:_Z10wxStrftimePwmPKwPK2tm
libwx_baseu-2.8.so.0:_Z10wxStrnicmpPKwS0_m
libwx_baseu-2.8.so.0:_Z10wxVLogInfoPKwP13__va_list_tag
libwx_baseu-2.8.so.0:_Z10wxVfprintfP8_IO_FILEPKwP13__va_list_tag
libwx_baseu-2.8.so.0:_Z10wxVsprintfPwPKwP13__va_list_tag
libwx_baseu-2.8.so.0:_Z11wxDirExistsPKw
libwx_baseu-2.8.so.0:_Z11wxGetLocalev
libwx_baseu-2.8.so.0:_Z11wxGetUserIdPwi
libwx_baseu-2.8.so.0:_Z11wxGetUserIdv
libwx_baseu-2.8.so.0:_Z11wxLogStatusPKwz
libwx_baseu-2.8.so.0:_Z11wxMatchWildRK8wxStringS1_b
libwx_baseu-2.8.so.0:_Z11wxNextMonthRN10wxDateTime5MonthE
libwx_baseu-2.8.so.0:_Z11wxPrevMonthRN10wxDateTime5MonthE
libwx_baseu-2.8.so.0:_Z11wxSetlocaleiPKw
libwx_baseu-2.8.so.0:_Z11wxSnprintf_PwmPKwz
libwx_baseu-2.8.so.0:_Z11wxSplitPathPKwP8wxStringS2_S2_
libwx_baseu-2.8.so.0:_Z11wxSplitPathR13wxArrayStringPKw
libwx_baseu-2.8.so.0:_Z11wxVLogErrorPKwP13__va_list_tag
libwx_baseu-2.8.so.0:_Z11wxVsnprintfPwmPKwP13__va_list_tag
libwx_baseu-2.8.so.0:_Z12wxEntryStartRiPPc
libwx_baseu-2.8.so.0:_Z12wxEntryStartRiPPw
libwx_baseu-2.8.so.0:_Z12wxExpandPathPwPKw
libwx_baseu-2.8.so.0:_Z12wxFileExistsRK8wxString
libwx_baseu-2.8.so.0:_Z12wxGetDataDirv
libwx_baseu-2.8.so.0:_Z12wxGetHomeDirP8wxString
libwx_baseu-2.8.so.0:_Z12wxGetHomeDirv
libwx_baseu-2.8.so.0:_Z12wxGetUTCTimev
libwx_baseu-2.8.so.0:_Z12wxInitializeiPPc
libwx_baseu-2.8.so.0:_Z12wxInitializeiPPw
libwx_baseu-2.8.so.0:_Z12wxIsReadableRK8wxString
libwx_baseu-2.8.so.0:_Z12wxIsWritableRK8wxString
libwx_baseu-2.8.so.0:_Z12wxLogGenericmPKwz
libwx_baseu-2.8.so.0:_Z12wxLogMessagePKwz
libwx_baseu-2.8.so.0:_Z12wxLogVerbosePKwz
libwx_baseu-2.8.so.0:_Z12wxLogWarningPKwz
libwx_baseu-2.8.so.0:_Z12wxMicroSleepm
libwx_baseu-2.8.so.0:_Z12wxMilliSleepm
libwx_baseu-2.8.so.0:_Z12wxRemoveFileRK8wxString
libwx_baseu-2.8.so.0:_Z12wxRenameFileRK8wxStringS1_b
libwx_baseu-2.8.so.0:_Z12wxStartTimerv
libwx_baseu-2.8.so.0:_Z12wxVLogStatusPKwP13__va_list_tag
libwx_baseu-2.8.so.0:_Z12wxWakeUpIdlev
libwx_baseu-2.8.so.0:_Z13wxConcatFilesRK8wxStringS1_S1_
libwx_baseu-2.8.so.0:_Z13wxGetFileKindP8_IO_FILE
libwx_baseu-2.8.so.0:_Z13wxGetFileKindi
libwx_baseu-2.8.so.0:_Z13wxGetHostNamePwi
libwx_baseu-2.8.so.0:_Z13wxGetHostNamev
libwx_baseu-2.8.so.0:_Z13wxGetUserHomeRK8wxString
libwx_baseu-2.8.so.0:_Z13wxGetUserNamePwi
libwx_baseu-2.8.so.0:_Z13wxGetUserNamev
libwx_baseu-2.8.so.0:_Z13wxLogSysErrorPKwz
libwx_baseu-2.8.so.0:_Z13wxLogSysErrorlPKwz
libwx_baseu-2.8.so.0:_Z13wxSysErrorMsgm
libwx_baseu-2.8.so.0:_Z13wxVLogGenericmPKwP13__va_list_tag
libwx_baseu-2.8.so.0:_Z13wxVLogMessagePKwP13__va_list_tag
libwx_baseu-2.8.so.0:_Z13wxVLogVerbosePKwP13__va_list_tag
libwx_baseu-2.8.so.0:_Z13wxVLogWarningPKwP13__va_list_tag
libwx_baseu-2.8.so.0:_Z14wxContractPathRK8wxStringS1_S1_
libwx_baseu-2.8.so.0:_Z14wxEntryCleanupv
libwx_baseu-2.8.so.0:_Z14wxFindNextFilev
libwx_baseu-2.8.so.0:_Z14wxGetDiskSpaceRK8wxStringP16wxLongLongNativeS3_
libwx_baseu-2.8.so.0:_Z14wxGetLocalTimev
libwx_baseu-2.8.so.0:_Z14wxGetOsVersionPiS_
libwx_baseu-2.8.so.0:_Z14wxGetPowerTypev
libwx_baseu-2.8.so.0:_Z14wxGetProcessIdv
libwx_baseu-2.8.so.0:_Z14wxIsExecutableRK8wxString
libwx_baseu-2.8.so.0:_Z14wxNewEventTypev
libwx_baseu-2.8.so.0:_Z14wxSysErrorCodev
libwx_baseu-2.8.so.0:_Z14wxUninitializev
libwx_baseu-2.8.so.0:_Z14wxVLogSysErrorPKwP13__va_list_tag
libwx_baseu-2.8.so.0:_Z14wxVLogSysErrorlPKwP13__va_list_tag
libwx_baseu-2.8.so.0:_Z15wxExpandEnvVarsRK8wxString
libwx_baseu-2.8.so.0:_Z15wxFindFirstFilePKwi
libwx_baseu-2.8.so.0:_Z15wxGetFreeMemoryv
libwx_baseu-2.8.so.0:_Z15wxLogFatalErrorPKwz
libwx_baseu-2.8.so.0:_Z15wxMutexGuiEnterv
libwx_baseu-2.8.so.0:_Z15wxMutexGuiLeavev
libwx_baseu-2.8.so.0:_Z15wxYieldIfNeededv
libwx_baseu-2.8.so.0:_Z16wxCreateTempFileRK8wxStringP6wxFilePS_
libwx_baseu-2.8.so.0:_Z16wxCreateTempFileRK8wxStringP7wxFFilePS_
libwx_baseu-2.8.so.0:_Z16wxFindFileInPathP8wxStringPKwS2_
libwx_baseu-2.8.so.0:_Z16wxGetElapsedTimeb
libwx_baseu-2.8.so.0:_Z16wxGetOSDirectoryv
libwx_baseu-2.8.so.0:_Z16wxIsAbsolutePathRK8wxString
libwx_baseu-2.8.so.0:_Z16wxStringTokenizeRK8wxStringS1_21wxStringTokenizerMode
libwx_baseu-2.8.so.0:_Z16wxStripExtensionPw
libwx_baseu-2.8.so.0:_Z16wxStripExtensionR8wxString
libwx_baseu-2.8.so.0:_Z16wxVLogFatalErrorPKwP13__va_list_tag
libwx_baseu-2.8.so.0:_Z17wxGetBatteryStatev
libwx_baseu-2.8.so.0:_Z17wxGetEmailAddressPwi
libwx_baseu-2.8.so.0:_Z17wxGetEmailAddressv
libwx_baseu-2.8.so.0:_Z17wxGetFullHostNamePwi
libwx_baseu-2.8.so.0:_Z17wxGetFullHostNamev
libwx_baseu-2.8.so.0:_Z17wxGetTempFileNameRK8wxStringPw
libwx_baseu-2.8.so.0:_Z17wxGetTempFileNameRK8wxStringRS_
libwx_baseu-2.8.so.0:_Z17wxIsPlatform64Bitv
libwx_baseu-2.8.so.0:_Z17wxSafeShowMessageRK8wxStringS1_
libwx_baseu-2.8.so.0:_Z18new_wxMBConv_iconvPKw
libwx_baseu-2.8.so.0:_Z18new_wxMBConv_wxwinPKw
libwx_baseu-2.8.so.0:_Z18wxCopyAbsolutePathRK8wxString
libwx_baseu-2.8.so.0:_Z18wxDos2UnixFilenamePw
libwx_baseu-2.8.so.0:_Z18wxFileNameFromPathPw
libwx_baseu-2.8.so.0:_Z18wxFileNameFromPathRK8wxString
libwx_baseu-2.8.so.0:_Z18wxGetInstallPrefixv
libwx_baseu-2.8.so.0:_Z18wxGetOsDescriptionv
libwx_baseu-2.8.so.0:_Z18wxSafeConvertMB2WXPKc
libwx_baseu-2.8.so.0:_Z18wxSafeConvertWX2MBPKw
libwx_baseu-2.8.so.0:_Z18wxUnix2DosFilenamePw
libwx_baseu-2.8.so.0:_Z18wxUseFilterClassesv
libwx_baseu-2.8.so.0:_Z19wxUseArchiveClassesv
libwx_baseu-2.8.so.0:_Z20wxCreateTempFileNameRK8wxStringP6wxFilePb
libwx_baseu-2.8.so.0:_Z20wxCreateTempFileNameRK8wxStringP7wxFFilePb
libwx_baseu-2.8.so.0:_Z20wxGetLocalTimeMillisv
libwx_baseu-2.8.so.0:_Z21wxCreateDynamicObjectPKw
libwx_baseu-2.8.so.0:_Z21wxGetWorkingDirectoryPwi
libwx_baseu-2.8.so.0:_Z21wxSetWorkingDirectoryRK8wxString
libwx_baseu-2.8.so.0:_Z21wxStringSortAscendingP8wxStringS0_
libwx_baseu-2.8.so.0:_Z22wxFileModificationTimeRK8wxString
libwx_baseu-2.8.so.0:_Z22wxLaunchDefaultBrowserRK8wxStringi
libwx_baseu-2.8.so.0:_Z22wxStringSortDescendingP8wxStringS0_
libwx_baseu-2.8.so.0:_Z23wxEndsWithPathSeparatorPKw
libwx_baseu-2.8.so.0:_Z23wxHandleFatalExceptionsb
libwx_baseu-2.8.so.0:_Z24wxIsPlatformLittleEndianv
libwx_baseu-2.8.so.0:_Z26wxHandleProcessTerminationP16wxEndProcessData
libwx_baseu-2.8.so.0:_Z26wxParseCommonDialogsFilterRK8wxStringR13wxArrayStringS3_
libwx_baseu-2.8.so.0:_Z29wxSetLaunchDefaultBrowserImplPFbRK8wxStringiE
libwx_baseu-2.8.so.0:_Z4endlR18wxTextOutputStream
libwx_baseu-2.8.so.0:_Z5wxNowv
libwx_baseu-2.8.so.0:_Z6wxAtofPKw
libwx_baseu-2.8.so.0:_Z6wxAtoiPKw
libwx_baseu-2.8.so.0:_Z6wxAtolPKw
libwx_baseu-2.8.so.0:_Z6wxEndLR14wxOutputStream
libwx_baseu-2.8.so.0:_Z6wxExitv
libwx_baseu-2.8.so.0:_Z6wxKilll8wxSignalP11wxKillErrori
libwx_baseu-2.8.so.0:_Z6wxOpenPKwij
libwx_baseu-2.8.so.0:_Z6wxPutcwP8_IO_FILE
libwx_baseu-2.8.so.0:_Z6wxPutsPKw
libwx_baseu-2.8.so.0:_Z6wxStatPKwP4stat
libwx_baseu-2.8.so.0:_Z7wxCtimePKl
libwx_baseu-2.8.so.0:_Z7wxEntryRiPPc
libwx_baseu-2.8.so.0:_Z7wxEntryRiPPw
libwx_baseu-2.8.so.0:_Z7wxFopenPKwS0_
libwx_baseu-2.8.so.0:_Z7wxLstatPKwP4stat
libwx_baseu-2.8.so.0:_Z7wxMB2WCPwPKcm
libwx_baseu-2.8.so.0:_Z7wxMkdirRK8wxStringi
libwx_baseu-2.8.so.0:_Z7wxRmdirRK8wxStringi
libwx_baseu-2.8.so.0:_Z7wxScanfPKwz
libwx_baseu-2.8.so.0:_Z7wxShellRK8wxString
libwx_baseu-2.8.so.0:_Z7wxShellRK8wxStringR13wxArrayString
libwx_baseu-2.8.so.0:_Z7wxSleepi
libwx_baseu-2.8.so.0:_Z7wxWC2MBPcPKwm
libwx_baseu-2.8.so.0:_Z7wxYieldv
libwx_baseu-2.8.so.0:_Z8wxAccessPKwi
libwx_baseu-2.8.so.0:_Z8wxFscanfP8_IO_FILEPKwz
libwx_baseu-2.8.so.0:_Z8wxGetCwdv
libwx_baseu-2.8.so.0:_Z8wxGetEnvRK8wxStringPS_
libwx_baseu-2.8.so.0:_Z8wxGetenvPKw
libwx_baseu-2.8.so.0:_Z8wxIsWildRK8wxString
libwx_baseu-2.8.so.0:_Z8wxOKlibcv
libwx_baseu-2.8.so.0:_Z8wxPrintfPKwz
libwx_baseu-2.8.so.0:_Z8wxRemovePKw
libwx_baseu-2.8.so.0:_Z8wxRenamePKwS0_
libwx_baseu-2.8.so.0:_Z8wxSetEnvRK8wxStringPKw
libwx_baseu-2.8.so.0:_Z8wxSscanfPKwS0_z
libwx_baseu-2.8.so.0:_Z8wxStrtokPwPKwPS_
libwx_baseu-2.8.so.0:_Z8wxSystemPKw
libwx_baseu-2.8.so.0:_Z8wxUsleepm
libwx_baseu-2.8.so.0:_Z9wxExecutePPwiP9wxProcess
libwx_baseu-2.8.so.0:_Z9wxExecuteRK8wxStringR13wxArrayStringS3_i
libwx_baseu-2.8.so.0:_Z9wxExecuteRK8wxStringR13wxArrayStringi
libwx_baseu-2.8.so.0:_Z9wxExecuteRK8wxStringiP9wxProcess
libwx_baseu-2.8.so.0:_Z9wxFprintfP8_IO_FILEPKwz
libwx_baseu-2.8.so.0:_Z9wxFreopenPKwS0_P8_IO_FILE
libwx_baseu-2.8.so.0:_Z9wxLogInfoPKwz
libwx_baseu-2.8.so.0:_Z9wxSprintfPwPKwz
libwx_baseu-2.8.so.0:_Z9wxStrdupWPKw
libwx_baseu-2.8.so.0:_Z9wxStricmpPKwS0_
libwx_baseu-2.8.so.0:_Z9wxVprintfPKwP13__va_list_tag
libwx_baseu-2.8.so.0:_Z9wxVsscanfPKwS0_P13__va_list_tag
libwx_baseu-2.8.so.0:_ZN10wxConvAuto11InitFromBOMENS_7BOMTypeE
libwx_baseu-2.8.so.0:_ZN10wxConvAuto13InitFromInputEPPKcPm
libwx_baseu-2.8.so.0:_ZN10wxConvAuto9DetectBOMEPKcm
libwx_baseu-2.8.so.0:_ZN10wxDateTime10GetCenturyEi
libwx_baseu-2.8.so.0:_ZN10wxDateTime10GetCountryEv
libwx_baseu-2.8.so.0:_ZN10wxDateTime10IsLeapYearEiNS_8CalendarE
libwx_baseu-2.8.so.0:_ZN10wxDateTime10SetCountryENS_7CountryE
libwx_baseu-2.8.so.0:_ZN10wxDateTime10SetFromDOSEm
libwx_baseu-2.8.so.0:_ZN10wxDateTime11GetBeginDSTEiNS_7CountryE
libwx_baseu-2.8.so.0:_ZN10wxDateTime11ParseFormatEPKwS1_RKS_
libwx_baseu-2.8.so.0:_ZN10wxDateTime12GetMonthNameENS_5MonthENS_9NameFlagsE
libwx_baseu-2.8.so.0:_ZN10wxDateTime12MakeTimezoneERKNS_8TimeZoneEb
libwx_baseu-2.8.so.0:_ZN10wxDateTime12SetToTheWeekEtNS_7WeekDayENS_9WeekFlagsE
libwx_baseu-2.8.so.0:_ZN10wxDateTime12SetToWeekDayENS_7WeekDayEiNS_5MonthEi
libwx_baseu-2.8.so.0:_ZN10wxDateTime12SetToYearDayEt
libwx_baseu-2.8.so.0:_ZN10wxDateTime13ParseDateTimeEPKw
libwx_baseu-2.8.so.0:_ZN10wxDateTime14GetAmPmStringsEP8wxStringS1_
libwx_baseu-2.8.so.0:_ZN10wxDateTime14GetCurrentYearENS_8CalendarE
libwx_baseu-2.8.so.0:_ZN10wxDateTime14GetWeekDayNameENS_7WeekDayENS_9NameFlagsE
libwx_baseu-2.8.so.0:_ZN10wxDateTime14SetMillisecondEt
libwx_baseu-2.8.so.0:_ZN10wxDateTime15ConvertYearToBCEi
libwx_baseu-2.8.so.0:_ZN10wxDateTime15GetCurrentMonthENS_8CalendarE
libwx_baseu-2.8.so.0:_ZN10wxDateTime15GetNumberOfDaysENS_5MonthEiNS_8CalendarE
libwx_baseu-2.8.so.0:_ZN10wxDateTime15GetNumberOfDaysEiNS_8CalendarE
libwx_baseu-2.8.so.0:_ZN10wxDateTime15IsDSTApplicableEiNS_7CountryE
libwx_baseu-2.8.so.0:_ZN10wxDateTime15ParseRfc822DateEPKw
libwx_baseu-2.8.so.0:_ZN10wxDateTime15SetToWeekOfYearEitNS_7WeekDayE
libwx_baseu-2.8.so.0:_ZN10wxDateTime16MakeFromTimezoneERKNS_8TimeZoneEb
libwx_baseu-2.8.so.0:_ZN10wxDateTime16SetToNextWeekDayENS_7WeekDayE
libwx_baseu-2.8.so.0:_ZN10wxDateTime16SetToPrevWeekDayENS_7WeekDayE
libwx_baseu-2.8.so.0:_ZN10wxDateTime17SetToLastMonthDayENS_5MonthEi
libwx_baseu-2.8.so.0:_ZN10wxDateTime21IsWestEuropeanCountryENS_7CountryE
libwx_baseu-2.8.so.0:_ZN10wxDateTime22SetToWeekDayInSameWeekENS_7WeekDayENS_9WeekFlagsE
libwx_baseu-2.8.so.0:_ZN10wxDateTime2Tm14ComputeWeekDayEv
libwx_baseu-2.8.so.0:_ZN10wxDateTime2Tm7AddDaysEi
libwx_baseu-2.8.so.0:_ZN10wxDateTime2Tm9AddMonthsEi
libwx_baseu-2.8.so.0:_ZN10wxDateTime2TmC1ERK2tmRKNS_8TimeZoneE
libwx_baseu-2.8.so.0:_ZN10wxDateTime2TmC1Ev
libwx_baseu-2.8.so.0:_ZN10wxDateTime2TmC2ERK2tmRKNS_8TimeZoneE
libwx_baseu-2.8.so.0:_ZN10wxDateTime2TmC2Ev
libwx_baseu-2.8.so.0:_ZN10wxDateTime3AddERK10wxDateSpan
libwx_baseu-2.8.so.0:_ZN10wxDateTime3SetERK2tm
libwx_baseu-2.8.so.0:_ZN10wxDateTime3SetEd
libwx_baseu-2.8.so.0:_ZN10wxDateTime3SetEtNS_5MonthEitttt
libwx_baseu-2.8.so.0:_ZN10wxDateTime3SetEtttt
libwx_baseu-2.8.so.0:_ZN10wxDateTime4UNowEv
libwx_baseu-2.8.so.0:_ZN10wxDateTime6SetDayEt
libwx_baseu-2.8.so.0:_ZN10wxDateTime7SetHourEt
libwx_baseu-2.8.so.0:_ZN10wxDateTime7SetYearEi
libwx_baseu-2.8.so.0:_ZN10wxDateTime8GetTmNowEP2tm
libwx_baseu-2.8.so.0:_ZN10wxDateTime8SetMonthENS_5MonthE
libwx_baseu-2.8.so.0:_ZN10wxDateTime8TimeZoneC1ENS_2TZE
libwx_baseu-2.8.so.0:_ZN10wxDateTime8TimeZoneC2ENS_2TZE
libwx_baseu-2.8.so.0:_ZN10wxDateTime9GetEndDSTEiNS_7CountryE
libwx_baseu-2.8.so.0:_ZN10wxDateTime9ParseDateEPKw
libwx_baseu-2.8.so.0:_ZN10wxDateTime9ParseTimeEPKw
libwx_baseu-2.8.so.0:_ZN10wxDateTime9ResetTimeEv
libwx_baseu-2.8.so.0:_ZN10wxDateTime9SetMinuteEt
libwx_baseu-2.8.so.0:_ZN10wxDateTime9SetSecondEt
libwx_baseu-2.8.so.0:_ZN10wxEventPtrD1Ev
libwx_baseu-2.8.so.0:_ZN10wxEventPtrD2Ev
libwx_baseu-2.8.so.0:_ZN10wxFileName10FileExistsERK8wxString
libwx_baseu-2.8.so.0:_ZN10wxFileName10GetHomeDirEv
libwx_baseu-2.8.so.0:_ZN10wxFileName10GetTempDirEv
libwx_baseu-2.8.so.0:_ZN10wxFileName10PrependDirERK8wxString
libwx_baseu-2.8.so.0:_ZN10wxFileName11SetFullNameERK8wxString
libwx_baseu-2.8.so.0:_ZN10wxFileName11SplitVolumeERK8wxStringPS0_S3_12wxPathFormat
libwx_baseu-2.8.so.0:_ZN10wxFileName13AssignHomeDirEv
libwx_baseu-2.8.so.0:_ZN10wxFileName14MakeRelativeToERK8wxString12wxPathFormat
libwx_baseu-2.8.so.0:_ZN10wxFileName14StripExtensionERK8wxString
libwx_baseu-2.8.so.0:_ZN10wxFileName15IsCaseSensitiveE12wxPathFormat
libwx_baseu-2.8.so.0:_ZN10wxFileName15IsPathSeparatorEw12wxPathFormat
libwx_baseu-2.8.so.0:_ZN10wxFileName17GetForbiddenCharsE12wxPathFormat
libwx_baseu-2.8.so.0:_ZN10wxFileName17GetPathSeparatorsE12wxPathFormat
libwx_baseu-2.8.so.0:_ZN10wxFileName18AssignTempFileNameERK8wxString
libwx_baseu-2.8.so.0:_ZN10wxFileName18AssignTempFileNameERK8wxStringP6wxFile
libwx_baseu-2.8.so.0:_ZN10wxFileName18AssignTempFileNameERK8wxStringP7wxFFile
libwx_baseu-2.8.so.0:_ZN10wxFileName18CreateTempFileNameERK8wxString
libwx_baseu-2.8.so.0:_ZN10wxFileName18CreateTempFileNameERK8wxStringP6wxFile
libwx_baseu-2.8.so.0:_ZN10wxFileName18CreateTempFileNameERK8wxStringP7wxFFile
libwx_baseu-2.8.so.0:_ZN10wxFileName18GetPathTerminatorsE12wxPathFormat
libwx_baseu-2.8.so.0:_ZN10wxFileName18GetVolumeSeparatorE12wxPathFormat
libwx_baseu-2.8.so.0:_ZN10wxFileName19IsValidDirComponentERK8wxString
libwx_baseu-2.8.so.0:_ZN10wxFileName20GetHumanReadableSizeERK17wxULongLongNativeRK8wxStringi
libwx_baseu-2.8.so.0:_ZN10wxFileName5ClearEv
libwx_baseu-2.8.so.0:_ZN10wxFileName5MkdirERK8wxStringii
libwx_baseu-2.8.so.0:_ZN10wxFileName5MkdirEii
libwx_baseu-2.8.so.0:_ZN10wxFileName5RmdirERK8wxString
libwx_baseu-2.8.so.0:_ZN10wxFileName5RmdirEv
libwx_baseu-2.8.so.0:_ZN10wxFileName5TouchEv
libwx_baseu-2.8.so.0:_ZN10wxFileName6AssignERK8wxString12wxPathFormat
libwx_baseu-2.8.so.0:_ZN10wxFileName6AssignERK8wxStringS2_12wxPathFormat
libwx_baseu-2.8.so.0:_ZN10wxFileName6AssignERK8wxStringS2_S2_12wxPathFormat
libwx_baseu-2.8.so.0:_ZN10wxFileName6AssignERK8wxStringS2_S2_S2_b12wxPathFormat
libwx_baseu-2.8.so.0:_ZN10wxFileName6AssignERKS_
libwx_baseu-2.8.so.0:_ZN10wxFileName6GetCwdERK8wxString
libwx_baseu-2.8.so.0:_ZN10wxFileName6SetCwdERK8wxString
libwx_baseu-2.8.so.0:_ZN10wxFileName6SetCwdEv
libwx_baseu-2.8.so.0:_ZN10wxFileName7DirNameERK8wxString12wxPathFormat
libwx_baseu-2.8.so.0:_ZN10wxFileName7GetSizeERK8wxString
libwx_baseu-2.8.so.0:_ZN10wxFileName7SetPathERK8wxString12wxPathFormat
libwx_baseu-2.8.so.0:_ZN10wxFileName8FileNameERK8wxString12wxPathFormat
libwx_baseu-2.8.so.0:_ZN10wxFileName8SetTimesEPK10wxDateTimeS2_S2_
libwx_baseu-2.8.so.0:_ZN10wxFileName9AppendDirERK8wxString
libwx_baseu-2.8.so.0:_ZN10wxFileName9AssignCwdERK8wxString
libwx_baseu-2.8.so.0:_ZN10wxFileName9AssignDirERK8wxString12wxPathFormat
libwx_baseu-2.8.so.0:_ZN10wxFileName9DirExistsERK8wxString
libwx_baseu-2.8.so.0:_ZN10wxFileName9GetFormatE12wxPathFormat
libwx_baseu-2.8.so.0:_ZN10wxFileName9InsertDirEmRK8wxString
libwx_baseu-2.8.so.0:_ZN10wxFileName9NormalizeEiRK8wxString12wxPathFormat
libwx_baseu-2.8.so.0:_ZN10wxFileName9RemoveDirEm
libwx_baseu-2.8.so.0:_ZN10wxFileName9SplitPathERK8wxStringPS0_S3_S3_12wxPathFormat
libwx_baseu-2.8.so.0:_ZN10wxFileName9SplitPathERK8wxStringPS0_S3_S3_S3_Pb12wxPathFormat
libwx_baseu-2.8.so.0:_ZN10wxFileType10SetCommandERK8wxStringS2_b
libwx_baseu-2.8.so.0:_ZN10wxFileType11UnassociateEv
libwx_baseu-2.8.so.0:_ZN10wxFileType13ExpandCommandERK8wxStringRKNS_17MessageParametersE
libwx_baseu-2.8.so.0:_ZN10wxFileType13GetExtensionsER13wxArrayString
libwx_baseu-2.8.so.0:_ZN10wxFileType14SetDefaultIconERK8wxStringi
libwx_baseu-2.8.so.0:_ZN10wxFileTypeC1ERK14wxFileTypeInfo
libwx_baseu-2.8.so.0:_ZN10wxFileTypeC1Ev
libwx_baseu-2.8.so.0:_ZN10wxFileTypeC2ERK14wxFileTypeInfo
libwx_baseu-2.8.so.0:_ZN10wxFileTypeC2Ev
libwx_baseu-2.8.so.0:_ZN10wxFileTypeD1Ev
libwx_baseu-2.8.so.0:_ZN10wxFileTypeD2Ev
libwx_baseu-2.8.so.0:_ZN10wxListBase10DeleteNodeEP10wxNodeBase
libwx_baseu-2.8.so.0:_ZN10wxListBase10DetachNodeEP10wxNodeBase
libwx_baseu-2.8.so.0:_ZN10wxListBase11DeleteNodesEP10wxNodeBaseS1_
libwx_baseu-2.8.so.0:_ZN10wxListBase12AppendCommonEP10wxNodeBase
libwx_baseu-2.8.so.0:_ZN10wxListBase12DeleteObjectEPv
libwx_baseu-2.8.so.0:_ZN10wxListBase12DoDeleteNodeEP10wxNodeBase
libwx_baseu-2.8.so.0:_ZN10wxListBase4InitE9wxKeyType
libwx_baseu-2.8.so.0:_ZN10wxListBase4SortEPFiPKvS1_E
libwx_baseu-2.8.so.0:_ZN10wxListBase5ClearEv
libwx_baseu-2.8.so.0:_ZN10wxListBase6AppendEPKwPv
libwx_baseu-2.8.so.0:_ZN10wxListBase6AppendEPv
libwx_baseu-2.8.so.0:_ZN10wxListBase6AppendElPv
libwx_baseu-2.8.so.0:_ZN10wxListBase6DoCopyERKS_
libwx_baseu-2.8.so.0:_ZN10wxListBase6InsertEP10wxNodeBasePv
libwx_baseu-2.8.so.0:_ZN10wxListBase7ForEachEPFiPvE
libwx_baseu-2.8.so.0:_ZN10wxListBase7ReverseEv
libwx_baseu-2.8.so.0:_ZN10wxListBase8LastThatEPFiPvE
libwx_baseu-2.8.so.0:_ZN10wxListBase9FirstThatEPFiPvE
libwx_baseu-2.8.so.0:_ZN10wxListBaseC1EmPPv
libwx_baseu-2.8.so.0:_ZN10wxListBaseC2EmPPv
libwx_baseu-2.8.so.0:_ZN10wxListBaseD0Ev
libwx_baseu-2.8.so.0:_ZN10wxListBaseD1Ev
libwx_baseu-2.8.so.0:_ZN10wxListBaseD2Ev
libwx_baseu-2.8.so.0:_ZN10wxLogChain5DoLogEmPKwl
libwx_baseu-2.8.so.0:_ZN10wxLogChain5FlushEv
libwx_baseu-2.8.so.0:_ZN10wxLogChain6SetLogEP5wxLog
libwx_baseu-2.8.so.0:_ZN10wxLogChainC1EP5wxLog
libwx_baseu-2.8.so.0:_ZN10wxLogChainC2EP5wxLog
libwx_baseu-2.8.so.0:_ZN10wxLogChainD0Ev
libwx_baseu-2.8.so.0:_ZN10wxLogChainD1Ev
libwx_baseu-2.8.so.0:_ZN10wxLogChainD2Ev
libwx_baseu-2.8.so.0:_ZN10wxNodeBaseC1EP10wxListBasePS_S2_PvRK9wxListKey
libwx_baseu-2.8.so.0:_ZN10wxNodeBaseC2EP10wxListBasePS_S2_PvRK9wxListKey
libwx_baseu-2.8.so.0:_ZN10wxNodeBaseD0Ev
libwx_baseu-2.8.so.0:_ZN10wxNodeBaseD1Ev
libwx_baseu-2.8.so.0:_ZN10wxNodeBaseD2Ev
libwx_baseu-2.8.so.0:_ZN10wxPathList10AddEnvListERK8wxString
libwx_baseu-2.8.so.0:_ZN10wxPathList20EnsureFileAccessibleERK8wxString
libwx_baseu-2.8.so.0:_ZN10wxPathList3AddERK13wxArrayString
libwx_baseu-2.8.so.0:_ZN10wxPathList3AddERK8wxString
libwx_baseu-2.8.so.0:_ZN10wxPlatform11AddPlatformEi
libwx_baseu-2.8.so.0:_ZN10wxPlatform14ClearPlatformsEv
libwx_baseu-2.8.so.0:_ZN10wxPlatform2IfEiRK8wxString
libwx_baseu-2.8.so.0:_ZN10wxPlatform2IfEid
libwx_baseu-2.8.so.0:_ZN10wxPlatform2IfEil
libwx_baseu-2.8.so.0:_ZN10wxPlatform2IsEi
libwx_baseu-2.8.so.0:_ZN10wxPlatform4CopyERKS_
libwx_baseu-2.8.so.0:_ZN10wxPlatform4ElseERK8wxString
libwx_baseu-2.8.so.0:_ZN10wxPlatform4ElseEd
libwx_baseu-2.8.so.0:_ZN10wxPlatform4ElseEl
libwx_baseu-2.8.so.0:_ZN10wxPlatform5IfNotEiRK8wxString
libwx_baseu-2.8.so.0:_ZN10wxPlatform5IfNotEid
libwx_baseu-2.8.so.0:_ZN10wxPlatform5IfNotEil
libwx_baseu-2.8.so.0:_ZN10wxPlatform6ElseIfEiRK8wxString
libwx_baseu-2.8.so.0:_ZN10wxPlatform6ElseIfEid
libwx_baseu-2.8.so.0:_ZN10wxPlatform6ElseIfEil
libwx_baseu-2.8.so.0:_ZN10wxPlatform9ElseIfNotEiRK8wxString
libwx_baseu-2.8.so.0:_ZN10wxPlatform9ElseIfNotEid
libwx_baseu-2.8.so.0:_ZN10wxPlatform9ElseIfNotEil
libwx_baseu-2.8.so.0:_ZN10wxTarEntry13SetIsReadOnlyEb
libwx_baseu-2.8.so.0:_ZN10wxTarEntry14wxCreateObjectEv
libwx_baseu-2.8.so.0:_ZN10wxTarEntry15GetInternalNameERK8wxString12wxPathFormatPb
libwx_baseu-2.8.so.0:_ZN10wxTarEntry7SetModeEi
libwx_baseu-2.8.so.0:_ZN10wxTarEntry7SetNameERK8wxString12wxPathFormat
libwx_baseu-2.8.so.0:_ZN10wxTarEntry8SetIsDirEb
libwx_baseu-2.8.so.0:_ZN10wxTarEntryC1ERK8wxStringRK10wxDateTimel
libwx_baseu-2.8.so.0:_ZN10wxTarEntryC1ERKS_
libwx_baseu-2.8.so.0:_ZN10wxTarEntryC2ERK8wxStringRK10wxDateTimel
libwx_baseu-2.8.so.0:_ZN10wxTarEntryC2ERKS_
libwx_baseu-2.8.so.0:_ZN10wxTarEntryD0Ev
libwx_baseu-2.8.so.0:_ZN10wxTarEntryD1Ev
libwx_baseu-2.8.so.0:_ZN10wxTarEntryD2Ev
libwx_baseu-2.8.so.0:_ZN10wxTarEntryaSERKS_
libwx_baseu-2.8.so.0:_ZN10wxTempFile4OpenERK8wxString
libwx_baseu-2.8.so.0:_ZN10wxTempFile6CommitEv
libwx_baseu-2.8.so.0:_ZN10wxTempFile7DiscardEv
libwx_baseu-2.8.so.0:_ZN10wxTempFileC1ERK8wxString
libwx_baseu-2.8.so.0:_ZN10wxTempFileC2ERK8wxString
libwx_baseu-2.8.so.0:_ZN10wxTempFileD1Ev
libwx_baseu-2.8.so.0:_ZN10wxTempFileD2Ev
libwx_baseu-2.8.so.0:_ZN10wxTextFile6OnOpenERK8wxStringN12wxTextBuffer20wxTextBufferOpenModeE
libwx_baseu-2.8.so.0:_ZN10wxTextFile6OnReadERK8wxMBConv
libwx_baseu-2.8.so.0:_ZN10wxTextFile7OnCloseEv
libwx_baseu-2.8.so.0:_ZN10wxTextFile7OnWriteE14wxTextFileTypeRK8wxMBConv
libwx_baseu-2.8.so.0:_ZN10wxTextFileC1ERK8wxString
libwx_baseu-2.8.so.0:_ZN10wxTextFileC2ERK8wxString
libwx_baseu-2.8.so.0:_ZN10wxZipEntry11ReadCentralER13wxInputStreamR8wxMBConv
libwx_baseu-2.8.so.0:_ZN10wxZipEntry11SetNotifierER13wxZipNotifier
libwx_baseu-2.8.so.0:_ZN10wxZipEntry13SetLocalExtraEPKcm
libwx_baseu-2.8.so.0:_ZN10wxZipEntry13UnsetNotifierEv
libwx_baseu-2.8.so.0:_ZN10wxZipEntry14ReadDescriptorER13wxInputStream
libwx_baseu-2.8.so.0:_ZN10wxZipEntry14wxCreateObjectEv
libwx_baseu-2.8.so.0:_ZN10wxZipEntry15GetInternalNameERK8wxString12wxPathFormatPb
libwx_baseu-2.8.so.0:_ZN10wxZipEntry15SetSystemMadeByEi
libwx_baseu-2.8.so.0:_ZN10wxZipEntry15WriteDescriptorER14wxOutputStreamjll
libwx_baseu-2.8.so.0:_ZN10wxZipEntry6NotifyEv
libwx_baseu-2.8.so.0:_ZN10wxZipEntry7SetModeEi
libwx_baseu-2.8.so.0:_ZN10wxZipEntry8SetExtraEPKcm
libwx_baseu-2.8.so.0:_ZN10wxZipEntry8SetIsDirEb
libwx_baseu-2.8.so.0:_ZN10wxZipEntry9ReadLocalER13wxInputStreamR8wxMBConv
libwx_baseu-2.8.so.0:_ZN10wxZipEntryC1ERK8wxStringRK10wxDateTimel
libwx_baseu-2.8.so.0:_ZN10wxZipEntryC1ERKS_
libwx_baseu-2.8.so.0:_ZN10wxZipEntryC2ERK8wxStringRK10wxDateTimel
libwx_baseu-2.8.so.0:_ZN10wxZipEntryC2ERKS_
libwx_baseu-2.8.so.0:_ZN10wxZipEntryD0Ev
libwx_baseu-2.8.so.0:_ZN10wxZipEntryD1Ev
libwx_baseu-2.8.so.0:_ZN10wxZipEntryD2Ev
libwx_baseu-2.8.so.0:_ZN10wxZipEntryaSERKS_
libwx_baseu-2.8.so.0:_ZN11wxClassInfo10UnregisterEv
libwx_baseu-2.8.so.0:_ZN11wxClassInfo8RegisterEv
libwx_baseu-2.8.so.0:_ZN11wxClassInfo9FindClassEPKw
libwx_baseu-2.8.so.0:_ZN11wxClassInfoD1Ev
libwx_baseu-2.8.so.0:_ZN11wxClassInfoD2Ev
libwx_baseu-2.8.so.0:_ZN11wxCondition11WaitTimeoutEm
libwx_baseu-2.8.so.0:_ZN11wxCondition4WaitEv
libwx_baseu-2.8.so.0:_ZN11wxCondition6SignalEv
libwx_baseu-2.8.so.0:_ZN11wxCondition9BroadcastEv
libwx_baseu-2.8.so.0:_ZN11wxConditionC1ER7wxMutex
libwx_baseu-2.8.so.0:_ZN11wxConditionC2ER7wxMutex
libwx_baseu-2.8.so.0:_ZN11wxConditionD1Ev
libwx_baseu-2.8.so.0:_ZN11wxConditionD2Ev
libwx_baseu-2.8.so.0:_ZN11wxFSFilePtrD1Ev
libwx_baseu-2.8.so.0:_ZN11wxFSFilePtrD2Ev
libwx_baseu-2.8.so.0:_ZN11wxHashTable11GetNextNodeEm
libwx_baseu-2.8.so.0:_ZN11wxHashTable16DoDeleteContentsEP20wxHashTableBase_Node
libwx_baseu-2.8.so.0:_ZN11wxHashTable4NextEv
libwx_baseu-2.8.so.0:_ZN11wxHashTable6DoCopyERKS_
libwx_baseu-2.8.so.0:_ZN11wxHashTableC1ERKS_
libwx_baseu-2.8.so.0:_ZN11wxHashTableC2ERKS_
libwx_baseu-2.8.so.0:_ZN11wxHashTableaSERKS_
libwx_baseu-2.8.so.0:_ZN11wxLogBuffer11DoLogStringEPKwl
libwx_baseu-2.8.so.0:_ZN11wxLogBuffer5DoLogEmPKwl
libwx_baseu-2.8.so.0:_ZN11wxLogBuffer5FlushEv
libwx_baseu-2.8.so.0:_ZN11wxLogStderr11DoLogStringEPKwl
libwx_baseu-2.8.so.0:_ZN11wxLogStderrC1EP8_IO_FILE
libwx_baseu-2.8.so.0:_ZN11wxLogStderrC2EP8_IO_FILE
libwx_baseu-2.8.so.0:_ZN11wxLogStream11DoLogStringEPKwl
libwx_baseu-2.8.so.0:_ZN11wxLogStreamC1EPSo
libwx_baseu-2.8.so.0:_ZN11wxLogStreamC2EPSo
libwx_baseu-2.8.so.0:_ZN11wxRegExImpl7CompileERK8wxStringi
libwx_baseu-2.8.so.0:_ZN11wxRegExImplC1Ev
libwx_baseu-2.8.so.0:_ZN11wxRegExImplC2Ev
libwx_baseu-2.8.so.0:_ZN11wxRegExImplD1Ev
libwx_baseu-2.8.so.0:_ZN11wxRegExImplD2Ev
libwx_baseu-2.8.so.0:_ZN11wxSemaphore11WaitTimeoutEm
libwx_baseu-2.8.so.0:_ZN11wxSemaphore4PostEv
libwx_baseu-2.8.so.0:_ZN11wxSemaphore4WaitEv
libwx_baseu-2.8.so.0:_ZN11wxSemaphore7TryWaitEv
libwx_baseu-2.8.so.0:_ZN11wxSemaphoreC1Eii
libwx_baseu-2.8.so.0:_ZN11wxSemaphoreC2Eii
libwx_baseu-2.8.so.0:_ZN11wxSemaphoreD1Ev
libwx_baseu-2.8.so.0:_ZN11wxSemaphoreD2Ev
libwx_baseu-2.8.so.0:_ZN11wxStopWatch5StartEl
libwx_baseu-2.8.so.0:_ZN11wxZipEndRec4ReadER13wxInputStreamR8wxMBConv
libwx_baseu-2.8.so.0:_ZN11wxZipEndRecC1Ev
libwx_baseu-2.8.so.0:_ZN11wxZipEndRecC2Ev
libwx_baseu-2.8.so.0:_ZN11wxZipHeaderC1ER13wxInputStreamm
libwx_baseu-2.8.so.0:_ZN11wxZipHeaderC2ER13wxInputStreamm
libwx_baseu-2.8.so.0:_ZN11wxZipMemory6UniqueEm
libwx_baseu-2.8.so.0:_ZN12wxAppConsole10InitializeERiPPw
libwx_baseu-2.8.so.0:_ZN12wxAppConsole11FilterEventER7wxEvent
libwx_baseu-2.8.so.0:_ZN12wxAppConsole12CreateTraitsEv
libwx_baseu-2.8.so.0:_ZN12wxAppConsole13OnCmdLineHelpER15wxCmdLineParser
libwx_baseu-2.8.so.0:_ZN12wxAppConsole13OnInitCmdLineER15wxCmdLineParser
libwx_baseu-2.8.so.0:_ZN12wxAppConsole14OnCmdLineErrorER15wxCmdLineParser
libwx_baseu-2.8.so.0:_ZN12wxAppConsole15OnCmdLineParsedER15wxCmdLineParser
libwx_baseu-2.8.so.0:_ZN12wxAppConsole17CheckBuildOptionsEPKcS1_
libwx_baseu-2.8.so.0:_ZN12wxAppConsole20ProcessPendingEventsEv
libwx_baseu-2.8.so.0:_ZN12wxAppConsole4ExitEv
libwx_baseu-2.8.so.0:_ZN12wxAppConsole6OnExitEv
libwx_baseu-2.8.so.0:_ZN12wxAppConsole6OnInitEv
libwx_baseu-2.8.so.0:_ZN12wxAppConsole7CleanUpEv
libwx_baseu-2.8.so.0:_ZN12wxAppConsole9GetTraitsEv
libwx_baseu-2.8.so.0:_ZN12wxAppConsoleC1Ev
libwx_baseu-2.8.so.0:_ZN12wxAppConsoleC2Ev
libwx_baseu-2.8.so.0:_ZN12wxAppConsoleD0Ev
libwx_baseu-2.8.so.0:_ZN12wxAppConsoleD1Ev
libwx_baseu-2.8.so.0:_ZN12wxAppConsoleD2Ev
libwx_baseu-2.8.so.0:_ZN12wxAppPtrBaseD1Ev
libwx_baseu-2.8.so.0:_ZN12wxAppPtrBaseD2Ev
libwx_baseu-2.8.so.0:_ZN12wxConfigBase10DoWriteIntERK8wxStringi
libwx_baseu-2.8.so.0:_ZN12wxConfigBase11DoWriteBoolERK8wxStringb
libwx_baseu-2.8.so.0:_ZN12wxConfigBase13DoWriteDoubleERK8wxStringd
libwx_baseu-2.8.so.0:_ZN12wxConfigBase23RemoveTrailingSeparatorERK8wxString
libwx_baseu-2.8.so.0:_ZN12wxConfigBase3SetEPS_
libwx_baseu-2.8.so.0:_ZN12wxConfigBase6CreateEv
libwx_baseu-2.8.so.0:_ZN12wxConfigBaseC1ERK8wxStringS2_S2_S2_l
libwx_baseu-2.8.so.0:_ZN12wxConfigBaseC2ERK8wxStringS2_S2_S2_l
libwx_baseu-2.8.so.0:_ZN12wxConfigBaseD0Ev
libwx_baseu-2.8.so.0:_ZN12wxConfigBaseD1Ev
libwx_baseu-2.8.so.0:_ZN12wxConfigBaseD2Ev
libwx_baseu-2.8.so.0:_ZN12wxEvtHandler10DisconnectEiiiM8wxObjectFvR7wxEventEPS0_PS_
libwx_baseu-2.8.so.0:_ZN12wxEvtHandler12ProcessEventER7wxEvent
libwx_baseu-2.8.so.0:_ZN12wxEvtHandler14wxCreateObjectEv
libwx_baseu-2.8.so.0:_ZN12wxEvtHandler15AddPendingEventER7wxEvent
libwx_baseu-2.8.so.0:_ZN12wxEvtHandler15DoSetClientDataEPv
libwx_baseu-2.8.so.0:_ZN12wxEvtHandler16ClearEventLockerEv
libwx_baseu-2.8.so.0:_ZN12wxEvtHandler16SearchEventTableER12wxEventTableR7wxEvent
libwx_baseu-2.8.so.0:_ZN12wxEvtHandler17DoSetClientObjectEP12wxClientData
libwx_baseu-2.8.so.0:_ZN12wxEvtHandler18ProcessThreadEventER7wxEvent
libwx_baseu-2.8.so.0:_ZN12wxEvtHandler20ProcessPendingEventsEv
libwx_baseu-2.8.so.0:_ZN12wxEvtHandler21ProcessEventIfMatchesERK21wxEventTableEntryBasePS_R7wxEvent
libwx_baseu-2.8.so.0:_ZN12wxEvtHandler23SearchDynamicEventTableER7wxEvent
libwx_baseu-2.8.so.0:_ZN12wxEvtHandler7ConnectEiiiM8wxObjectFvR7wxEventEPS0_PS_
libwx_baseu-2.8.so.0:_ZN12wxEvtHandler9TryParentER7wxEvent
libwx_baseu-2.8.so.0:_ZN12wxEvtHandlerC1Ev
libwx_baseu-2.8.so.0:_ZN12wxEvtHandlerC2Ev
libwx_baseu-2.8.so.0:_ZN12wxEvtHandlerD0Ev
libwx_baseu-2.8.so.0:_ZN12wxEvtHandlerD1Ev
libwx_baseu-2.8.so.0:_ZN12wxEvtHandlerD2Ev
libwx_baseu-2.8.so.0:_ZN12wxFileConfig11DeleteEntryERK8wxStringb
libwx_baseu-2.8.so.0:_ZN12wxFileConfig11DeleteGroupERK8wxString
libwx_baseu-2.8.so.0:_ZN12wxFileConfig11DoWriteLongERK8wxStringl
libwx_baseu-2.8.so.0:_ZN12wxFileConfig11GetLocalDirEv
libwx_baseu-2.8.so.0:_ZN12wxFileConfig11RenameEntryERK8wxStringS2_
libwx_baseu-2.8.so.0:_ZN12wxFileConfig11RenameGroupERK8wxStringS2_
libwx_baseu-2.8.so.0:_ZN12wxFileConfig11SetRootPathEv
libwx_baseu-2.8.so.0:_ZN12wxFileConfig12GetGlobalDirEv
libwx_baseu-2.8.so.0:_ZN12wxFileConfig13DoWriteStringERK8wxStringS2_
libwx_baseu-2.8.so.0:_ZN12wxFileConfig14LineListAppendERK8wxString
libwx_baseu-2.8.so.0:_ZN12wxFileConfig14LineListInsertERK8wxStringP20wxFileConfigLineList
libwx_baseu-2.8.so.0:_ZN12wxFileConfig14LineListRemoveEP20wxFileConfigLineList
libwx_baseu-2.8.so.0:_ZN12wxFileConfig15LineListIsEmptyEv
libwx_baseu-2.8.so.0:_ZN12wxFileConfig16GetLocalFileNameEPKw
libwx_baseu-2.8.so.0:_ZN12wxFileConfig17GetGlobalFileNameEPKw
libwx_baseu-2.8.so.0:_ZN12wxFileConfig4InitEv
libwx_baseu-2.8.so.0:_ZN12wxFileConfig4SaveER14wxOutputStreamRK8wxMBConv
libwx_baseu-2.8.so.0:_ZN12wxFileConfig5FlushEb
libwx_baseu-2.8.so.0:_ZN12wxFileConfig5ParseERK12wxTextBufferb
libwx_baseu-2.8.so.0:_ZN12wxFileConfig7CleanUpEv
libwx_baseu-2.8.so.0:_ZN12wxFileConfig7SetPathERK8wxString
libwx_baseu-2.8.so.0:_ZN12wxFileConfig9DeleteAllEv
libwx_baseu-2.8.so.0:_ZN12wxFileConfig9DoSetPathERK8wxStringb
libwx_baseu-2.8.so.0:_ZN12wxFileConfigC1ER13wxInputStreamRK8wxMBConv
libwx_baseu-2.8.so.0:_ZN12wxFileConfigC1ERK8wxStringS2_S2_S2_lRK8wxMBConv
libwx_baseu-2.8.so.0:_ZN12wxFileConfigC2ER13wxInputStreamRK8wxMBConv
libwx_baseu-2.8.so.0:_ZN12wxFileConfigC2ERK8wxStringS2_S2_S2_lRK8wxMBConv
libwx_baseu-2.8.so.0:_ZN12wxFileConfigD0Ev
libwx_baseu-2.8.so.0:_ZN12wxFileConfigD1Ev
libwx_baseu-2.8.so.0:_ZN12wxFileConfigD2Ev
libwx_baseu-2.8.so.0:_ZN12wxFileStreamC1ERK8wxString
libwx_baseu-2.8.so.0:_ZN12wxFileStreamC2ERK8wxString
libwx_baseu-2.8.so.0:_ZN12wxFileSystem10AddHandlerEP19wxFileSystemHandler
libwx_baseu-2.8.so.0:_ZN12wxFileSystem12ChangePathToERK8wxStringb
libwx_baseu-2.8.so.0:_ZN12wxFileSystem13FileNameToURLERK10wxFileName
libwx_baseu-2.8.so.0:_ZN12wxFileSystem13RemoveHandlerEP19wxFileSystemHandler
libwx_baseu-2.8.so.0:_ZN12wxFileSystem13URLToFileNameERK8wxString
libwx_baseu-2.8.so.0:_ZN12wxFileSystem14FindFileInPathEP8wxStringPKwS3_
libwx_baseu-2.8.so.0:_ZN12wxFileSystem14wxCreateObjectEv
libwx_baseu-2.8.so.0:_ZN12wxFileSystem15CleanUpHandlersEv
libwx_baseu-2.8.so.0:_ZN12wxFileSystem17HasHandlerForPathERK8wxString
libwx_baseu-2.8.so.0:_ZN12wxFileSystem8FindNextEv
libwx_baseu-2.8.so.0:_ZN12wxFileSystem8OpenFileERK8wxStringi
libwx_baseu-2.8.so.0:_ZN12wxFileSystem9FindFirstERK8wxStringi
libwx_baseu-2.8.so.0:_ZN12wxFileSystem9MakeLocalEP19wxFileSystemHandler
libwx_baseu-2.8.so.0:_ZN12wxFileSystemD0Ev
libwx_baseu-2.8.so.0:_ZN12wxFileSystemD1Ev
libwx_baseu-2.8.so.0:_ZN12wxFileSystemD2Ev
libwx_baseu-2.8.so.0:_ZN12wxMsgCatalog4LoadEPKwS1_S1_b
libwx_baseu-2.8.so.0:_ZN12wxStackFrame9OnGetNameEv
libwx_baseu-2.8.so.0:_ZN12wxStreamBase9OnSysSeekEl10wxSeekMode
libwx_baseu-2.8.so.0:_ZN12wxStreamBaseC1Ev
libwx_baseu-2.8.so.0:_ZN12wxStreamBaseC2Ev
libwx_baseu-2.8.so.0:_ZN12wxStreamBaseD0Ev
libwx_baseu-2.8.so.0:_ZN12wxStreamBaseD1Ev
libwx_baseu-2.8.so.0:_ZN12wxStreamBaseD2Ev
libwx_baseu-2.8.so.0:_ZN12wxStringBase10AssignCopyEmPKw
libwx_baseu-2.8.so.0:_ZN12wxStringBase10ConcatSelfEmPKwm
libwx_baseu-2.8.so.0:_ZN12wxStringBase11AllocBufferEm
libwx_baseu-2.8.so.0:_ZN12wxStringBase15CopyBeforeWriteEv
libwx_baseu-2.8.so.0:_ZN12wxStringBase16AllocBeforeWriteEm
libwx_baseu-2.8.so.0:_ZN12wxStringBase3endEv
libwx_baseu-2.8.so.0:_ZN12wxStringBase4swapERS_
libwx_baseu-2.8.so.0:_ZN12wxStringBase5AllocEm
libwx_baseu-2.8.so.0:_ZN12wxStringBase5beginEv
libwx_baseu-2.8.so.0:_ZN12wxStringBase5eraseEPw
libwx_baseu-2.8.so.0:_ZN12wxStringBase5eraseEmm
libwx_baseu-2.8.so.0:_ZN12wxStringBase6appendEmw
libwx_baseu-2.8.so.0:_ZN12wxStringBase6insertEmPKwm
libwx_baseu-2.8.so.0:_ZN12wxStringBase6resizeEmw
libwx_baseu-2.8.so.0:_ZN12wxStringBase7replaceEmmPKw
libwx_baseu-2.8.so.0:_ZN12wxStringBase7replaceEmmPKwm
libwx_baseu-2.8.so.0:_ZN12wxStringBase7replaceEmmRKS_mm
libwx_baseu-2.8.so.0:_ZN12wxStringBase7replaceEmmmw
libwx_baseu-2.8.so.0:_ZN12wxStringBase8InitWithEPKwmm
libwx_baseu-2.8.so.0:_ZN12wxStringBaseC1EPKvS1_
libwx_baseu-2.8.so.0:_ZN12wxStringBaseC1Emw
libwx_baseu-2.8.so.0:_ZN12wxStringBaseC2EPKvS1_
libwx_baseu-2.8.so.0:_ZN12wxStringBaseC2Emw
libwx_baseu-2.8.so.0:_ZN12wxStringBaseaSEPKw
libwx_baseu-2.8.so.0:_ZN12wxStringBaseaSERKS_
libwx_baseu-2.8.so.0:_ZN12wxStringBaseaSEw
libwx_baseu-2.8.so.0:_ZN12wxStringHash14charStringHashEPKc
libwx_baseu-2.8.so.0:_ZN12wxStringHash16wxCharStringHashEPKw
libwx_baseu-2.8.so.0:_ZN12wxStringList14wxCreateObjectEv
libwx_baseu-2.8.so.0:_ZN12wxStringList3AddEPKw
libwx_baseu-2.8.so.0:_ZN12wxStringList4SortEv
libwx_baseu-2.8.so.0:_ZN12wxStringList6DeleteEPKw
libwx_baseu-2.8.so.0:_ZN12wxStringList6DoCopyERKS_
libwx_baseu-2.8.so.0:_ZN12wxStringList7PrependEPKw
libwx_baseu-2.8.so.0:_ZN12wxStringListC1EPKwz
libwx_baseu-2.8.so.0:_ZN12wxStringListC1Ev
libwx_baseu-2.8.so.0:_ZN12wxStringListC2EPKwz
libwx_baseu-2.8.so.0:_ZN12wxStringListC2Ev
libwx_baseu-2.8.so.0:_ZN12wxTextBuffer4OpenERK8wxMBConv
libwx_baseu-2.8.so.0:_ZN12wxTextBuffer4OpenERK8wxStringRK8wxMBConv
libwx_baseu-2.8.so.0:_ZN12wxTextBuffer5CloseEv
libwx_baseu-2.8.so.0:_ZN12wxTextBuffer5WriteE14wxTextFileTypeRK8wxMBConv
libwx_baseu-2.8.so.0:_ZN12wxTextBuffer6CreateERK8wxString
libwx_baseu-2.8.so.0:_ZN12wxTextBuffer6CreateEv
libwx_baseu-2.8.so.0:_ZN12wxTextBuffer6GetEOLE14wxTextFileType
libwx_baseu-2.8.so.0:_ZN12wxTextBuffer9TranslateERK8wxString14wxTextFileType
libwx_baseu-2.8.so.0:_ZN12wxTextBufferC1ERK8wxString
libwx_baseu-2.8.so.0:_ZN12wxTextBufferC2ERK8wxString
libwx_baseu-2.8.so.0:_ZN12wxTextBufferD0Ev
libwx_baseu-2.8.so.0:_ZN12wxTextBufferD1Ev
libwx_baseu-2.8.so.0:_ZN12wxTextBufferD2Ev
libwx_baseu-2.8.so.0:_ZN13wxArrayParams3AddERK14wxCmdLineParamm
libwx_baseu-2.8.so.0:_ZN13wxArrayParams6DoCopyERKS_
libwx_baseu-2.8.so.0:_ZN13wxArrayParams6InsertERK14wxCmdLineParammm
libwx_baseu-2.8.so.0:_ZN13wxArrayParams7DoEmptyEv
libwx_baseu-2.8.so.0:_ZN13wxArrayParams8RemoveAtEmm
libwx_baseu-2.8.so.0:_ZN13wxArrayParamsC1ERKS_
libwx_baseu-2.8.so.0:_ZN13wxArrayParamsC2ERKS_
libwx_baseu-2.8.so.0:_ZN13wxArrayParamsD1Ev
libwx_baseu-2.8.so.0:_ZN13wxArrayParamsD2Ev
libwx_baseu-2.8.so.0:_ZN13wxArrayParamsaSERKS_
libwx_baseu-2.8.so.0:_ZN13wxArrayString3AddERK8wxStringm
libwx_baseu-2.8.so.0:_ZN13wxArrayString4CopyERKS_
libwx_baseu-2.8.so.0:_ZN13wxArrayString4FreeEv
libwx_baseu-2.8.so.0:_ZN13wxArrayString4GrowEm
libwx_baseu-2.8.so.0:_ZN13wxArrayString4InitEb
libwx_baseu-2.8.so.0:_ZN13wxArrayString4SortEPFiP8wxStringS1_E
libwx_baseu-2.8.so.0:_ZN13wxArrayString4SortEPFiRK8wxStringS2_E
libwx_baseu-2.8.so.0:_ZN13wxArrayString4SortEb
libwx_baseu-2.8.so.0:_ZN13wxArrayString5AllocEm
libwx_baseu-2.8.so.0:_ZN13wxArrayString5ClearEv
libwx_baseu-2.8.so.0:_ZN13wxArrayString5EmptyEv
libwx_baseu-2.8.so.0:_ZN13wxArrayString6DoSortEv
libwx_baseu-2.8.so.0:_ZN13wxArrayString6InsertERK8wxStringmm
libwx_baseu-2.8.so.0:_ZN13wxArrayString6RemoveEPKw
libwx_baseu-2.8.so.0:_ZN13wxArrayString6ShrinkEv
libwx_baseu-2.8.so.0:_ZN13wxArrayString6assignEPK8wxStringS2_
libwx_baseu-2.8.so.0:_ZN13wxArrayString6insertEP8wxStringPKS0_S3_
libwx_baseu-2.8.so.0:_ZN13wxArrayString7reserveEm
libwx_baseu-2.8.so.0:_ZN13wxArrayString8RemoveAtEmm
libwx_baseu-2.8.so.0:_ZN13wxArrayString8SetCountEm
libwx_baseu-2.8.so.0:_ZN13wxArrayStringC1ERKS_
libwx_baseu-2.8.so.0:_ZN13wxArrayStringC1EmPK8wxString
libwx_baseu-2.8.so.0:_ZN13wxArrayStringC1EmPPKw
libwx_baseu-2.8.so.0:_ZN13wxArrayStringC2ERKS_
libwx_baseu-2.8.so.0:_ZN13wxArrayStringC2EmPK8wxString
libwx_baseu-2.8.so.0:_ZN13wxArrayStringC2EmPPKw
libwx_baseu-2.8.so.0:_ZN13wxArrayStringD1Ev
libwx_baseu-2.8.so.0:_ZN13wxArrayStringD2Ev
libwx_baseu-2.8.so.0:_ZN13wxArrayStringaSERKS_
libwx_baseu-2.8.so.0:_ZN13wxBackingFileC1EP13wxInputStreammRK8wxString
libwx_baseu-2.8.so.0:_ZN13wxBackingFileC1ERKS_
libwx_baseu-2.8.so.0:_ZN13wxBackingFileC2EP13wxInputStreammRK8wxString
libwx_baseu-2.8.so.0:_ZN13wxBackingFileC2ERKS_
libwx_baseu-2.8.so.0:_ZN13wxBackingFileD1Ev
libwx_baseu-2.8.so.0:_ZN13wxBackingFileD2Ev
libwx_baseu-2.8.so.0:_ZN13wxBackingFileaSERKS_
libwx_baseu-2.8.so.0:_ZN13wxFFileStreamC1ERK8wxString
libwx_baseu-2.8.so.0:_ZN13wxFFileStreamC2ERK8wxString
libwx_baseu-2.8.so.0:_ZN13wxInputStream15AllocSpaceWBackEm
libwx_baseu-2.8.so.0:_ZN13wxInputStream4GetCEv
libwx_baseu-2.8.so.0:_ZN13wxInputStream4PeekEv
libwx_baseu-2.8.so.0:_ZN13wxInputStream4ReadEPvm
libwx_baseu-2.8.so.0:_ZN13wxInputStream4ReadER14wxOutputStream
libwx_baseu-2.8.so.0:_ZN13wxInputStream5SeekIEl10wxSeekMode
libwx_baseu-2.8.so.0:_ZN13wxInputStream7UngetchEPKvm
libwx_baseu-2.8.so.0:_ZN13wxInputStream7UngetchEc
libwx_baseu-2.8.so.0:_ZN13wxInputStream8GetWBackEPvm
libwx_baseu-2.8.so.0:_ZN13wxInputStreamC1Ev
libwx_baseu-2.8.so.0:_ZN13wxInputStreamC2Ev
libwx_baseu-2.8.so.0:_ZN13wxInputStreamD0Ev
libwx_baseu-2.8.so.0:_ZN13wxInputStreamD1Ev
libwx_baseu-2.8.so.0:_ZN13wxInputStreamD2Ev
libwx_baseu-2.8.so.0:_ZN13wxStackWalker10InitFramesEP12wxStackFramemPPvPPc
libwx_baseu-2.8.so.0:_ZN13wxStackWalker13ProcessFramesEm
libwx_baseu-2.8.so.0:_ZN13wxStackWalker4WalkEmm
libwx_baseu-2.8.so.0:_ZN13wxStackWalker9FreeStackEv
libwx_baseu-2.8.so.0:_ZN13wxStackWalker9SaveStackEm
libwx_baseu-2.8.so.0:_ZN14wxArchiveEntry11SetNotifierER17wxArchiveNotifier
libwx_baseu-2.8.so.0:_ZN14wxArchiveEntryaSERKS_
libwx_baseu-2.8.so.0:_ZN14wxArrayOptions3AddERK15wxCmdLineOptionm
libwx_baseu-2.8.so.0:_ZN14wxArrayOptions6DoCopyERKS_
libwx_baseu-2.8.so.0:_ZN14wxArrayOptions6InsertERK15wxCmdLineOptionmm
libwx_baseu-2.8.so.0:_ZN14wxArrayOptions7DoEmptyEv
libwx_baseu-2.8.so.0:_ZN14wxArrayOptions8RemoveAtEmm
libwx_baseu-2.8.so.0:_ZN14wxArrayOptionsC1ERKS_
libwx_baseu-2.8.so.0:_ZN14wxArrayOptionsC2ERKS_
libwx_baseu-2.8.so.0:_ZN14wxArrayOptionsD1Ev
libwx_baseu-2.8.so.0:_ZN14wxArrayOptionsD2Ev
libwx_baseu-2.8.so.0:_ZN14wxArrayOptionsaSERKS_
libwx_baseu-2.8.so.0:_ZN14wxBaseArrayInt3AddEiPFiPKvS1_E
libwx_baseu-2.8.so.0:_ZN14wxBaseArrayInt3AddEim
libwx_baseu-2.8.so.0:_ZN14wxBaseArrayInt4GrowEm
libwx_baseu-2.8.so.0:_ZN14wxBaseArrayInt4SortEPFiPKvS1_E
libwx_baseu-2.8.so.0:_ZN14wxBaseArrayInt5ClearEv
libwx_baseu-2.8.so.0:_ZN14wxBaseArrayInt6InsertEimm
libwx_baseu-2.8.so.0:_ZN14wxBaseArrayInt6RemoveEi
libwx_baseu-2.8.so.0:_ZN14wxBaseArrayInt6ShrinkEv
libwx_baseu-2.8.so.0:_ZN14wxBaseArrayInt6assignEPKiS1_
libwx_baseu-2.8.so.0:_ZN14wxBaseArrayInt6assignEmRKi
libwx_baseu-2.8.so.0:_ZN14wxBaseArrayInt6insertEPiPKiS2_
libwx_baseu-2.8.so.0:_ZN14wxBaseArrayInt7ReallocEm
libwx_baseu-2.8.so.0:_ZN14wxBaseArrayInt8RemoveAtEmm
libwx_baseu-2.8.so.0:_ZN14wxBaseArrayInt8SetCountEmi
libwx_baseu-2.8.so.0:_ZN14wxBaseArrayIntC1ERKS_
libwx_baseu-2.8.so.0:_ZN14wxBaseArrayIntC1Ev
libwx_baseu-2.8.so.0:_ZN14wxBaseArrayIntC2ERKS_
libwx_baseu-2.8.so.0:_ZN14wxBaseArrayIntC2Ev
libwx_baseu-2.8.so.0:_ZN14wxBaseArrayIntD1Ev
libwx_baseu-2.8.so.0:_ZN14wxBaseArrayIntD2Ev
libwx_baseu-2.8.so.0:_ZN14wxBaseArrayIntaSERKS_
libwx_baseu-2.8.so.0:_ZN14wxCArrayString7ReleaseEv
libwx_baseu-2.8.so.0:_ZN14wxDirTraverser11OnOpenErrorERK8wxString
libwx_baseu-2.8.so.0:_ZN14wxFileTypeImpl10SetCommandERK8wxStringS2_b
libwx_baseu-2.8.so.0:_ZN14wxFileTypeImpl13GetExtensionsER13wxArrayString
libwx_baseu-2.8.so.0:_ZN14wxFileTypeImpl14SetDefaultIconERK8wxStringi
libwx_baseu-2.8.so.0:_ZN14wxFileTypeInfoC1EPKwS1_S1_S1_z
libwx_baseu-2.8.so.0:_ZN14wxFileTypeInfoC1ERK13wxArrayString
libwx_baseu-2.8.so.0:_ZN14wxFileTypeInfoC2EPKwS1_S1_S1_z
libwx_baseu-2.8.so.0:_ZN14wxFileTypeInfoC2ERK13wxArrayString
libwx_baseu-2.8.so.0:_ZN14wxLocaleModule14wxCreateObjectEv
libwx_baseu-2.8.so.0:_ZN14wxMBConv_iconvC1EPKw
libwx_baseu-2.8.so.0:_ZN14wxMBConv_iconvC2EPKw
libwx_baseu-2.8.so.0:_ZN14wxMBConv_iconvD0Ev
libwx_baseu-2.8.so.0:_ZN14wxMBConv_iconvD1Ev
libwx_baseu-2.8.so.0:_ZN14wxMBConv_iconvD2Ev
libwx_baseu-2.8.so.0:_ZN14wxOutputStream10OnSysWriteEPKvm
libwx_baseu-2.8.so.0:_ZN14wxOutputStream4PutCEc
libwx_baseu-2.8.so.0:_ZN14wxOutputStream4SyncEv
libwx_baseu-2.8.so.0:_ZN14wxOutputStream5SeekOEl10wxSeekMode
libwx_baseu-2.8.so.0:_ZN14wxOutputStream5WriteEPKvm
libwx_baseu-2.8.so.0:_ZN14wxOutputStream5WriteER13wxInputStream
libwx_baseu-2.8.so.0:_ZN14wxOutputStreamC1Ev
libwx_baseu-2.8.so.0:_ZN14wxOutputStreamC2Ev
libwx_baseu-2.8.so.0:_ZN14wxOutputStreamD0Ev
libwx_baseu-2.8.so.0:_ZN14wxOutputStreamD1Ev
libwx_baseu-2.8.so.0:_ZN14wxOutputStreamD2Ev
libwx_baseu-2.8.so.0:_ZN14wxPlatformInfo11GetArchNameE14wxArchitecture
libwx_baseu-2.8.so.0:_ZN14wxPlatformInfo13GetEndiannessERK8wxString
libwx_baseu-2.8.so.0:_ZN14wxPlatformInfo13GetPortIdNameE8wxPortIdb
libwx_baseu-2.8.so.0:_ZN14wxPlatformInfo17GetEndiannessNameE12wxEndianness
libwx_baseu-2.8.so.0:_ZN14wxPlatformInfo18GetPortIdShortNameE8wxPortIdb
libwx_baseu-2.8.so.0:_ZN14wxPlatformInfo20GetOperatingSystemIdERK8wxString
libwx_baseu-2.8.so.0:_ZN14wxPlatformInfo22InitForCurrentPlatformEv
libwx_baseu-2.8.so.0:_ZN14wxPlatformInfo24GetOperatingSystemIdNameE19wxOperatingSystemId
libwx_baseu-2.8.so.0:_ZN14wxPlatformInfo28GetOperatingSystemFamilyNameE19wxOperatingSystemId
libwx_baseu-2.8.so.0:_ZN14wxPlatformInfo3GetEv
libwx_baseu-2.8.so.0:_ZN14wxPlatformInfo7GetArchERK8wxString
libwx_baseu-2.8.so.0:_ZN14wxPlatformInfo9GetPortIdERK8wxString
libwx_baseu-2.8.so.0:_ZN14wxPlatformInfoC1E8wxPortIdii19wxOperatingSystemIdii14wxArchitecture12wxEndiannessb
libwx_baseu-2.8.so.0:_ZN14wxPlatformInfoC1Ev
libwx_baseu-2.8.so.0:_ZN14wxPlatformInfoC2E8wxPortIdii19wxOperatingSystemIdii14wxArchitecture12wxEndiannessb
libwx_baseu-2.8.so.0:_ZN14wxPlatformInfoC2Ev
libwx_baseu-2.8.so.0:_ZN14wxProcessEvent14wxCreateObjectEv
libwx_baseu-2.8.so.0:_ZN14wxStreamBuffer10FillBufferEv
libwx_baseu-2.8.so.0:_ZN14wxStreamBuffer10FreeBufferEv
libwx_baseu-2.8.so.0:_ZN14wxStreamBuffer10InitBufferEv
libwx_baseu-2.8.so.0:_ZN14wxStreamBuffer11FlushBufferEv
libwx_baseu-2.8.so.0:_ZN14wxStreamBuffer11GetDataLeftEv
libwx_baseu-2.8.so.0:_ZN14wxStreamBuffer11PutToBufferEPKvm
libwx_baseu-2.8.so.0:_ZN14wxStreamBuffer11ResetBufferEv
libwx_baseu-2.8.so.0:_ZN14wxStreamBuffer11SetBufferIOEPvS0_b
libwx_baseu-2.8.so.0:_ZN14wxStreamBuffer11SetBufferIOEPvmb
libwx_baseu-2.8.so.0:_ZN14wxStreamBuffer11SetBufferIOEm
libwx_baseu-2.8.so.0:_ZN14wxStreamBuffer13GetFromBufferEPvm
libwx_baseu-2.8.so.0:_ZN14wxStreamBuffer4InitEv
libwx_baseu-2.8.so.0:_ZN14wxStreamBuffer4PeekEv
libwx_baseu-2.8.so.0:_ZN14wxStreamBuffer4ReadEPS_
libwx_baseu-2.8.so.0:_ZN14wxStreamBuffer4ReadEPvm
libwx_baseu-2.8.so.0:_ZN14wxStreamBuffer4SeekEl10wxSeekMode
libwx_baseu-2.8.so.0:_ZN14wxStreamBuffer5WriteEPKvm
libwx_baseu-2.8.so.0:_ZN14wxStreamBuffer5WriteEPS_
libwx_baseu-2.8.so.0:_ZN14wxStreamBuffer7GetCharEv
libwx_baseu-2.8.so.0:_ZN14wxStreamBuffer7PutCharEc
libwx_baseu-2.8.so.0:_ZN14wxStreamBuffer8SetErrorE13wxStreamError
libwx_baseu-2.8.so.0:_ZN14wxStreamBufferC1ENS_7BufModeE
libwx_baseu-2.8.so.0:_ZN14wxStreamBufferC1ER12wxStreamBaseNS_7BufModeE
libwx_baseu-2.8.so.0:_ZN14wxStreamBufferC1ERKS_
libwx_baseu-2.8.so.0:_ZN14wxStreamBufferC2ENS_7BufModeE
libwx_baseu-2.8.so.0:_ZN14wxStreamBufferC2ER12wxStreamBaseNS_7BufModeE
libwx_baseu-2.8.so.0:_ZN14wxStreamBufferC2ERKS_
libwx_baseu-2.8.so.0:_ZN14wxStreamBufferD0Ev
libwx_baseu-2.8.so.0:_ZN14wxStreamBufferD1Ev
libwx_baseu-2.8.so.0:_ZN14wxStreamBufferD2Ev
libwx_baseu-2.8.so.0:_ZN14wxTarEntryPtr_D1Ev
libwx_baseu-2.8.so.0:_ZN14wxTarEntryPtr_D2Ev
libwx_baseu-2.8.so.0:_ZN14wxThreadModule14wxCreateObjectEv
libwx_baseu-2.8.so.0:_ZN14wxThreadModule6OnExitEv
libwx_baseu-2.8.so.0:_ZN14wxThreadModule6OnInitEv
libwx_baseu-2.8.so.0:_ZN14wxZipEntryPtr_D1Ev
libwx_baseu-2.8.so.0:_ZN14wxZipEntryPtr_D2Ev
libwx_baseu-2.8.so.0:_ZN14wxZipWeakLinks8AddEntryEP10wxZipEntryl
libwx_baseu-2.8.so.0:_ZN15wxAppTraitsBase16GetStandardPathsEv
libwx_baseu-2.8.so.0:_ZN15wxBaseArrayChar3AddEcPFiPKvS1_E
libwx_baseu-2.8.so.0:_ZN15wxBaseArrayChar3AddEcm
libwx_baseu-2.8.so.0:_ZN15wxBaseArrayChar4GrowEm
libwx_baseu-2.8.so.0:_ZN15wxBaseArrayChar4SortEPFiPKvS1_E
libwx_baseu-2.8.so.0:_ZN15wxBaseArrayChar5ClearEv
libwx_baseu-2.8.so.0:_ZN15wxBaseArrayChar6InsertEcmm
libwx_baseu-2.8.so.0:_ZN15wxBaseArrayChar6RemoveEc
libwx_baseu-2.8.so.0:_ZN15wxBaseArrayChar6ShrinkEv
libwx_baseu-2.8.so.0:_ZN15wxBaseArrayChar6assignEPKcS1_
libwx_baseu-2.8.so.0:_ZN15wxBaseArrayChar6assignEmRKc
libwx_baseu-2.8.so.0:_ZN15wxBaseArrayChar6insertEPcPKcS2_
libwx_baseu-2.8.so.0:_ZN15wxBaseArrayChar7ReallocEm
libwx_baseu-2.8.so.0:_ZN15wxBaseArrayChar8RemoveAtEmm
libwx_baseu-2.8.so.0:_ZN15wxBaseArrayChar8SetCountEmc
libwx_baseu-2.8.so.0:_ZN15wxBaseArrayCharC1ERKS_
libwx_baseu-2.8.so.0:_ZN15wxBaseArrayCharC1Ev
libwx_baseu-2.8.so.0:_ZN15wxBaseArrayCharC2ERKS_
libwx_baseu-2.8.so.0:_ZN15wxBaseArrayCharC2Ev
libwx_baseu-2.8.so.0:_ZN15wxBaseArrayCharD1Ev
libwx_baseu-2.8.so.0:_ZN15wxBaseArrayCharD2Ev
libwx_baseu-2.8.so.0:_ZN15wxBaseArrayCharaSERKS_
libwx_baseu-2.8.so.0:_ZN15wxBaseArrayLong3AddElPFiPKvS1_E
libwx_baseu-2.8.so.0:_ZN15wxBaseArrayLong3AddElm
libwx_baseu-2.8.so.0:_ZN15wxBaseArrayLong4GrowEm
libwx_baseu-2.8.so.0:_ZN15wxBaseArrayLong4SortEPFiPKvS1_E
libwx_baseu-2.8.so.0:_ZN15wxBaseArrayLong5ClearEv
libwx_baseu-2.8.so.0:_ZN15wxBaseArrayLong6InsertElmm
libwx_baseu-2.8.so.0:_ZN15wxBaseArrayLong6RemoveEl
libwx_baseu-2.8.so.0:_ZN15wxBaseArrayLong6ShrinkEv
libwx_baseu-2.8.so.0:_ZN15wxBaseArrayLong6assignEPKlS1_
libwx_baseu-2.8.so.0:_ZN15wxBaseArrayLong6assignEmRKl
libwx_baseu-2.8.so.0:_ZN15wxBaseArrayLong6insertEPlPKlS2_
libwx_baseu-2.8.so.0:_ZN15wxBaseArrayLong7ReallocEm
libwx_baseu-2.8.so.0:_ZN15wxBaseArrayLong8RemoveAtEmm
libwx_baseu-2.8.so.0:_ZN15wxBaseArrayLong8SetCountEml
libwx_baseu-2.8.so.0:_ZN15wxBaseArrayLongC1ERKS_
libwx_baseu-2.8.so.0:_ZN15wxBaseArrayLongC1Ev
libwx_baseu-2.8.so.0:_ZN15wxBaseArrayLongC2ERKS_
libwx_baseu-2.8.so.0:_ZN15wxBaseArrayLongC2Ev
libwx_baseu-2.8.so.0:_ZN15wxBaseArrayLongD1Ev
libwx_baseu-2.8.so.0:_ZN15wxBaseArrayLongD2Ev
libwx_baseu-2.8.so.0:_ZN15wxBaseArrayLongaSERKS_
libwx_baseu-2.8.so.0:_ZN15wxCmdLineParser10SetCmdLineERK8wxString
libwx_baseu-2.8.so.0:_ZN15wxCmdLineParser10SetCmdLineEiPPc
libwx_baseu-2.8.so.0:_ZN15wxCmdLineParser10SetCmdLineEiPPw
libwx_baseu-2.8.so.0:_ZN15wxCmdLineParser14GetUsageStringEv
libwx_baseu-2.8.so.0:_ZN15wxCmdLineParser14SetSwitchCharsERK8wxString
libwx_baseu-2.8.so.0:_ZN15wxCmdLineParser17EnableLongOptionsEb
libwx_baseu-2.8.so.0:_ZN15wxCmdLineParser19ConvertStringToArgsEPKw
libwx_baseu-2.8.so.0:_ZN15wxCmdLineParser21AreLongOptionsEnabledEv
libwx_baseu-2.8.so.0:_ZN15wxCmdLineParser4InitEv
libwx_baseu-2.8.so.0:_ZN15wxCmdLineParser5ParseEb
libwx_baseu-2.8.so.0:_ZN15wxCmdLineParser5ResetEv
libwx_baseu-2.8.so.0:_ZN15wxCmdLineParser5UsageEv
libwx_baseu-2.8.so.0:_ZN15wxCmdLineParser7SetDescEPK18wxCmdLineEntryDesc
libwx_baseu-2.8.so.0:_ZN15wxCmdLineParser7SetLogoERK8wxString
libwx_baseu-2.8.so.0:_ZN15wxCmdLineParser8AddParamERK8wxString18wxCmdLineParamTypei
libwx_baseu-2.8.so.0:_ZN15wxCmdLineParser9AddOptionERK8wxStringS2_S2_18wxCmdLineParamTypei
libwx_baseu-2.8.so.0:_ZN15wxCmdLineParser9AddSwitchERK8wxStringS2_S2_i
libwx_baseu-2.8.so.0:_ZN15wxCmdLineParserD1Ev
libwx_baseu-2.8.so.0:_ZN15wxCmdLineParserD2Ev
libwx_baseu-2.8.so.0:_ZN15wxDateTimeArray3AddERK10wxDateTimem
libwx_baseu-2.8.so.0:_ZN15wxDateTimeArray6DoCopyERKS_
libwx_baseu-2.8.so.0:_ZN15wxDateTimeArray6InsertERK10wxDateTimemm
libwx_baseu-2.8.so.0:_ZN15wxDateTimeArray7DoEmptyEv
libwx_baseu-2.8.so.0:_ZN15wxDateTimeArray8RemoveAtEmm
libwx_baseu-2.8.so.0:_ZN15wxDateTimeArrayC1ERKS_
libwx_baseu-2.8.so.0:_ZN15wxDateTimeArrayC2ERKS_
libwx_baseu-2.8.so.0:_ZN15wxDateTimeArrayD1Ev
libwx_baseu-2.8.so.0:_ZN15wxDateTimeArrayD2Ev
libwx_baseu-2.8.so.0:_ZN15wxDateTimeArrayaSERKS_
libwx_baseu-2.8.so.0:_ZN15wxHashTableBase12DoInsertNodeEmP20wxHashTableBase_Node
libwx_baseu-2.8.so.0:_ZN15wxHashTableBase12DoRemoveNodeEP20wxHashTableBase_Node
libwx_baseu-2.8.so.0:_ZN15wxHashTableBase12DoUnlinkNodeEmP20wxHashTableBase_NodeS1_
libwx_baseu-2.8.so.0:_ZN15wxHashTableBase13DoDestroyNodeEP20wxHashTableBase_Node
libwx_baseu-2.8.so.0:_ZN15wxHashTableBase5ClearEv
libwx_baseu-2.8.so.0:_ZN15wxHashTableBase5DoPutEPKwlPv
libwx_baseu-2.8.so.0:_ZN15wxHashTableBase5DoPutEllPv
libwx_baseu-2.8.so.0:_ZN15wxHashTableBase6CreateE9wxKeyTypem
libwx_baseu-2.8.so.0:_ZN15wxHashTableBase7DestroyEv
libwx_baseu-2.8.so.0:_ZN15wxHashTableBase7MakeKeyEPKw
libwx_baseu-2.8.so.0:_ZN15wxHashTableBase8DoDeleteEPKwl
libwx_baseu-2.8.so.0:_ZN15wxHashTableBase8DoDeleteEll
libwx_baseu-2.8.so.0:_ZN15wxHashTableBaseC1Ev
libwx_baseu-2.8.so.0:_ZN15wxHashTableBaseC2Ev
libwx_baseu-2.8.so.0:_ZN15wxMessageOutput3GetEv
libwx_baseu-2.8.so.0:_ZN15wxMessageOutput3SetEPS_
libwx_baseu-2.8.so.0:_ZN15wxMutexInternal4LockEv
libwx_baseu-2.8.so.0:_ZN15wxMutexInternal6UnlockEv
libwx_baseu-2.8.so.0:_ZN15wxMutexInternal7TryLockEv
libwx_baseu-2.8.so.0:_ZN15wxMutexInternalC1E11wxMutexType
libwx_baseu-2.8.so.0:_ZN15wxMutexInternalC2E11wxMutexType
libwx_baseu-2.8.so.0:_ZN15wxMutexInternalD1Ev
libwx_baseu-2.8.so.0:_ZN15wxMutexInternalD2Ev
libwx_baseu-2.8.so.0:_ZN15wxPluginLibrary13UpdateClassesEv
libwx_baseu-2.8.so.0:_ZN15wxPluginLibrary14RestoreClassesEv
libwx_baseu-2.8.so.0:_ZN15wxPluginLibrary15RegisterModulesEv
libwx_baseu-2.8.so.0:_ZN15wxPluginLibrary17UnregisterModulesEv
libwx_baseu-2.8.so.0:_ZN15wxPluginLibrary6RefLibEv
libwx_baseu-2.8.so.0:_ZN15wxPluginLibrary8UnrefLibEv
libwx_baseu-2.8.so.0:_ZN15wxPluginLibraryC1ERK8wxStringi
libwx_baseu-2.8.so.0:_ZN15wxPluginLibraryC2ERK8wxStringi
libwx_baseu-2.8.so.0:_ZN15wxPluginLibraryD1Ev
libwx_baseu-2.8.so.0:_ZN15wxPluginLibraryD2Ev
libwx_baseu-2.8.so.0:_ZN15wxPluginManager11LoadLibraryERK8wxStringi
libwx_baseu-2.8.so.0:_ZN15wxPluginManager13UnloadLibraryERK8wxString
libwx_baseu-2.8.so.0:_ZN15wxPluginManager4LoadERK8wxStringi
libwx_baseu-2.8.so.0:_ZN15wxPluginManager6UnloadEv
libwx_baseu-2.8.so.0:_ZN15wxStandardPaths12DetectPrefixEv
libwx_baseu-2.8.so.0:_ZN15wxStandardPaths16SetInstallPrefixERK8wxString
libwx_baseu-2.8.so.0:_ZN15wxSystemOptions12GetOptionIntERK8wxString
libwx_baseu-2.8.so.0:_ZN15wxSystemOptions9GetOptionERK8wxString
libwx_baseu-2.8.so.0:_ZN15wxSystemOptions9HasOptionERK8wxString
libwx_baseu-2.8.so.0:_ZN15wxSystemOptions9SetOptionERK8wxStringS2_
libwx_baseu-2.8.so.0:_ZN15wxSystemOptions9SetOptionERK8wxStringi
libwx_baseu-2.8.so.0:_ZN16wxArchiveFSCache3AddERK8wxStringRK21wxArchiveClassFactoryP13wxInputStream
libwx_baseu-2.8.so.0:_ZN16wxArchiveFSCache3GetERK8wxString
libwx_baseu-2.8.so.0:_ZN16wxBaseArrayShort3AddEsPFiPKvS1_E
libwx_baseu-2.8.so.0:_ZN16wxBaseArrayShort3AddEsm
libwx_baseu-2.8.so.0:_ZN16wxBaseArrayShort4GrowEm
libwx_baseu-2.8.so.0:_ZN16wxBaseArrayShort4SortEPFiPKvS1_E
libwx_baseu-2.8.so.0:_ZN16wxBaseArrayShort5ClearEv
libwx_baseu-2.8.so.0:_ZN16wxBaseArrayShort6InsertEsmm
libwx_baseu-2.8.so.0:_ZN16wxBaseArrayShort6RemoveEs
libwx_baseu-2.8.so.0:_ZN16wxBaseArrayShort6ShrinkEv
libwx_baseu-2.8.so.0:_ZN16wxBaseArrayShort6assignEPKsS1_
libwx_baseu-2.8.so.0:_ZN16wxBaseArrayShort6assignEmRKs
libwx_baseu-2.8.so.0:_ZN16wxBaseArrayShort6insertEPsPKsS2_
libwx_baseu-2.8.so.0:_ZN16wxBaseArrayShort7ReallocEm
libwx_baseu-2.8.so.0:_ZN16wxBaseArrayShort8RemoveAtEmm
libwx_baseu-2.8.so.0:_ZN16wxBaseArrayShort8SetCountEms
libwx_baseu-2.8.so.0:_ZN16wxBaseArrayShortC1ERKS_
libwx_baseu-2.8.so.0:_ZN16wxBaseArrayShortC1Ev
libwx_baseu-2.8.so.0:_ZN16wxBaseArrayShortC2ERKS_
libwx_baseu-2.8.so.0:_ZN16wxBaseArrayShortC2Ev
libwx_baseu-2.8.so.0:_ZN16wxBaseArrayShortD1Ev
libwx_baseu-2.8.so.0:_ZN16wxBaseArrayShortD2Ev
libwx_baseu-2.8.so.0:_ZN16wxBaseArrayShortaSERKS_
libwx_baseu-2.8.so.0:_ZN16wxBaseArraySizeT3AddEmPFiPKvS1_E
libwx_baseu-2.8.so.0:_ZN16wxBaseArraySizeT3AddEmm
libwx_baseu-2.8.so.0:_ZN16wxBaseArraySizeT4GrowEm
libwx_baseu-2.8.so.0:_ZN16wxBaseArraySizeT4SortEPFiPKvS1_E
libwx_baseu-2.8.so.0:_ZN16wxBaseArraySizeT5ClearEv
libwx_baseu-2.8.so.0:_ZN16wxBaseArraySizeT6InsertEmmm
libwx_baseu-2.8.so.0:_ZN16wxBaseArraySizeT6RemoveEm
libwx_baseu-2.8.so.0:_ZN16wxBaseArraySizeT6ShrinkEv
libwx_baseu-2.8.so.0:_ZN16wxBaseArraySizeT6assignEPKmS1_
libwx_baseu-2.8.so.0:_ZN16wxBaseArraySizeT6assignEmRKm
libwx_baseu-2.8.so.0:_ZN16wxBaseArraySizeT6insertEPmPKmS2_
libwx_baseu-2.8.so.0:_ZN16wxBaseArraySizeT7ReallocEm
libwx_baseu-2.8.so.0:_ZN16wxBaseArraySizeT8RemoveAtEmm
libwx_baseu-2.8.so.0:_ZN16wxBaseArraySizeT8SetCountEmm
libwx_baseu-2.8.so.0:_ZN16wxBaseArraySizeTC1ERKS_
libwx_baseu-2.8.so.0:_ZN16wxBaseArraySizeTC1Ev
libwx_baseu-2.8.so.0:_ZN16wxBaseArraySizeTC2ERKS_
libwx_baseu-2.8.so.0:_ZN16wxBaseArraySizeTC2Ev
libwx_baseu-2.8.so.0:_ZN16wxBaseArraySizeTD1Ev
libwx_baseu-2.8.so.0:_ZN16wxBaseArraySizeTD2Ev
libwx_baseu-2.8.so.0:_ZN16wxBaseArraySizeTaSERKS_
libwx_baseu-2.8.so.0:_ZN16wxConnectionBase16GetBufferAtLeastEm
libwx_baseu-2.8.so.0:_ZN16wxConnectionBaseC1EPwi
libwx_baseu-2.8.so.0:_ZN16wxConnectionBaseC1ERKS_
libwx_baseu-2.8.so.0:_ZN16wxConnectionBaseC1Ev
libwx_baseu-2.8.so.0:_ZN16wxConnectionBaseC2EPwi
libwx_baseu-2.8.so.0:_ZN16wxConnectionBaseC2ERKS_
libwx_baseu-2.8.so.0:_ZN16wxConnectionBaseC2Ev
libwx_baseu-2.8.so.0:_ZN16wxConnectionBaseD0Ev
libwx_baseu-2.8.so.0:_ZN16wxConnectionBaseD1Ev
libwx_baseu-2.8.so.0:_ZN16wxConnectionBaseD2Ev
libwx_baseu-2.8.so.0:_ZN16wxDynamicLibrary10ListLoadedEv
libwx_baseu-2.8.so.0:_ZN16wxDynamicLibrary12RawGetSymbolEPvRK8wxString
libwx_baseu-2.8.so.0:_ZN16wxDynamicLibrary16CanonicalizeNameERK8wxString24wxDynamicLibraryCategory
libwx_baseu-2.8.so.0:_ZN16wxDynamicLibrary16GetProgramHandleEv
libwx_baseu-2.8.so.0:_ZN16wxDynamicLibrary19GetPluginsDirectoryEv
libwx_baseu-2.8.so.0:_ZN16wxDynamicLibrary22CanonicalizePluginNameERK8wxString16wxPluginCategory
libwx_baseu-2.8.so.0:_ZN16wxDynamicLibrary4LoadERK8wxStringi
libwx_baseu-2.8.so.0:_ZN16wxDynamicLibrary5ErrorEv
libwx_baseu-2.8.so.0:_ZN16wxDynamicLibrary6UnloadEPv
libwx_baseu-2.8.so.0:_ZN16wxDynamicLibrary7RawLoadERK8wxStringi
libwx_baseu-2.8.so.0:_ZN16wxEventHashTable11HandleEventER7wxEventP12wxEvtHandler
libwx_baseu-2.8.so.0:_ZN16wxEventHashTable13InitHashTableEv
libwx_baseu-2.8.so.0:_ZN16wxEventHashTable14ReconstructAllEv
libwx_baseu-2.8.so.0:_ZN16wxEventHashTable18GrowEventTypeTableEv
libwx_baseu-2.8.so.0:_ZN16wxEventHashTable19AllocEventTypeTableEm
libwx_baseu-2.8.so.0:_ZN16wxEventHashTable5ClearEv
libwx_baseu-2.8.so.0:_ZN16wxEventHashTable8AddEntryERK17wxEventTableEntry
libwx_baseu-2.8.so.0:_ZN16wxEventHashTable8ClearAllEv
libwx_baseu-2.8.so.0:_ZN16wxEventHashTableC1ERK12wxEventTable
libwx_baseu-2.8.so.0:_ZN16wxEventHashTableC2ERK12wxEventTable
libwx_baseu-2.8.so.0:_ZN16wxEventHashTableD1Ev
libwx_baseu-2.8.so.0:_ZN16wxEventHashTableD2Ev
libwx_baseu-2.8.so.0:_ZN16wxFontMapperBase10ChangePathERK8wxStringPS0_
libwx_baseu-2.8.so.0:_ZN16wxFontMapperBase11GetEncodingEm
libwx_baseu-2.8.so.0:_ZN16wxFontMapperBase11RestorePathERK8wxString
libwx_baseu-2.8.so.0:_ZN16wxFontMapperBase13GetConfigPathEv
libwx_baseu-2.8.so.0:_ZN16wxFontMapperBase13SetConfigPathERK8wxString
libwx_baseu-2.8.so.0:_ZN16wxFontMapperBase15GetEncodingNameE14wxFontEncoding
libwx_baseu-2.8.so.0:_ZN16wxFontMapperBase17CharsetToEncodingERK8wxStringb
libwx_baseu-2.8.so.0:_ZN16wxFontMapperBase19GetAllEncodingNamesE14wxFontEncoding
libwx_baseu-2.8.so.0:_ZN16wxFontMapperBase19GetEncodingFromNameERK8wxString
libwx_baseu-2.8.so.0:_ZN16wxFontMapperBase20GetDefaultConfigPathEv
libwx_baseu-2.8.so.0:_ZN16wxFontMapperBase22GetEncodingDescriptionE14wxFontEncoding
libwx_baseu-2.8.so.0:_ZN16wxFontMapperBase26GetSupportedEncodingsCountEv
libwx_baseu-2.8.so.0:_ZN16wxFontMapperBase31NonInteractiveCharsetToEncodingERK8wxString
libwx_baseu-2.8.so.0:_ZN16wxFontMapperBase3GetEv
libwx_baseu-2.8.so.0:_ZN16wxFontMapperBase3SetEP12wxFontMapper
libwx_baseu-2.8.so.0:_ZN16wxFontMapperBase5ResetEv
libwx_baseu-2.8.so.0:_ZN16wxFontMapperBase9GetConfigEv
libwx_baseu-2.8.so.0:_ZN16wxFontMapperBaseC1Ev
libwx_baseu-2.8.so.0:_ZN16wxFontMapperBaseC2Ev
libwx_baseu-2.8.so.0:_ZN16wxFontMapperBaseD0Ev
libwx_baseu-2.8.so.0:_ZN16wxFontMapperBaseD1Ev
libwx_baseu-2.8.so.0:_ZN16wxFontMapperBaseD2Ev
libwx_baseu-2.8.so.0:_ZN16wxInputStreamPtrD1Ev
libwx_baseu-2.8.so.0:_ZN16wxInputStreamPtrD2Ev
libwx_baseu-2.8.so.0:_ZN16wxLocalFSHandler7CanOpenERK8wxString
libwx_baseu-2.8.so.0:_ZN16wxLocalFSHandler8FindNextEv
libwx_baseu-2.8.so.0:_ZN16wxLocalFSHandler8OpenFileER12wxFileSystemRK8wxString
libwx_baseu-2.8.so.0:_ZN16wxLocalFSHandler9FindFirstERK8wxStringi
libwx_baseu-2.8.so.0:_ZN16wxLogPassThroughC1Ev
libwx_baseu-2.8.so.0:_ZN16wxLogPassThroughC2Ev
libwx_baseu-2.8.so.0:_ZN16wxMsgCatalogFile4LoadEPKwS1_R26wxPluralFormsCalculatorPtr
libwx_baseu-2.8.so.0:_ZN16wxMsgCatalogFileC1Ev
libwx_baseu-2.8.so.0:_ZN16wxMsgCatalogFileC2Ev
libwx_baseu-2.8.so.0:_ZN16wxMsgCatalogFileD1Ev
libwx_baseu-2.8.so.0:_ZN16wxMsgCatalogFileD2Ev
libwx_baseu-2.8.so.0:_ZN16wxObjectListNode10DeleteDataEv
libwx_baseu-2.8.so.0:_ZN16wxRawInputStream4OpenEP13wxInputStream
libwx_baseu-2.8.so.0:_ZN16wxRawInputStream9OnSysReadEPvm
libwx_baseu-2.8.so.0:_ZN16wxRawInputStreamC1ER13wxInputStream
libwx_baseu-2.8.so.0:_ZN16wxRawInputStreamC2ER13wxInputStream
libwx_baseu-2.8.so.0:_ZN16wxStringListNode10DeleteDataEv
libwx_baseu-2.8.so.0:_ZN16wxTarHeaderBlock3SumEb
libwx_baseu-2.8.so.0:_ZN16wxTarHeaderBlock4ReadER13wxInputStream
libwx_baseu-2.8.so.0:_ZN16wxTarHeaderBlock5WriteER14wxOutputStream
libwx_baseu-2.8.so.0:_ZN16wxTarHeaderBlock5checkEv
libwx_baseu-2.8.so.0:_ZN16wxTarHeaderBlock7SetPathERK8wxStringR8wxMBConv
libwx_baseu-2.8.so.0:_ZN16wxTarHeaderBlock8GetOctalEi
libwx_baseu-2.8.so.0:_ZN16wxTarHeaderBlock8SetOctalEil
libwx_baseu-2.8.so.0:_ZN16wxTarHeaderBlock8SumFieldEi
libwx_baseu-2.8.so.0:_ZN16wxTarInputStream10CloseEntryEv
libwx_baseu-2.8.so.0:_ZN16wxTarInputStream11ReadHeadersEv
libwx_baseu-2.8.so.0:_ZN16wxTarInputStream12GetNextEntryEv
libwx_baseu-2.8.so.0:_ZN16wxTarInputStream18ReadExtendedHeaderERP18wxTarHeaderRecords
libwx_baseu-2.8.so.0:_ZN16wxTarInputStream4InitEv
libwx_baseu-2.8.so.0:_ZN16wxTarInputStream9OnSysReadEPvm
libwx_baseu-2.8.so.0:_ZN16wxTarInputStream9OnSysSeekEl10wxSeekMode
libwx_baseu-2.8.so.0:_ZN16wxTarInputStream9OpenEntryER10wxTarEntry
libwx_baseu-2.8.so.0:_ZN16wxTarInputStream9OpenEntryER14wxArchiveEntry
libwx_baseu-2.8.so.0:_ZN16wxTarInputStreamC1EP13wxInputStreamR8wxMBConv
libwx_baseu-2.8.so.0:_ZN16wxTarInputStreamC1ER13wxInputStreamR8wxMBConv
libwx_baseu-2.8.so.0:_ZN16wxTarInputStreamC2EP13wxInputStreamR8wxMBConv
libwx_baseu-2.8.so.0:_ZN16wxTarInputStreamC2ER13wxInputStreamR8wxMBConv
libwx_baseu-2.8.so.0:_ZN16wxTarInputStreamD0Ev
libwx_baseu-2.8.so.0:_ZN16wxTarInputStreamD1Ev
libwx_baseu-2.8.so.0:_ZN16wxTarInputStreamD2Ev
libwx_baseu-2.8.so.0:_ZN16wxTeeInputStream4OpenEv
libwx_baseu-2.8.so.0:_ZN16wxTeeInputStream4ReadEPvm
libwx_baseu-2.8.so.0:_ZN16wxTeeInputStream5FinalEv
libwx_baseu-2.8.so.0:_ZN16wxTeeInputStream7GetDataEPcm
libwx_baseu-2.8.so.0:_ZN16wxTeeInputStream9OnSysReadEPvm
libwx_baseu-2.8.so.0:_ZN16wxTeeInputStreamC1ER13wxInputStream
libwx_baseu-2.8.so.0:_ZN16wxTeeInputStreamC2ER13wxInputStream
libwx_baseu-2.8.so.0:_ZN16wxThreadInternal12PthreadStartEP8wxThread
libwx_baseu-2.8.so.0:_ZN16wxThreadInternal3RunEv
libwx_baseu-2.8.so.0:_ZN16wxThreadInternal4WaitEv
libwx_baseu-2.8.so.0:_ZN16wxThreadInternal5PauseEv
libwx_baseu-2.8.so.0:_ZN16wxThreadInternal6ResumeEv
libwx_baseu-2.8.so.0:_ZN16wxThreadInternal7CleanupEP8wxThread
libwx_baseu-2.8.so.0:_ZN16wxThreadInternalC1Ev
libwx_baseu-2.8.so.0:_ZN16wxThreadInternalC2Ev
libwx_baseu-2.8.so.0:_ZN16wxThreadInternalD1Ev
libwx_baseu-2.8.so.0:_ZN16wxThreadInternalD2Ev
libwx_baseu-2.8.so.0:_ZN16wxZipInputStream10CloseEntryEv
libwx_baseu-2.8.so.0:_ZN16wxZipInputStream10GetCommentEv
libwx_baseu-2.8.so.0:_ZN16wxZipInputStream11ReadCentralEv
libwx_baseu-2.8.so.0:_ZN16wxZipInputStream12GetNextEntryEv
libwx_baseu-2.8.so.0:_ZN16wxZipInputStream13FindEndRecordEv
libwx_baseu-2.8.so.0:_ZN16wxZipInputStream13LoadEndRecordEv
libwx_baseu-2.8.so.0:_ZN16wxZipInputStream13ReadSignatureEv
libwx_baseu-2.8.so.0:_ZN16wxZipInputStream15GetTotalEntriesEv
libwx_baseu-2.8.so.0:_ZN16wxZipInputStream16OpenDecompressorER13wxInputStream
libwx_baseu-2.8.so.0:_ZN16wxZipInputStream16OpenDecompressorEb
libwx_baseu-2.8.so.0:_ZN16wxZipInputStream17CloseDecompressorEP13wxInputStream
libwx_baseu-2.8.so.0:_ZN16wxZipInputStream4InitERK8wxString
libwx_baseu-2.8.so.0:_ZN16wxZipInputStream4InitEv
libwx_baseu-2.8.so.0:_ZN16wxZipInputStream6DoOpenEP10wxZipEntryb
libwx_baseu-2.8.so.0:_ZN16wxZipInputStream8MakeLinkEP17wxZipOutputStream
libwx_baseu-2.8.so.0:_ZN16wxZipInputStream8OpenFileERK8wxString
libwx_baseu-2.8.so.0:_ZN16wxZipInputStream9OnSysReadEPvm
libwx_baseu-2.8.so.0:_ZN16wxZipInputStream9OnSysSeekEl10wxSeekMode
libwx_baseu-2.8.so.0:_ZN16wxZipInputStream9OpenEntryER14wxArchiveEntry
libwx_baseu-2.8.so.0:_ZN16wxZipInputStream9ReadLocalEb
libwx_baseu-2.8.so.0:_ZN16wxZipInputStreamC1EP13wxInputStreamR8wxMBConv
libwx_baseu-2.8.so.0:_ZN16wxZipInputStreamC1ER13wxInputStreamR8wxMBConv
libwx_baseu-2.8.so.0:_ZN16wxZipInputStreamC2EP13wxInputStreamR8wxMBConv
libwx_baseu-2.8.so.0:_ZN16wxZipInputStreamC2ER13wxInputStreamR8wxMBConv
libwx_baseu-2.8.so.0:_ZN16wxZipInputStreamD0Ev
libwx_baseu-2.8.so.0:_ZN16wxZipInputStreamD1Ev
libwx_baseu-2.8.so.0:_ZN16wxZipInputStreamD2Ev
libwx_baseu-2.8.so.0:_ZN17_wxHashTableBase211DeleteNodesEmPP21_wxHashTable_NodeBasePFvS1_E
libwx_baseu-2.8.so.0:_ZN17_wxHashTableBase212GetNextPrimeEm
libwx_baseu-2.8.so.0:_ZN17_wxHashTableBase213CopyHashTableEPP21_wxHashTable_NodeBasemPS_S2_PFmS3_S1_EPFS1_S1_E
libwx_baseu-2.8.so.0:_ZN17_wxHashTableBase216DummyProcessNodeEP21_wxHashTable_NodeBase
libwx_baseu-2.8.so.0:_ZN17_wxHashTableBase216GetPreviousPrimeEm
libwx_baseu-2.8.so.0:_ZN17wxBackingFileImpl6ReadAtElPvPm
libwx_baseu-2.8.so.0:_ZN17wxBackingFileImplC1EP13wxInputStreammRK8wxString
libwx_baseu-2.8.so.0:_ZN17wxBackingFileImplC2EP13wxInputStreammRK8wxString
libwx_baseu-2.8.so.0:_ZN17wxBackingFileImplD1Ev
libwx_baseu-2.8.so.0:_ZN17wxBackingFileImplD2Ev
libwx_baseu-2.8.so.0:_ZN17wxBaseArrayDouble3AddEdPFiPKvS1_E
libwx_baseu-2.8.so.0:_ZN17wxBaseArrayDouble3AddEdm
libwx_baseu-2.8.so.0:_ZN17wxBaseArrayDouble4GrowEm
libwx_baseu-2.8.so.0:_ZN17wxBaseArrayDouble4SortEPFiPKvS1_E
libwx_baseu-2.8.so.0:_ZN17wxBaseArrayDouble5ClearEv
libwx_baseu-2.8.so.0:_ZN17wxBaseArrayDouble6InsertEdmm
libwx_baseu-2.8.so.0:_ZN17wxBaseArrayDouble6RemoveEd
libwx_baseu-2.8.so.0:_ZN17wxBaseArrayDouble6ShrinkEv
libwx_baseu-2.8.so.0:_ZN17wxBaseArrayDouble6assignEPKdS1_
libwx_baseu-2.8.so.0:_ZN17wxBaseArrayDouble6assignEmRKd
libwx_baseu-2.8.so.0:_ZN17wxBaseArrayDouble6insertEPdPKdS2_
libwx_baseu-2.8.so.0:_ZN17wxBaseArrayDouble7ReallocEm
libwx_baseu-2.8.so.0:_ZN17wxBaseArrayDouble8RemoveAtEmm
libwx_baseu-2.8.so.0:_ZN17wxBaseArrayDouble8SetCountEmd
libwx_baseu-2.8.so.0:_ZN17wxBaseArrayDoubleC1ERKS_
libwx_baseu-2.8.so.0:_ZN17wxBaseArrayDoubleC1Ev
libwx_baseu-2.8.so.0:_ZN17wxBaseArrayDoubleC2ERKS_
libwx_baseu-2.8.so.0:_ZN17wxBaseArrayDoubleC2Ev
libwx_baseu-2.8.so.0:_ZN17wxBaseArrayDoubleD1Ev
libwx_baseu-2.8.so.0:_ZN17wxBaseArrayDoubleD2Ev
libwx_baseu-2.8.so.0:_ZN17wxBaseArrayDoubleaSERKS_
libwx_baseu-2.8.so.0:_ZN17wxDataInputStream10ReadDoubleEPdm
libwx_baseu-2.8.so.0:_ZN17wxDataInputStream10ReadDoubleEv
libwx_baseu-2.8.so.0:_ZN17wxDataInputStream10ReadStringEv
libwx_baseu-2.8.so.0:_ZN17wxDataInputStream5Read8EPhm
libwx_baseu-2.8.so.0:_ZN17wxDataInputStream5Read8Ev
libwx_baseu-2.8.so.0:_ZN17wxDataInputStream6Read16EPtm
libwx_baseu-2.8.so.0:_ZN17wxDataInputStream6Read16Ev
libwx_baseu-2.8.so.0:_ZN17wxDataInputStream6Read32EPjm
libwx_baseu-2.8.so.0:_ZN17wxDataInputStream6Read32Ev
libwx_baseu-2.8.so.0:_ZN17wxDataInputStream6Read64EP16wxLongLongNativem
libwx_baseu-2.8.so.0:_ZN17wxDataInputStream6Read64EP17wxULongLongNativem
libwx_baseu-2.8.so.0:_ZN17wxDataInputStream6Read64EPxm
libwx_baseu-2.8.so.0:_ZN17wxDataInputStream6Read64EPym
libwx_baseu-2.8.so.0:_ZN17wxDataInputStream6Read64Ev
libwx_baseu-2.8.so.0:_ZN17wxDataInputStream6ReadLLEP16wxLongLongNativem
libwx_baseu-2.8.so.0:_ZN17wxDataInputStream6ReadLLEP17wxULongLongNativem
libwx_baseu-2.8.so.0:_ZN17wxDataInputStream6ReadLLEv
libwx_baseu-2.8.so.0:_ZN17wxDataInputStreamC1ER13wxInputStreamRK8wxMBConv
libwx_baseu-2.8.so.0:_ZN17wxDataInputStreamC2ER13wxInputStreamRK8wxMBConv
libwx_baseu-2.8.so.0:_ZN17wxDataInputStreamD1Ev
libwx_baseu-2.8.so.0:_ZN17wxDataInputStreamD2Ev
libwx_baseu-2.8.so.0:_ZN17wxDataInputStreamrsER16wxLongLongNative
libwx_baseu-2.8.so.0:_ZN17wxDataInputStreamrsER17wxULongLongNative
libwx_baseu-2.8.so.0:_ZN17wxDataInputStreamrsER8wxString
libwx_baseu-2.8.so.0:_ZN17wxDataInputStreamrsERa
libwx_baseu-2.8.so.0:_ZN17wxDataInputStreamrsERd
libwx_baseu-2.8.so.0:_ZN17wxDataInputStreamrsERf
libwx_baseu-2.8.so.0:_ZN17wxDataInputStreamrsERh
libwx_baseu-2.8.so.0:_ZN17wxDataInputStreamrsERi
libwx_baseu-2.8.so.0:_ZN17wxDataInputStreamrsERj
libwx_baseu-2.8.so.0:_ZN17wxDataInputStreamrsERs
libwx_baseu-2.8.so.0:_ZN17wxDataInputStreamrsERt
libwx_baseu-2.8.so.0:_ZN17wxDataInputStreamrsERx
libwx_baseu-2.8.so.0:_ZN17wxDataInputStreamrsERy
libwx_baseu-2.8.so.0:_ZN17wxFileConfigEntry7SetLineEP20wxFileConfigLineList
libwx_baseu-2.8.so.0:_ZN17wxFileConfigEntry8SetValueERK8wxStringb
libwx_baseu-2.8.so.0:_ZN17wxFileConfigEntryC1EP17wxFileConfigGroupRK8wxStringi
libwx_baseu-2.8.so.0:_ZN17wxFileConfigEntryC2EP17wxFileConfigGroupRK8wxStringi
libwx_baseu-2.8.so.0:_ZN17wxFileConfigGroup11AddSubgroupERK8wxString
libwx_baseu-2.8.so.0:_ZN17wxFileConfigGroup11DeleteEntryEPKw
libwx_baseu-2.8.so.0:_ZN17wxFileConfigGroup12GetGroupLineEv
libwx_baseu-2.8.so.0:_ZN17wxFileConfigGroup12SetLastEntryEP17wxFileConfigEntry
libwx_baseu-2.8.so.0:_ZN17wxFileConfigGroup14DeleteSubgroupEPS_
libwx_baseu-2.8.so.0:_ZN17wxFileConfigGroup16GetLastEntryLineEv
libwx_baseu-2.8.so.0:_ZN17wxFileConfigGroup16GetLastGroupLineEv
libwx_baseu-2.8.so.0:_ZN17wxFileConfigGroup20DeleteSubgroupByNameEPKw
libwx_baseu-2.8.so.0:_ZN17wxFileConfigGroup28UpdateGroupAndSubgroupsLinesEv
libwx_baseu-2.8.so.0:_ZN17wxFileConfigGroup6RenameERK8wxString
libwx_baseu-2.8.so.0:_ZN17wxFileConfigGroup7SetLineEP20wxFileConfigLineList
libwx_baseu-2.8.so.0:_ZN17wxFileConfigGroup8AddEntryERK8wxStringi
libwx_baseu-2.8.so.0:_ZN17wxFileConfigGroupC1EPS_RK8wxStringP12wxFileConfig
libwx_baseu-2.8.so.0:_ZN17wxFileConfigGroupC2EPS_RK8wxStringP12wxFileConfig
libwx_baseu-2.8.so.0:_ZN17wxFileConfigGroupD1Ev
libwx_baseu-2.8.so.0:_ZN17wxFileConfigGroupD2Ev
libwx_baseu-2.8.so.0:_ZN17wxFileInputStream9OnSysReadEPvm
libwx_baseu-2.8.so.0:_ZN17wxFileInputStream9OnSysSeekEl10wxSeekMode
libwx_baseu-2.8.so.0:_ZN17wxFileInputStreamC1ER6wxFile
libwx_baseu-2.8.so.0:_ZN17wxFileInputStreamC1ERK8wxString
libwx_baseu-2.8.so.0:_ZN17wxFileInputStreamC1Ei
libwx_baseu-2.8.so.0:_ZN17wxFileInputStreamC1Ev
libwx_baseu-2.8.so.0:_ZN17wxFileInputStreamC2ER6wxFile
libwx_baseu-2.8.so.0:_ZN17wxFileInputStreamC2ERK8wxString
libwx_baseu-2.8.so.0:_ZN17wxFileInputStreamC2Ei
libwx_baseu-2.8.so.0:_ZN17wxFileInputStreamC2Ev
libwx_baseu-2.8.so.0:_ZN17wxFileInputStreamD0Ev
libwx_baseu-2.8.so.0:_ZN17wxFileInputStreamD1Ev
libwx_baseu-2.8.so.0:_ZN17wxFileInputStreamD2Ev
libwx_baseu-2.8.so.0:_ZN17wxFilterFSHandler7CanOpenERK8wxString
libwx_baseu-2.8.so.0:_ZN17wxFilterFSHandler8FindNextEv
libwx_baseu-2.8.so.0:_ZN17wxFilterFSHandler8OpenFileER12wxFileSystemRK8wxString
libwx_baseu-2.8.so.0:_ZN17wxFilterFSHandler9FindFirstERK8wxStringi
libwx_baseu-2.8.so.0:_ZN17wxFormatConverterC1EPKw
libwx_baseu-2.8.so.0:_ZN17wxFormatConverterC2EPKw
libwx_baseu-2.8.so.0:_ZN17wxMBConvUTF16Base9GetLengthEPKcm
libwx_baseu-2.8.so.0:_ZN17wxMBConvUTF32Base9GetLengthEPKcm
libwx_baseu-2.8.so.0:_ZN17wxPluralFormsNode11releaseNodeEm
libwx_baseu-2.8.so.0:_ZN17wxPluralFormsNode7setNodeEmPS_
libwx_baseu-2.8.so.0:_ZN17wxStringTokenizer12GetNextTokenEv
libwx_baseu-2.8.so.0:_ZN17wxStringTokenizer6ReinitERK8wxString
libwx_baseu-2.8.so.0:_ZN17wxStringTokenizer9SetStringERK8wxStringS2_21wxStringTokenizerMode
libwx_baseu-2.8.so.0:_ZN17wxStringTokenizerC1ERK8wxStringS2_21wxStringTokenizerMode
libwx_baseu-2.8.so.0:_ZN17wxStringTokenizerC2ERK8wxStringS2_21wxStringTokenizerMode
libwx_baseu-2.8.so.0:_ZN17wxTarClassFactory14wxCreateObjectEv
libwx_baseu-2.8.so.0:_ZN17wxTarClassFactoryC1Ev
libwx_baseu-2.8.so.0:_ZN17wxTarClassFactoryC2Ev
libwx_baseu-2.8.so.0:_ZN17wxTarOutputStream10CloseEntryEv
libwx_baseu-2.8.so.0:_ZN17wxTarOutputStream10OnSysWriteEPKvm
libwx_baseu-2.8.so.0:_ZN17wxTarOutputStream12ModifyHeaderEv
libwx_baseu-2.8.so.0:_ZN17wxTarOutputStream12PutNextEntryEP10wxTarEntry
libwx_baseu-2.8.so.0:_ZN17wxTarOutputStream12PutNextEntryEP14wxArchiveEntry
libwx_baseu-2.8.so.0:_ZN17wxTarOutputStream12PutNextEntryERK8wxStringRK10wxDateTimel
libwx_baseu-2.8.so.0:_ZN17wxTarOutputStream12WriteHeadersER10wxTarEntry
libwx_baseu-2.8.so.0:_ZN17wxTarOutputStream13PaxHeaderPathERK8wxStringS2_
libwx_baseu-2.8.so.0:_ZN17wxTarOutputStream13SetHeaderDateERK8wxStringRK10wxDateTime
libwx_baseu-2.8.so.0:_ZN17wxTarOutputStream13SetHeaderPathERK8wxString
libwx_baseu-2.8.so.0:_ZN17wxTarOutputStream15PutNextDirEntryERK8wxStringRK10wxDateTime
libwx_baseu-2.8.so.0:_ZN17wxTarOutputStream15SetHeaderNumberEil
libwx_baseu-2.8.so.0:_ZN17wxTarOutputStream15SetHeaderStringEiRK8wxString
libwx_baseu-2.8.so.0:_ZN17wxTarOutputStream17SetExtendedHeaderERK8wxStringS2_
libwx_baseu-2.8.so.0:_ZN17wxTarOutputStream4InitE11wxTarFormat
libwx_baseu-2.8.so.0:_ZN17wxTarOutputStream4SyncEv
libwx_baseu-2.8.so.0:_ZN17wxTarOutputStream5CloseEv
libwx_baseu-2.8.so.0:_ZN17wxTarOutputStream9CopyEntryEP10wxTarEntryR16wxTarInputStream
libwx_baseu-2.8.so.0:_ZN17wxTarOutputStream9CopyEntryEP14wxArchiveEntryR20wxArchiveInputStream
libwx_baseu-2.8.so.0:_ZN17wxTarOutputStream9OnSysSeekEl10wxSeekMode
libwx_baseu-2.8.so.0:_ZN17wxTarOutputStreamC1EP14wxOutputStream11wxTarFormatR8wxMBConv
libwx_baseu-2.8.so.0:_ZN17wxTarOutputStreamC1ER14wxOutputStream11wxTarFormatR8wxMBConv
libwx_baseu-2.8.so.0:_ZN17wxTarOutputStreamC2EP14wxOutputStream11wxTarFormatR8wxMBConv
libwx_baseu-2.8.so.0:_ZN17wxTarOutputStreamC2ER14wxOutputStream11wxTarFormatR8wxMBConv
libwx_baseu-2.8.so.0:_ZN17wxTarOutputStreamD0Ev
libwx_baseu-2.8.so.0:_ZN17wxTarOutputStreamD1Ev
libwx_baseu-2.8.so.0:_ZN17wxTarOutputStreamD2Ev
libwx_baseu-2.8.so.0:_ZN17wxTextInputStream10ReadDoubleEv
libwx_baseu-2.8.so.0:_ZN17wxTextInputStream10ReadStringEv
libwx_baseu-2.8.so.0:_ZN17wxTextInputStream17NextNonSeparatorsEv
libwx_baseu-2.8.so.0:_ZN17wxTextInputStream5Read8Ei
libwx_baseu-2.8.so.0:_ZN17wxTextInputStream6EatEOLERKw
libwx_baseu-2.8.so.0:_ZN17wxTextInputStream6Read16Ei
libwx_baseu-2.8.so.0:_ZN17wxTextInputStream6Read32Ei
libwx_baseu-2.8.so.0:_ZN17wxTextInputStream6Read8SEi
libwx_baseu-2.8.so.0:_ZN17wxTextInputStream7Read16SEi
libwx_baseu-2.8.so.0:_ZN17wxTextInputStream7Read32SEi
libwx_baseu-2.8.so.0:_ZN17wxTextInputStream8NextCharEv
libwx_baseu-2.8.so.0:_ZN17wxTextInputStream8ReadLineEv
libwx_baseu-2.8.so.0:_ZN17wxTextInputStream8ReadWordEv
libwx_baseu-2.8.so.0:_ZN17wxTextInputStream9UngetLastEv
libwx_baseu-2.8.so.0:_ZN17wxTextInputStreamC1ER13wxInputStreamRK8wxStringRK8wxMBConv
libwx_baseu-2.8.so.0:_ZN17wxTextInputStreamC2ER13wxInputStreamRK8wxStringRK8wxMBConv
libwx_baseu-2.8.so.0:_ZN17wxTextInputStreamD1Ev
libwx_baseu-2.8.so.0:_ZN17wxTextInputStreamD2Ev
libwx_baseu-2.8.so.0:_ZN17wxTextInputStreamrsER8wxString
libwx_baseu-2.8.so.0:_ZN17wxTextInputStreamrsERc
libwx_baseu-2.8.so.0:_ZN17wxTextInputStreamrsERd
libwx_baseu-2.8.so.0:_ZN17wxTextInputStreamrsERf
libwx_baseu-2.8.so.0:_ZN17wxTextInputStreamrsERi
libwx_baseu-2.8.so.0:_ZN17wxTextInputStreamrsERj
libwx_baseu-2.8.so.0:_ZN17wxTextInputStreamrsERs
libwx_baseu-2.8.so.0:_ZN17wxTextInputStreamrsERt
libwx_baseu-2.8.so.0:_ZN17wxTextInputStreamrsERw
libwx_baseu-2.8.so.0:_ZN17wxVariantDataBool14wxCreateObjectEv
libwx_baseu-2.8.so.0:_ZN17wxVariantDataBool4ReadER13wxInputStream
libwx_baseu-2.8.so.0:_ZN17wxVariantDataBool4ReadER8wxString
libwx_baseu-2.8.so.0:_ZN17wxVariantDataBool4ReadERSi
libwx_baseu-2.8.so.0:_ZN17wxVariantDataChar14wxCreateObjectEv
libwx_baseu-2.8.so.0:_ZN17wxVariantDataChar4ReadER13wxInputStream
libwx_baseu-2.8.so.0:_ZN17wxVariantDataChar4ReadER8wxString
libwx_baseu-2.8.so.0:_ZN17wxVariantDataChar4ReadERSi
libwx_baseu-2.8.so.0:_ZN17wxVariantDataList14wxCreateObjectEv
libwx_baseu-2.8.so.0:_ZN17wxVariantDataList4ReadER8wxString
libwx_baseu-2.8.so.0:_ZN17wxVariantDataList4ReadERSi
libwx_baseu-2.8.so.0:_ZN17wxVariantDataList5ClearEv
libwx_baseu-2.8.so.0:_ZN17wxVariantDataList8SetValueERK6wxList
libwx_baseu-2.8.so.0:_ZN17wxVariantDataListC1ERK6wxList
libwx_baseu-2.8.so.0:_ZN17wxVariantDataListC2ERK6wxList
libwx_baseu-2.8.so.0:_ZN17wxVariantDataListD0Ev
libwx_baseu-2.8.so.0:_ZN17wxVariantDataListD1Ev
libwx_baseu-2.8.so.0:_ZN17wxVariantDataListD2Ev
libwx_baseu-2.8.so.0:_ZN17wxVariantDataLong14wxCreateObjectEv
libwx_baseu-2.8.so.0:_ZN17wxVariantDataLong4ReadER13wxInputStream
libwx_baseu-2.8.so.0:_ZN17wxVariantDataLong4ReadER8wxString
libwx_baseu-2.8.so.0:_ZN17wxVariantDataLong4ReadERSi
libwx_baseu-2.8.so.0:_ZN17wxZipClassFactory14wxCreateObjectEv
libwx_baseu-2.8.so.0:_ZN17wxZipClassFactoryC1Ev
libwx_baseu-2.8.so.0:_ZN17wxZipClassFactoryC2Ev
libwx_baseu-2.8.so.0:_ZN17wxZipOutputStream10CloseEntryEv
libwx_baseu-2.8.so.0:_ZN17wxZipOutputStream10OnSysWriteEPKvm
libwx_baseu-2.8.so.0:_ZN17wxZipOutputStream12PutNextEntryEP14wxArchiveEntry
libwx_baseu-2.8.so.0:_ZN17wxZipOutputStream12PutNextEntryERK8wxStringRK10wxDateTimel
libwx_baseu-2.8.so.0:_ZN17wxZipOutputStream14OpenCompressorER14wxOutputStreamR10wxZipEntryPKNS_6BufferE
libwx_baseu-2.8.so.0:_ZN17wxZipOutputStream15CloseCompressorEP14wxOutputStream
libwx_baseu-2.8.so.0:_ZN17wxZipOutputStream15PutNextDirEntryERK8wxStringRK10wxDateTime
libwx_baseu-2.8.so.0:_ZN17wxZipOutputStream18CreatePendingEntryEPKvm
libwx_baseu-2.8.so.0:_ZN17wxZipOutputStream18CreatePendingEntryEv
libwx_baseu-2.8.so.0:_ZN17wxZipOutputStream19CopyArchiveMetaDataER16wxZipInputStream
libwx_baseu-2.8.so.0:_ZN17wxZipOutputStream19CopyArchiveMetaDataER20wxArchiveInputStream
libwx_baseu-2.8.so.0:_ZN17wxZipOutputStream4InitEi
libwx_baseu-2.8.so.0:_ZN17wxZipOutputStream4SyncEv
libwx_baseu-2.8.so.0:_ZN17wxZipOutputStream5CloseEv
libwx_baseu-2.8.so.0:_ZN17wxZipOutputStream8DoCreateEP10wxZipEntryb
libwx_baseu-2.8.so.0:_ZN17wxZipOutputStream8SetLevelEi
libwx_baseu-2.8.so.0:_ZN17wxZipOutputStream9CopyEntryEP10wxZipEntryR16wxZipInputStream
libwx_baseu-2.8.so.0:_ZN17wxZipOutputStream9CopyEntryEP14wxArchiveEntryR20wxArchiveInputStream
libwx_baseu-2.8.so.0:_ZN17wxZipOutputStreamC1EP14wxOutputStreamiR8wxMBConv
libwx_baseu-2.8.so.0:_ZN17wxZipOutputStreamC1ER14wxOutputStreamiR8wxMBConv
libwx_baseu-2.8.so.0:_ZN17wxZipOutputStreamC2EP14wxOutputStreamiR8wxMBConv
libwx_baseu-2.8.so.0:_ZN17wxZipOutputStreamC2ER14wxOutputStreamiR8wxMBConv
libwx_baseu-2.8.so.0:_ZN17wxZipOutputStreamD0Ev
libwx_baseu-2.8.so.0:_ZN17wxZipOutputStreamD1Ev
libwx_baseu-2.8.so.0:_ZN17wxZipOutputStreamD2Ev
libwx_baseu-2.8.so.0:_ZN17wxZlibInputStream13CanHandleGZipEv
libwx_baseu-2.8.so.0:_ZN17wxZlibInputStream4InitEi
libwx_baseu-2.8.so.0:_ZN17wxZlibInputStream9OnSysReadEPvm
libwx_baseu-2.8.so.0:_ZN17wxZlibInputStreamC1EP13wxInputStreami
libwx_baseu-2.8.so.0:_ZN17wxZlibInputStreamC1ER13wxInputStreami
libwx_baseu-2.8.so.0:_ZN17wxZlibInputStreamC2EP13wxInputStreami
libwx_baseu-2.8.so.0:_ZN17wxZlibInputStreamC2ER13wxInputStreami
libwx_baseu-2.8.so.0:_ZN17wxZlibInputStreamD0Ev
libwx_baseu-2.8.so.0:_ZN17wxZlibInputStreamD1Ev
libwx_baseu-2.8.so.0:_ZN17wxZlibInputStreamD2Ev
libwx_baseu-2.8.so.0:_ZN18wxArchiveFSHandler14wxCreateObjectEv
libwx_baseu-2.8.so.0:_ZN18wxArchiveFSHandler6DoFindEv
libwx_baseu-2.8.so.0:_ZN18wxArchiveFSHandler7CanOpenERK8wxString
libwx_baseu-2.8.so.0:_ZN18wxArchiveFSHandler7CleanupEv
libwx_baseu-2.8.so.0:_ZN18wxArchiveFSHandler8FindNextEv
libwx_baseu-2.8.so.0:_ZN18wxArchiveFSHandler8OpenFileER12wxFileSystemRK8wxString
libwx_baseu-2.8.so.0:_ZN18wxArchiveFSHandler9FindFirstERK8wxStringi
libwx_baseu-2.8.so.0:_ZN18wxArchiveFSHandlerC1Ev
libwx_baseu-2.8.so.0:_ZN18wxArchiveFSHandlerC2Ev
libwx_baseu-2.8.so.0:_ZN18wxArchiveFSHandlerD0Ev
libwx_baseu-2.8.so.0:_ZN18wxArchiveFSHandlerD1Ev
libwx_baseu-2.8.so.0:_ZN18wxArchiveFSHandlerD2Ev
libwx_baseu-2.8.so.0:_ZN18wxBaseArrayPtrVoid3AddEPKvPFiS1_S1_E
libwx_baseu-2.8.so.0:_ZN18wxBaseArrayPtrVoid3AddEPKvm
libwx_baseu-2.8.so.0:_ZN18wxBaseArrayPtrVoid4GrowEm
libwx_baseu-2.8.so.0:_ZN18wxBaseArrayPtrVoid4SortEPFiPKvS1_E
libwx_baseu-2.8.so.0:_ZN18wxBaseArrayPtrVoid5ClearEv
libwx_baseu-2.8.so.0:_ZN18wxBaseArrayPtrVoid6InsertEPKvmm
libwx_baseu-2.8.so.0:_ZN18wxBaseArrayPtrVoid6RemoveEPKv
libwx_baseu-2.8.so.0:_ZN18wxBaseArrayPtrVoid6ShrinkEv
libwx_baseu-2.8.so.0:_ZN18wxBaseArrayPtrVoid6assignEPKPKvS3_
libwx_baseu-2.8.so.0:_ZN18wxBaseArrayPtrVoid6assignEmRKPKv
libwx_baseu-2.8.so.0:_ZN18wxBaseArrayPtrVoid6insertEPPKvPKS1_S4_
libwx_baseu-2.8.so.0:_ZN18wxBaseArrayPtrVoid7ReallocEm
libwx_baseu-2.8.so.0:_ZN18wxBaseArrayPtrVoid8RemoveAtEmm
libwx_baseu-2.8.so.0:_ZN18wxBaseArrayPtrVoid8SetCountEmPKv
libwx_baseu-2.8.so.0:_ZN18wxBaseArrayPtrVoidC1ERKS_
libwx_baseu-2.8.so.0:_ZN18wxBaseArrayPtrVoidC1Ev
libwx_baseu-2.8.so.0:_ZN18wxBaseArrayPtrVoidC2ERKS_
libwx_baseu-2.8.so.0:_ZN18wxBaseArrayPtrVoidC2Ev
libwx_baseu-2.8.so.0:_ZN18wxBaseArrayPtrVoidD1Ev
libwx_baseu-2.8.so.0:_ZN18wxBaseArrayPtrVoidD2Ev
libwx_baseu-2.8.so.0:_ZN18wxBaseArrayPtrVoidaSERKS_
libwx_baseu-2.8.so.0:_ZN18wxConsoleAppTraits12WaitForChildER13wxExecuteData
libwx_baseu-2.8.so.0:_ZN18wxConsoleAppTraits20CreateEndProcessPipeER13wxExecuteData
libwx_baseu-2.8.so.0:_ZN18wxConsoleAppTraits25IsWriteFDOfEndProcessPipeER13wxExecuteDatai
libwx_baseu-2.8.so.0:_ZN18wxConsoleAppTraits29DetachWriteFDOfEndProcessPipeER13wxExecuteData
libwx_baseu-2.8.so.0:_ZN18wxDataOutputStream11WriteDoubleEPKdm
libwx_baseu-2.8.so.0:_ZN18wxDataOutputStream11WriteDoubleEd
libwx_baseu-2.8.so.0:_ZN18wxDataOutputStream11WriteStringERK8wxString
libwx_baseu-2.8.so.0:_ZN18wxDataOutputStream6Write8EPKhm
libwx_baseu-2.8.so.0:_ZN18wxDataOutputStream6Write8Eh
libwx_baseu-2.8.so.0:_ZN18wxDataOutputStream7Write16EPKtm
libwx_baseu-2.8.so.0:_ZN18wxDataOutputStream7Write16Et
libwx_baseu-2.8.so.0:_ZN18wxDataOutputStream7Write32EPKjm
libwx_baseu-2.8.so.0:_ZN18wxDataOutputStream7Write32Ej
libwx_baseu-2.8.so.0:_ZN18wxDataOutputStream7Write64EPK16wxLongLongNativem
libwx_baseu-2.8.so.0:_ZN18wxDataOutputStream7Write64EPK17wxULongLongNativem
libwx_baseu-2.8.so.0:_ZN18wxDataOutputStream7Write64EPKxm
libwx_baseu-2.8.so.0:_ZN18wxDataOutputStream7Write64EPKym
libwx_baseu-2.8.so.0:_ZN18wxDataOutputStream7Write64Ex
libwx_baseu-2.8.so.0:_ZN18wxDataOutputStream7Write64Ey
libwx_baseu-2.8.so.0:_ZN18wxDataOutputStream7WriteLLEPK16wxLongLongNativem
libwx_baseu-2.8.so.0:_ZN18wxDataOutputStream7WriteLLEPK17wxULongLongNativem
libwx_baseu-2.8.so.0:_ZN18wxDataOutputStream7WriteLLERK16wxLongLongNative
libwx_baseu-2.8.so.0:_ZN18wxDataOutputStream7WriteLLERK17wxULongLongNative
libwx_baseu-2.8.so.0:_ZN18wxDataOutputStreamC1ER14wxOutputStreamRK8wxMBConv
libwx_baseu-2.8.so.0:_ZN18wxDataOutputStreamC2ER14wxOutputStreamRK8wxMBConv
libwx_baseu-2.8.so.0:_ZN18wxDataOutputStreamD1Ev
libwx_baseu-2.8.so.0:_ZN18wxDataOutputStreamD2Ev
libwx_baseu-2.8.so.0:_ZN18wxDataOutputStreamlsEPKw
libwx_baseu-2.8.so.0:_ZN18wxDataOutputStreamlsERK16wxLongLongNative
libwx_baseu-2.8.so.0:_ZN18wxDataOutputStreamlsERK17wxULongLongNative
libwx_baseu-2.8.so.0:_ZN18wxDataOutputStreamlsERK8wxString
libwx_baseu-2.8.so.0:_ZN18wxDataOutputStreamlsEa
libwx_baseu-2.8.so.0:_ZN18wxDataOutputStreamlsEd
libwx_baseu-2.8.so.0:_ZN18wxDataOutputStreamlsEf
libwx_baseu-2.8.so.0:_ZN18wxDataOutputStreamlsEh
libwx_baseu-2.8.so.0:_ZN18wxDataOutputStreamlsEi
libwx_baseu-2.8.so.0:_ZN18wxDataOutputStreamlsEj
libwx_baseu-2.8.so.0:_ZN18wxDataOutputStreamlsEs
libwx_baseu-2.8.so.0:_ZN18wxDataOutputStreamlsEt
libwx_baseu-2.8.so.0:_ZN18wxDataOutputStreamlsEx
libwx_baseu-2.8.so.0:_ZN18wxDataOutputStreamlsEy
libwx_baseu-2.8.so.0:_ZN18wxFFileInputStream9OnSysReadEPvm
libwx_baseu-2.8.so.0:_ZN18wxFFileInputStream9OnSysSeekEl10wxSeekMode
libwx_baseu-2.8.so.0:_ZN18wxFFileInputStreamC1EP8_IO_FILE
libwx_baseu-2.8.so.0:_ZN18wxFFileInputStreamC1ER7wxFFile
libwx_baseu-2.8.so.0:_ZN18wxFFileInputStreamC1ERK8wxStringPKw
libwx_baseu-2.8.so.0:_ZN18wxFFileInputStreamC1Ev
libwx_baseu-2.8.so.0:_ZN18wxFFileInputStreamC2EP8_IO_FILE
libwx_baseu-2.8.so.0:_ZN18wxFFileInputStreamC2ER7wxFFile
libwx_baseu-2.8.so.0:_ZN18wxFFileInputStreamC2ERK8wxStringPKw
libwx_baseu-2.8.so.0:_ZN18wxFFileInputStreamC2Ev
libwx_baseu-2.8.so.0:_ZN18wxFFileInputStreamD0Ev
libwx_baseu-2.8.so.0:_ZN18wxFFileInputStreamD1Ev
libwx_baseu-2.8.so.0:_ZN18wxFFileInputStreamD2Ev
libwx_baseu-2.8.so.0:_ZN18wxFileOutputStream10OnSysWriteEPKvm
libwx_baseu-2.8.so.0:_ZN18wxFileOutputStream4SyncEv
libwx_baseu-2.8.so.0:_ZN18wxFileOutputStream9OnSysSeekEl10wxSeekMode
libwx_baseu-2.8.so.0:_ZN18wxFileOutputStreamC1ER6wxFile
libwx_baseu-2.8.so.0:_ZN18wxFileOutputStreamC1ERK8wxString
libwx_baseu-2.8.so.0:_ZN18wxFileOutputStreamC1Ei
libwx_baseu-2.8.so.0:_ZN18wxFileOutputStreamC1Ev
libwx_baseu-2.8.so.0:_ZN18wxFileOutputStreamC2ER6wxFile
libwx_baseu-2.8.so.0:_ZN18wxFileOutputStreamC2ERK8wxString
libwx_baseu-2.8.so.0:_ZN18wxFileOutputStreamC2Ei
libwx_baseu-2.8.so.0:_ZN18wxFileOutputStreamC2Ev
libwx_baseu-2.8.so.0:_ZN18wxFileOutputStreamD0Ev
libwx_baseu-2.8.so.0:_ZN18wxFileOutputStreamD1Ev
libwx_baseu-2.8.so.0:_ZN18wxFileOutputStreamD2Ev
libwx_baseu-2.8.so.0:_ZN18wxFileSystemModule14wxCreateObjectEv
libwx_baseu-2.8.so.0:_ZN18wxFontMapperModule14wxCreateObjectEv
libwx_baseu-2.8.so.0:_ZN18wxGzipClassFactory14wxCreateObjectEv
libwx_baseu-2.8.so.0:_ZN18wxGzipClassFactoryC1Ev
libwx_baseu-2.8.so.0:_ZN18wxGzipClassFactoryC2Ev
libwx_baseu-2.8.so.0:_ZN18wxMessageOutputLog6PrintfEPKwz
libwx_baseu-2.8.so.0:_ZN18wxMimeTypeCommands16AddOrReplaceVerbERK8wxStringS2_
libwx_baseu-2.8.so.0:_ZN18wxMimeTypesManager10EnsureImplEv
libwx_baseu-2.8.so.0:_ZN18wxMimeTypesManager10InitializeEiRK8wxString
libwx_baseu-2.8.so.0:_ZN18wxMimeTypesManager11ReadMailcapERK8wxStringb
libwx_baseu-2.8.so.0:_ZN18wxMimeTypesManager11UnassociateEP10wxFileType
libwx_baseu-2.8.so.0:_ZN18wxMimeTypesManager12AddFallbacksEPK14wxFileTypeInfo
libwx_baseu-2.8.so.0:_ZN18wxMimeTypesManager13ReadMimeTypesERK8wxString
libwx_baseu-2.8.so.0:_ZN18wxMimeTypesManager16EnumAllFileTypesER13wxArrayString
libwx_baseu-2.8.so.0:_ZN18wxMimeTypesManager23GetFileTypeFromMimeTypeERK8wxString
libwx_baseu-2.8.so.0:_ZN18wxMimeTypesManager24GetFileTypeFromExtensionERK8wxString
libwx_baseu-2.8.so.0:_ZN18wxMimeTypesManager8IsOfTypeERK8wxStringS2_
libwx_baseu-2.8.so.0:_ZN18wxMimeTypesManager9AssociateERK14wxFileTypeInfo
libwx_baseu-2.8.so.0:_ZN18wxMimeTypesManager9ClearDataEv
libwx_baseu-2.8.so.0:_ZN18wxMimeTypesManagerC1Ev
libwx_baseu-2.8.so.0:_ZN18wxMimeTypesManagerC2Ev
libwx_baseu-2.8.so.0:_ZN18wxMimeTypesManagerD1Ev
libwx_baseu-2.8.so.0:_ZN18wxMimeTypesManagerD2Ev
libwx_baseu-2.8.so.0:_ZN18wxTextOutputStream11WriteDoubleEd
libwx_baseu-2.8.so.0:_ZN18wxTextOutputStream11WriteStringERK8wxString
libwx_baseu-2.8.so.0:_ZN18wxTextOutputStream6Write8Eh
libwx_baseu-2.8.so.0:_ZN18wxTextOutputStream7PutCharEw
libwx_baseu-2.8.so.0:_ZN18wxTextOutputStream7SetModeE5wxEOL
libwx_baseu-2.8.so.0:_ZN18wxTextOutputStream7Write16Et
libwx_baseu-2.8.so.0:_ZN18wxTextOutputStream7Write32Ej
libwx_baseu-2.8.so.0:_ZN18wxTextOutputStreamC1ER14wxOutputStream5wxEOLRK8wxMBConv
libwx_baseu-2.8.so.0:_ZN18wxTextOutputStreamC2ER14wxOutputStream5wxEOLRK8wxMBConv
libwx_baseu-2.8.so.0:_ZN18wxTextOutputStreamD0Ev
libwx_baseu-2.8.so.0:_ZN18wxTextOutputStreamD1Ev
libwx_baseu-2.8.so.0:_ZN18wxTextOutputStreamD2Ev
libwx_baseu-2.8.so.0:_ZN18wxTextOutputStreamlsEPKw
libwx_baseu-2.8.so.0:_ZN18wxTextOutputStreamlsERK8wxString
libwx_baseu-2.8.so.0:_ZN18wxTextOutputStreamlsEc
libwx_baseu-2.8.so.0:_ZN18wxTextOutputStreamlsEd
libwx_baseu-2.8.so.0:_ZN18wxTextOutputStreamlsEf
libwx_baseu-2.8.so.0:_ZN18wxTextOutputStreamlsEi
libwx_baseu-2.8.so.0:_ZN18wxTextOutputStreamlsEj
libwx_baseu-2.8.so.0:_ZN18wxTextOutputStreamlsEs
libwx_baseu-2.8.so.0:_ZN18wxTextOutputStreamlsEt
libwx_baseu-2.8.so.0:_ZN18wxTextOutputStreamlsEw
libwx_baseu-2.8.so.0:_ZN18wxZlibClassFactory14wxCreateObjectEv
libwx_baseu-2.8.so.0:_ZN18wxZlibClassFactoryC1Ev
libwx_baseu-2.8.so.0:_ZN18wxZlibClassFactoryC2Ev
libwx_baseu-2.8.so.0:_ZN18wxZlibInputStream24OpenER13wxInputStream
libwx_baseu-2.8.so.0:_ZN18wxZlibOutputStream10OnSysWriteEPKvm
libwx_baseu-2.8.so.0:_ZN18wxZlibOutputStream13CanHandleGZipEv
libwx_baseu-2.8.so.0:_ZN18wxZlibOutputStream4InitEii
libwx_baseu-2.8.so.0:_ZN18wxZlibOutputStream5CloseEv
libwx_baseu-2.8.so.0:_ZN18wxZlibOutputStream7DoFlushEb
libwx_baseu-2.8.so.0:_ZN18wxZlibOutputStreamC1EP14wxOutputStreamii
libwx_baseu-2.8.so.0:_ZN18wxZlibOutputStreamC1ER14wxOutputStreamii
libwx_baseu-2.8.so.0:_ZN18wxZlibOutputStreamC2EP14wxOutputStreamii
libwx_baseu-2.8.so.0:_ZN18wxZlibOutputStreamC2ER14wxOutputStreamii
libwx_baseu-2.8.so.0:_ZN18wxwxModuleListNode10DeleteDataEv
libwx_baseu-2.8.so.0:_ZN19wxArrayFileTypeInfo3AddERK14wxFileTypeInfom
libwx_baseu-2.8.so.0:_ZN19wxArrayFileTypeInfo6DoCopyERKS_
libwx_baseu-2.8.so.0:_ZN19wxArrayFileTypeInfo6InsertERK14wxFileTypeInfomm
libwx_baseu-2.8.so.0:_ZN19wxArrayFileTypeInfo7DoEmptyEv
libwx_baseu-2.8.so.0:_ZN19wxArrayFileTypeInfo8RemoveAtEmm
libwx_baseu-2.8.so.0:_ZN19wxArrayFileTypeInfoC1ERKS_
libwx_baseu-2.8.so.0:_ZN19wxArrayFileTypeInfoC2ERKS_
libwx_baseu-2.8.so.0:_ZN19wxArrayFileTypeInfoD1Ev
libwx_baseu-2.8.so.0:_ZN19wxArrayFileTypeInfoD2Ev
libwx_baseu-2.8.so.0:_ZN19wxArrayFileTypeInfoaSERKS_
libwx_baseu-2.8.so.0:_ZN19wxBackedInputStream9OnSysReadEPvm
libwx_baseu-2.8.so.0:_ZN19wxBackedInputStream9OnSysSeekEl10wxSeekMode
libwx_baseu-2.8.so.0:_ZN19wxBackedInputStreamC1ERK13wxBackingFile
libwx_baseu-2.8.so.0:_ZN19wxBackedInputStreamC2ERK13wxBackingFile
libwx_baseu-2.8.so.0:_ZN19wxCmdLineParserData10FindOptionERK8wxString
libwx_baseu-2.8.so.0:_ZN19wxCmdLineParserData12SetArgumentsERK8wxString
libwx_baseu-2.8.so.0:_ZN19wxCmdLineParserData12SetArgumentsEiPPc
libwx_baseu-2.8.so.0:_ZN19wxCmdLineParserData12SetArgumentsEiPPw
libwx_baseu-2.8.so.0:_ZN19wxCmdLineParserData20FindOptionByLongNameERK8wxString
libwx_baseu-2.8.so.0:_ZN19wxCmdLineParserDataC1Ev
libwx_baseu-2.8.so.0:_ZN19wxCmdLineParserDataC2Ev
libwx_baseu-2.8.so.0:_ZN19wxConditionInternal11WaitTimeoutEm
libwx_baseu-2.8.so.0:_ZN19wxConditionInternal4WaitEv
libwx_baseu-2.8.so.0:_ZN19wxConditionInternal6SignalEv
libwx_baseu-2.8.so.0:_ZN19wxConditionInternal9BroadcastEv
libwx_baseu-2.8.so.0:_ZN19wxConditionInternalC1ER7wxMutex
libwx_baseu-2.8.so.0:_ZN19wxConditionInternalC2ER7wxMutex
libwx_baseu-2.8.so.0:_ZN19wxConditionInternalD1Ev
libwx_baseu-2.8.so.0:_ZN19wxConditionInternalD2Ev
libwx_baseu-2.8.so.0:_ZN19wxConfigPathChanger15UpdateIfDeletedEv
libwx_baseu-2.8.so.0:_ZN19wxConfigPathChangerC1EPK12wxConfigBaseRK8wxString
libwx_baseu-2.8.so.0:_ZN19wxConfigPathChangerC2EPK12wxConfigBaseRK8wxString
libwx_baseu-2.8.so.0:_ZN19wxConfigPathChangerD1Ev
libwx_baseu-2.8.so.0:_ZN19wxConfigPathChangerD2Ev
libwx_baseu-2.8.so.0:_ZN19wxEncodingConverter17GetAllEquivalentsE14wxFontEncoding
libwx_baseu-2.8.so.0:_ZN19wxEncodingConverter22GetPlatformEquivalentsE14wxFontEncodingi
libwx_baseu-2.8.so.0:_ZN19wxEncodingConverter4InitE14wxFontEncodingS0_i
libwx_baseu-2.8.so.0:_ZN19wxEncodingConverterC1Ev
libwx_baseu-2.8.so.0:_ZN19wxEncodingConverterC2Ev
libwx_baseu-2.8.so.0:_ZN19wxFFileOutputStream10OnSysWriteEPKvm
libwx_baseu-2.8.so.0:_ZN19wxFFileOutputStream4SyncEv
libwx_baseu-2.8.so.0:_ZN19wxFFileOutputStream9OnSysSeekEl10wxSeekMode
libwx_baseu-2.8.so.0:_ZN19wxFFileOutputStreamC1EP8_IO_FILE
libwx_baseu-2.8.so.0:_ZN19wxFFileOutputStreamC1ER7wxFFile
libwx_baseu-2.8.so.0:_ZN19wxFFileOutputStreamC1ERK8wxStringPKw
libwx_baseu-2.8.so.0:_ZN19wxFFileOutputStreamC1Ev
libwx_baseu-2.8.so.0:_ZN19wxFFileOutputStreamC2EP8_IO_FILE
libwx_baseu-2.8.so.0:_ZN19wxFFileOutputStreamC2ER7wxFFile
libwx_baseu-2.8.so.0:_ZN19wxFFileOutputStreamC2ERK8wxStringPKw
libwx_baseu-2.8.so.0:_ZN19wxFFileOutputStreamC2Ev
libwx_baseu-2.8.so.0:_ZN19wxFFileOutputStreamD0Ev
libwx_baseu-2.8.so.0:_ZN19wxFFileOutputStreamD1Ev
libwx_baseu-2.8.so.0:_ZN19wxFFileOutputStreamD2Ev
libwx_baseu-2.8.so.0:_ZN19wxFileSystemHandler18GetMimeTypeFromExtERK8wxString
libwx_baseu-2.8.so.0:_ZN19wxFileSystemHandler8FindNextEv
libwx_baseu-2.8.so.0:_ZN19wxFileSystemHandler9FindFirstERK8wxStringi
libwx_baseu-2.8.so.0:_ZN19wxFilterInputStreamC1EP13wxInputStream
libwx_baseu-2.8.so.0:_ZN19wxFilterInputStreamC1ER13wxInputStream
libwx_baseu-2.8.so.0:_ZN19wxFilterInputStreamC1Ev
libwx_baseu-2.8.so.0:_ZN19wxFilterInputStreamC2EP13wxInputStream
libwx_baseu-2.8.so.0:_ZN19wxFilterInputStreamC2ER13wxInputStream
libwx_baseu-2.8.so.0:_ZN19wxFilterInputStreamC2Ev
libwx_baseu-2.8.so.0:_ZN19wxFilterInputStreamD0Ev
libwx_baseu-2.8.so.0:_ZN19wxFilterInputStreamD1Ev
libwx_baseu-2.8.so.0:_ZN19wxFilterInputStreamD2Ev
libwx_baseu-2.8.so.0:_ZN19wxLanguageInfoArray3AddERK14wxLanguageInfom
libwx_baseu-2.8.so.0:_ZN19wxLanguageInfoArray6DoCopyERKS_
libwx_baseu-2.8.so.0:_ZN19wxLanguageInfoArray6InsertERK14wxLanguageInfomm
libwx_baseu-2.8.so.0:_ZN19wxLanguageInfoArray7DoEmptyEv
libwx_baseu-2.8.so.0:_ZN19wxLanguageInfoArray8RemoveAtEmm
libwx_baseu-2.8.so.0:_ZN19wxLanguageInfoArrayC1ERKS_
libwx_baseu-2.8.so.0:_ZN19wxLanguageInfoArrayC2ERKS_
libwx_baseu-2.8.so.0:_ZN19wxLanguageInfoArrayD1Ev
libwx_baseu-2.8.so.0:_ZN19wxLanguageInfoArrayD2Ev
libwx_baseu-2.8.so.0:_ZN19wxLanguageInfoArrayaSERKS_
libwx_baseu-2.8.so.0:_ZN19wxMemoryInputStream4PeekEv
libwx_baseu-2.8.so.0:_ZN19wxMemoryInputStream9OnSysReadEPvm
libwx_baseu-2.8.so.0:_ZN19wxMemoryInputStream9OnSysSeekEl10wxSeekMode
libwx_baseu-2.8.so.0:_ZN19wxMemoryInputStreamC1EPKvm
libwx_baseu-2.8.so.0:_ZN19wxMemoryInputStreamC1ERK20wxMemoryOutputStream
libwx_baseu-2.8.so.0:_ZN19wxMemoryInputStreamC2EPKvm
libwx_baseu-2.8.so.0:_ZN19wxMemoryInputStreamC2ERK20wxMemoryOutputStream
libwx_baseu-2.8.so.0:_ZN19wxMemoryInputStreamD0Ev
libwx_baseu-2.8.so.0:_ZN19wxMemoryInputStreamD1Ev
libwx_baseu-2.8.so.0:_ZN19wxMemoryInputStreamD2Ev
libwx_baseu-2.8.so.0:_ZN19wxMessageOutputBest6PrintfEPKwz
libwx_baseu-2.8.so.0:_ZN19wxMimeTypeCmnModule14wxCreateObjectEv
libwx_baseu-2.8.so.0:_ZN19wxPluralFormsParser10expressionEv
libwx_baseu-2.8.so.0:_ZN19wxPluralFormsParser11parsePluralEv
libwx_baseu-2.8.so.0:_ZN19wxPluralFormsParser12pmExpressionEv
libwx_baseu-2.8.so.0:_ZN19wxPluralFormsParser18equalityExpressionEv
libwx_baseu-2.8.so.0:_ZN19wxPluralFormsParser19logicalOrExpressionEv
libwx_baseu-2.8.so.0:_ZN19wxPluralFormsParser20logicalAndExpressionEv
libwx_baseu-2.8.so.0:_ZN19wxPluralFormsParser20relationalExpressionEv
libwx_baseu-2.8.so.0:_ZN19wxPluralFormsParser24multiplicativeExpressionEv
libwx_baseu-2.8.so.0:_ZN19wxPluralFormsParser5parseER23wxPluralFormsCalculator
libwx_baseu-2.8.so.0:_ZN19wxPluralFormsParser9nextTokenEv
libwx_baseu-2.8.so.0:_ZN19wxSemaphoreInternal11WaitTimeoutEm
libwx_baseu-2.8.so.0:_ZN19wxSemaphoreInternal4PostEv
libwx_baseu-2.8.so.0:_ZN19wxSemaphoreInternal4WaitEv
libwx_baseu-2.8.so.0:_ZN19wxSemaphoreInternal7TryWaitEv
libwx_baseu-2.8.so.0:_ZN19wxSemaphoreInternalC1Eii
libwx_baseu-2.8.so.0:_ZN19wxSemaphoreInternalC2Eii
libwx_baseu-2.8.so.0:_ZN19wxStandardPathsBase13AppendAppNameERK8wxString
libwx_baseu-2.8.so.0:_ZN19wxStandardPathsBase3GetEv
libwx_baseu-2.8.so.0:_ZN19wxStandardPathsBaseD0Ev
libwx_baseu-2.8.so.0:_ZN19wxStandardPathsBaseD1Ev
libwx_baseu-2.8.so.0:_ZN19wxStandardPathsBaseD2Ev
libwx_baseu-2.8.so.0:_ZN19wxStoredInputStream9OnSysReadEPvm
libwx_baseu-2.8.so.0:_ZN19wxStoredInputStreamC1ER13wxInputStream
libwx_baseu-2.8.so.0:_ZN19wxStoredInputStreamC2ER13wxInputStream
libwx_baseu-2.8.so.0:_ZN19wxStringInputStream9OnSysReadEPvm
libwx_baseu-2.8.so.0:_ZN19wxStringInputStream9OnSysSeekEl10wxSeekMode
libwx_baseu-2.8.so.0:_ZN19wxStringInputStreamC1ERK8wxString
libwx_baseu-2.8.so.0:_ZN19wxStringInputStreamC2ERK8wxString
libwx_baseu-2.8.so.0:_ZN19wxStringInputStreamD0Ev
libwx_baseu-2.8.so.0:_ZN19wxStringInputStreamD1Ev
libwx_baseu-2.8.so.0:_ZN19wxStringInputStreamD2Ev
libwx_baseu-2.8.so.0:_ZN19wxTarHeaderBlockPtrD1Ev
libwx_baseu-2.8.so.0:_ZN19wxTarHeaderBlockPtrD2Ev
libwx_baseu-2.8.so.0:_ZN19wxVariantDataString14wxCreateObjectEv
libwx_baseu-2.8.so.0:_ZN19wxVariantDataString4ReadER13wxInputStream
libwx_baseu-2.8.so.0:_ZN19wxVariantDataString4ReadER8wxString
libwx_baseu-2.8.so.0:_ZN19wxVariantDoubleData14wxCreateObjectEv
libwx_baseu-2.8.so.0:_ZN19wxVariantDoubleData4ReadER13wxInputStream
libwx_baseu-2.8.so.0:_ZN19wxVariantDoubleData4ReadER8wxString
libwx_baseu-2.8.so.0:_ZN19wxVariantDoubleData4ReadERSi
libwx_baseu-2.8.so.0:_ZN19wxZlibOutputStream24OpenER14wxOutputStream
libwx_baseu-2.8.so.0:_ZN20wxArchiveFSCacheDataC1ERK21wxArchiveClassFactoryP13wxInputStream
libwx_baseu-2.8.so.0:_ZN20wxArchiveFSCacheDataC1ERK21wxArchiveClassFactoryRK13wxBackingFile
libwx_baseu-2.8.so.0:_ZN20wxArchiveFSCacheDataC1ERKS_
libwx_baseu-2.8.so.0:_ZN20wxArchiveFSCacheDataC2ERK21wxArchiveClassFactoryP13wxInputStream
libwx_baseu-2.8.so.0:_ZN20wxArchiveFSCacheDataC2ERK21wxArchiveClassFactoryRK13wxBackingFile
libwx_baseu-2.8.so.0:_ZN20wxArchiveFSCacheDataC2ERKS_
libwx_baseu-2.8.so.0:_ZN20wxArchiveFSCacheDataaSERKS_
libwx_baseu-2.8.so.0:_ZN20wxArchiveInputStreamC1EP13wxInputStreamR8wxMBConv
libwx_baseu-2.8.so.0:_ZN20wxArchiveInputStreamC1ER13wxInputStreamR8wxMBConv
libwx_baseu-2.8.so.0:_ZN20wxArchiveInputStreamC2EP13wxInputStreamR8wxMBConv
libwx_baseu-2.8.so.0:_ZN20wxArchiveInputStreamC2ER13wxInputStreamR8wxMBConv
libwx_baseu-2.8.so.0:_ZN20wxFilterClassFactory4FindEPKw20wxStreamProtocolType
libwx_baseu-2.8.so.0:_ZN20wxFilterClassFactory6RemoveEv
libwx_baseu-2.8.so.0:_ZN20wxFilterClassFactory8GetFirstEv
libwx_baseu-2.8.so.0:_ZN20wxFilterOutputStream5CloseEv
libwx_baseu-2.8.so.0:_ZN20wxFilterOutputStreamC1EP14wxOutputStream
libwx_baseu-2.8.so.0:_ZN20wxFilterOutputStreamC1ER14wxOutputStream
libwx_baseu-2.8.so.0:_ZN20wxFilterOutputStreamC1Ev
libwx_baseu-2.8.so.0:_ZN20wxFilterOutputStreamC2EP14wxOutputStream
libwx_baseu-2.8.so.0:_ZN20wxFilterOutputStreamC2ER14wxOutputStream
libwx_baseu-2.8.so.0:_ZN20wxFilterOutputStreamC2Ev
libwx_baseu-2.8.so.0:_ZN20wxFilterOutputStreamD0Ev
libwx_baseu-2.8.so.0:_ZN20wxFilterOutputStreamD1Ev
libwx_baseu-2.8.so.0:_ZN20wxFilterOutputStreamD2Ev
libwx_baseu-2.8.so.0:_ZN20wxHashTableBase_NodeC1EPKwPvP15wxHashTableBase
libwx_baseu-2.8.so.0:_ZN20wxHashTableBase_NodeC1ElPvP15wxHashTableBase
libwx_baseu-2.8.so.0:_ZN20wxHashTableBase_NodeC2EPKwPvP15wxHashTableBase
libwx_baseu-2.8.so.0:_ZN20wxHashTableBase_NodeC2ElPvP15wxHashTableBase
libwx_baseu-2.8.so.0:_ZN20wxHashTableBase_NodeD1Ev
libwx_baseu-2.8.so.0:_ZN20wxHashTableBase_NodeD2Ev
libwx_baseu-2.8.so.0:_ZN20wxMemoryOutputStream10OnSysWriteEPKvm
libwx_baseu-2.8.so.0:_ZN20wxMemoryOutputStream9OnSysSeekEl10wxSeekMode
libwx_baseu-2.8.so.0:_ZN20wxMemoryOutputStreamC1EPvm
libwx_baseu-2.8.so.0:_ZN20wxMemoryOutputStreamC2EPvm
libwx_baseu-2.8.so.0:_ZN20wxMemoryOutputStreamD0Ev
libwx_baseu-2.8.so.0:_ZN20wxMemoryOutputStreamD1Ev
libwx_baseu-2.8.so.0:_ZN20wxMemoryOutputStreamD2Ev
libwx_baseu-2.8.so.0:_ZN20wxMessageOutputDebug6PrintfEPKwz
libwx_baseu-2.8.so.0:_ZN20wxPluralFormsNodePtr5resetEP17wxPluralFormsNode
libwx_baseu-2.8.so.0:_ZN20wxPluralFormsNodePtr7releaseEv
libwx_baseu-2.8.so.0:_ZN20wxPluralFormsNodePtrD1Ev
libwx_baseu-2.8.so.0:_ZN20wxPluralFormsNodePtrD2Ev
libwx_baseu-2.8.so.0:_ZN20wxPluralFormsScanner9nextTokenEv
libwx_baseu-2.8.so.0:_ZN20wxPluralFormsScannerC1EPKc
libwx_baseu-2.8.so.0:_ZN20wxPluralFormsScannerC2EPKc
libwx_baseu-2.8.so.0:_ZN20wxStoredOutputStream10OnSysWriteEPKvm
libwx_baseu-2.8.so.0:_ZN20wxStringOutputStream10OnSysWriteEPKvm
libwx_baseu-2.8.so.0:_ZN20wxStringOutputStreamD0Ev
libwx_baseu-2.8.so.0:_ZN20wxStringOutputStreamD1Ev
libwx_baseu-2.8.so.0:_ZN20wxStringOutputStreamD2Ev
libwx_baseu-2.8.so.0:_ZN20wxVariantDataVoidPtr14wxCreateObjectEv
libwx_baseu-2.8.so.0:_ZN20wxVariantDataVoidPtr4ReadER8wxString
libwx_baseu-2.8.so.0:_ZN20wxVariantDataVoidPtr4ReadERSi
libwx_baseu-2.8.so.0:_ZN21wxArchiveClassFactory4FindEPKw20wxStreamProtocolType
libwx_baseu-2.8.so.0:_ZN21wxArchiveClassFactory6RemoveEv
libwx_baseu-2.8.so.0:_ZN21wxArchiveClassFactory8GetFirstEv
libwx_baseu-2.8.so.0:_ZN21wxArchiveOutputStreamC1EP14wxOutputStreamR8wxMBConv
libwx_baseu-2.8.so.0:_ZN21wxArchiveOutputStreamC1ER14wxOutputStreamR8wxMBConv
libwx_baseu-2.8.so.0:_ZN21wxArchiveOutputStreamC2EP14wxOutputStreamR8wxMBConv
libwx_baseu-2.8.so.0:_ZN21wxArchiveOutputStreamC2ER14wxOutputStreamR8wxMBConv
libwx_baseu-2.8.so.0:_ZN21wxBufferedInputStream20SetInputStreamBufferEP14wxStreamBuffer
libwx_baseu-2.8.so.0:_ZN21wxBufferedInputStream4PeekEv
libwx_baseu-2.8.so.0:_ZN21wxBufferedInputStream4ReadEPvm
libwx_baseu-2.8.so.0:_ZN21wxBufferedInputStream5SeekIEl10wxSeekMode
libwx_baseu-2.8.so.0:_ZN21wxBufferedInputStream9OnSysReadEPvm
libwx_baseu-2.8.so.0:_ZN21wxBufferedInputStream9OnSysSeekEl10wxSeekMode
libwx_baseu-2.8.so.0:_ZN21wxBufferedInputStreamC1ER13wxInputStreamP14wxStreamBuffer
libwx_baseu-2.8.so.0:_ZN21wxBufferedInputStreamC2ER13wxInputStreamP14wxStreamBuffer
libwx_baseu-2.8.so.0:_ZN21wxBufferedInputStreamD0Ev
libwx_baseu-2.8.so.0:_ZN21wxBufferedInputStreamD1Ev
libwx_baseu-2.8.so.0:_ZN21wxBufferedInputStreamD2Ev
libwx_baseu-2.8.so.0:_ZN21wxClientDataContainer15DoSetClientDataEPv
libwx_baseu-2.8.so.0:_ZN21wxClientDataContainer17DoSetClientObjectEP12wxClientData
libwx_baseu-2.8.so.0:_ZN21wxClientDataContainerC1Ev
libwx_baseu-2.8.so.0:_ZN21wxClientDataContainerC2Ev
libwx_baseu-2.8.so.0:_ZN21wxClientDataContainerD0Ev
libwx_baseu-2.8.so.0:_ZN21wxClientDataContainerD1Ev
libwx_baseu-2.8.so.0:_ZN21wxClientDataContainerD2Ev
libwx_baseu-2.8.so.0:_ZN21wxConvBrokenFileNamesC1EPKw
libwx_baseu-2.8.so.0:_ZN21wxConvBrokenFileNamesC2EPKw
libwx_baseu-2.8.so.0:_ZN21wxMemoryFSHandlerBase10RemoveFileERK8wxString
libwx_baseu-2.8.so.0:_ZN21wxMemoryFSHandlerBase19AddFileWithMimeTypeERK8wxStringPKvmS2_
libwx_baseu-2.8.so.0:_ZN21wxMemoryFSHandlerBase19AddFileWithMimeTypeERK8wxStringS2_S2_
libwx_baseu-2.8.so.0:_ZN21wxMemoryFSHandlerBase7AddFileERK8wxStringPKvm
libwx_baseu-2.8.so.0:_ZN21wxMemoryFSHandlerBase7AddFileERK8wxStringS2_
libwx_baseu-2.8.so.0:_ZN21wxMemoryFSHandlerBase7CanOpenERK8wxString
libwx_baseu-2.8.so.0:_ZN21wxMemoryFSHandlerBase8FindNextEv
libwx_baseu-2.8.so.0:_ZN21wxMemoryFSHandlerBase8OpenFileER12wxFileSystemRK8wxString
libwx_baseu-2.8.so.0:_ZN21wxMemoryFSHandlerBase9CheckHashERK8wxString
libwx_baseu-2.8.so.0:_ZN21wxMemoryFSHandlerBase9FindFirstERK8wxStringi
libwx_baseu-2.8.so.0:_ZN21wxMemoryFSHandlerBaseC1Ev
libwx_baseu-2.8.so.0:_ZN21wxMemoryFSHandlerBaseC2Ev
libwx_baseu-2.8.so.0:_ZN21wxMemoryFSHandlerBaseD0Ev
libwx_baseu-2.8.so.0:_ZN21wxMemoryFSHandlerBaseD1Ev
libwx_baseu-2.8.so.0:_ZN21wxMemoryFSHandlerBaseD2Ev
libwx_baseu-2.8.so.0:_ZN21wxMessageOutputStderr6PrintfEPKwz
libwx_baseu-2.8.so.0:_ZN21wxPluginLibraryModule14wxCreateObjectEv
libwx_baseu-2.8.so.0:_ZN21wxVariantDataDateTime14wxCreateObjectEv
libwx_baseu-2.8.so.0:_ZN21wxVariantDataDateTime4ReadER8wxString
libwx_baseu-2.8.so.0:_ZN21wxVariantDataDateTime4ReadERSi
libwx_baseu-2.8.so.0:_ZN21wxwxZipEntryList_Node10DeleteDataEv
libwx_baseu-2.8.so.0:_ZN22wxBufferedOutputStream10OnSysWriteEPKvm
libwx_baseu-2.8.so.0:_ZN22wxBufferedOutputStream21SetOutputStreamBufferEP14wxStreamBuffer
libwx_baseu-2.8.so.0:_ZN22wxBufferedOutputStream4SyncEv
libwx_baseu-2.8.so.0:_ZN22wxBufferedOutputStream5CloseEv
libwx_baseu-2.8.so.0:_ZN22wxBufferedOutputStream5SeekOEl10wxSeekMode
libwx_baseu-2.8.so.0:_ZN22wxBufferedOutputStream5WriteEPKvm
libwx_baseu-2.8.so.0:_ZN22wxBufferedOutputStream9OnSysSeekEl10wxSeekMode
libwx_baseu-2.8.so.0:_ZN22wxBufferedOutputStreamC1ER14wxOutputStreamP14wxStreamBuffer
libwx_baseu-2.8.so.0:_ZN22wxBufferedOutputStreamC2ER14wxOutputStreamP14wxStreamBuffer
libwx_baseu-2.8.so.0:_ZN22wxBufferedOutputStreamD0Ev
libwx_baseu-2.8.so.0:_ZN22wxBufferedOutputStreamD1Ev
libwx_baseu-2.8.so.0:_ZN22wxBufferedOutputStreamD2Ev
libwx_baseu-2.8.so.0:_ZN22wxConsoleAppTraitsBase14CreateRendererEv
libwx_baseu-2.8.so.0:_ZN22wxConsoleAppTraitsBase15CreateLogTargetEv
libwx_baseu-2.8.so.0:_ZN22wxConsoleAppTraitsBase16CreateFontMapperEv
libwx_baseu-2.8.so.0:_ZN22wxConsoleAppTraitsBase18ScheduleForDestroyEP8wxObject
libwx_baseu-2.8.so.0:_ZN22wxConsoleAppTraitsBase19CreateMessageOutputEv
libwx_baseu-2.8.so.0:_ZN22wxConsoleAppTraitsBase23RemoveFromPendingDeleteEP8wxObject
libwx_baseu-2.8.so.0:_ZN22wxConsoleAppTraitsBase26GetSocketGUIFunctionsTableEv
libwx_baseu-2.8.so.0:_ZN22wxConsoleAppTraitsBase9HasStderrEv
libwx_baseu-2.8.so.0:_ZN22wxCountingOutputStream10OnSysWriteEPKvm
libwx_baseu-2.8.so.0:_ZN22wxCountingOutputStream9OnSysSeekEl10wxSeekMode
libwx_baseu-2.8.so.0:_ZN22wxCountingOutputStreamC1Ev
libwx_baseu-2.8.so.0:_ZN22wxCountingOutputStreamC2Ev
libwx_baseu-2.8.so.0:_ZN22wxMimeTypesManagerImpl10InitializeEiRK8wxString
libwx_baseu-2.8.so.0:_ZN22wxMimeTypesManagerImpl10LoadKDEAppERK8wxString
libwx_baseu-2.8.so.0:_ZN22wxMimeTypesManagerImpl11AddFallbackERK14wxFileTypeInfo
libwx_baseu-2.8.so.0:_ZN22wxMimeTypesManagerImpl11GetMimeInfoERK8wxString
libwx_baseu-2.8.so.0:_ZN22wxMimeTypesManagerImpl11ReadMailcapERK8wxStringb
libwx_baseu-2.8.so.0:_ZN22wxMimeTypesManagerImpl11UnassociateEP10wxFileType
libwx_baseu-2.8.so.0:_ZN22wxMimeTypesManagerImpl12InitIfNeededEv
libwx_baseu-2.8.so.0:_ZN22wxMimeTypesManagerImpl13AddToMimeDataERK8wxStringS2_P18wxMimeTypeCommandsRK13wxArrayStringS2_b
libwx_baseu-2.8.so.0:_ZN22wxMimeTypesManagerImpl13DoAssociationERK8wxStringS2_P18wxMimeTypeCommandsRK13wxArrayStringS2_
libwx_baseu-2.8.so.0:_ZN22wxMimeTypesManagerImpl13ReadMimeTypesERK8wxString
libwx_baseu-2.8.so.0:_ZN22wxMimeTypesManagerImpl13WriteMimeInfoEib
libwx_baseu-2.8.so.0:_ZN22wxMimeTypesManagerImpl14AddMailcapInfoERK8wxStringS2_S2_S2_S2_
libwx_baseu-2.8.so.0:_ZN22wxMimeTypesManagerImpl14GetKDEMimeInfoERK8wxString
libwx_baseu-2.8.so.0:_ZN22wxMimeTypesManagerImpl14WriteToMailCapEib
libwx_baseu-2.8.so.0:_ZN22wxMimeTypesManagerImpl15AddMimeTypeInfoERK8wxStringS2_S2_
libwx_baseu-2.8.so.0:_ZN22wxMimeTypesManagerImpl16EnumAllFileTypesER13wxArrayString
libwx_baseu-2.8.so.0:_ZN22wxMimeTypesManagerImpl16GetGnomeMimeInfoERK8wxString
libwx_baseu-2.8.so.0:_ZN22wxMimeTypesManagerImpl16WriteKDEMimeFileEib
libwx_baseu-2.8.so.0:_ZN22wxMimeTypesManagerImpl16WriteToMimeTypesEib
libwx_baseu-2.8.so.0:_ZN22wxMimeTypesManagerImpl17CheckKDEDirsExistERK8wxStringS2_
libwx_baseu-2.8.so.0:_ZN22wxMimeTypesManagerImpl18WriteToNSMimeTypesEib
libwx_baseu-2.8.so.0:_ZN22wxMimeTypesManagerImpl23GetFileTypeFromMimeTypeERK8wxString
libwx_baseu-2.8.so.0:_ZN22wxMimeTypesManagerImpl23LoadKDEAppsFilesFromDirERK8wxString
libwx_baseu-2.8.so.0:_ZN22wxMimeTypesManagerImpl23LoadKDELinkFilesFromDirERK8wxStringRK13wxArrayString
libwx_baseu-2.8.so.0:_ZN22wxMimeTypesManagerImpl23LoadKDELinksForMimeTypeERK8wxStringS2_RK13wxArrayString
libwx_baseu-2.8.so.0:_ZN22wxMimeTypesManagerImpl24GetFileTypeFromExtensionERK8wxString
libwx_baseu-2.8.so.0:_ZN22wxMimeTypesManagerImpl24LoadGnomeDataFromKeyFileERK8wxStringRK13wxArrayString
libwx_baseu-2.8.so.0:_ZN22wxMimeTypesManagerImpl24ProcessOtherMailcapFieldER15MailcapLineDataRK8wxString
libwx_baseu-2.8.so.0:_ZN22wxMimeTypesManagerImpl25LoadGnomeMimeFilesFromDirERK8wxStringRK13wxArrayString
libwx_baseu-2.8.so.0:_ZN22wxMimeTypesManagerImpl26LoadKDELinksForMimeSubtypeERK8wxStringS2_S2_RK13wxArrayString
libwx_baseu-2.8.so.0:_ZN22wxMimeTypesManagerImpl30LoadGnomeMimeTypesFromMimeFileERK8wxString
libwx_baseu-2.8.so.0:_ZN22wxMimeTypesManagerImpl9AssociateERK14wxFileTypeInfo
libwx_baseu-2.8.so.0:_ZN22wxMimeTypesManagerImpl9ClearDataEv
libwx_baseu-2.8.so.0:_ZN22wxMimeTypesManagerImplC1Ev
libwx_baseu-2.8.so.0:_ZN22wxMimeTypesManagerImplC2Ev
libwx_baseu-2.8.so.0:_ZN22wxMimeTypesManagerImplD0Ev
libwx_baseu-2.8.so.0:_ZN22wxMimeTypesManagerImplD1Ev
libwx_baseu-2.8.so.0:_ZN22wxMimeTypesManagerImplD2Ev
libwx_baseu-2.8.so.0:_ZN22wxTempFileOutputStream10OnSysWriteEPKvm
libwx_baseu-2.8.so.0:_ZN22wxTempFileOutputStreamC1ERK8wxString
libwx_baseu-2.8.so.0:_ZN22wxTempFileOutputStreamC2ERK8wxString
libwx_baseu-2.8.so.0:_ZN22wxTempFileOutputStreamD0Ev
libwx_baseu-2.8.so.0:_ZN22wxTempFileOutputStreamD1Ev
libwx_baseu-2.8.so.0:_ZN22wxTempFileOutputStreamD2Ev
libwx_baseu-2.8.so.0:_ZN23wxPluralFormsCalculator4initEiP17wxPluralFormsNode
libwx_baseu-2.8.so.0:_ZN23wxPluralFormsCalculator4makeEPKc
libwx_baseu-2.8.so.0:_ZN23wxSingleInstanceChecker6CreateERK8wxStringS2_
libwx_baseu-2.8.so.0:_ZN23wxSingleInstanceCheckerD1Ev
libwx_baseu-2.8.so.0:_ZN23wxSingleInstanceCheckerD2Ev
libwx_baseu-2.8.so.0:_ZN24wxArchiveFSCacheDataImpl10AddToCacheEP14wxArchiveEntry
libwx_baseu-2.8.so.0:_ZN24wxArchiveFSCacheDataImpl12CloseStreamsEv
libwx_baseu-2.8.so.0:_ZN24wxArchiveFSCacheDataImpl3GetERK8wxString
libwx_baseu-2.8.so.0:_ZN24wxArchiveFSCacheDataImpl7GetNextEP16wxArchiveFSEntry
libwx_baseu-2.8.so.0:_ZN24wxArchiveFSCacheDataImplC1ERK21wxArchiveClassFactoryP13wxInputStream
libwx_baseu-2.8.so.0:_ZN24wxArchiveFSCacheDataImplC1ERK21wxArchiveClassFactoryRK13wxBackingFile
libwx_baseu-2.8.so.0:_ZN24wxArchiveFSCacheDataImplC2ERK21wxArchiveClassFactoryP13wxInputStream
libwx_baseu-2.8.so.0:_ZN24wxArchiveFSCacheDataImplC2ERK21wxArchiveClassFactoryRK13wxBackingFile
libwx_baseu-2.8.so.0:_ZN24wxArchiveFSCacheDataImplD1Ev
libwx_baseu-2.8.so.0:_ZN24wxArchiveFSCacheDataImplD2Ev
libwx_baseu-2.8.so.0:_ZN24wxDateTimeHolidaysModule14wxCreateObjectEv
libwx_baseu-2.8.so.0:_ZN24wxVariantDataArrayString14wxCreateObjectEv
libwx_baseu-2.8.so.0:_ZN24wxVariantDataArrayString4ReadER8wxString
libwx_baseu-2.8.so.0:_ZN24wxVariantDataArrayString4ReadERSi
libwx_baseu-2.8.so.0:_ZN24wxVariantDataWxObjectPtr14wxCreateObjectEv
libwx_baseu-2.8.so.0:_ZN24wxVariantDataWxObjectPtr17GetValueClassInfoEv
libwx_baseu-2.8.so.0:_ZN24wxVariantDataWxObjectPtr4ReadER8wxString
libwx_baseu-2.8.so.0:_ZN24wxVariantDataWxObjectPtr4ReadERSi
libwx_baseu-2.8.so.0:_ZN25wxMimeTypesManagerFactory26CreateMimeTypesManagerImplEv
libwx_baseu-2.8.so.0:_ZN25wxMimeTypesManagerFactory3GetEv
libwx_baseu-2.8.so.0:_ZN25wxMimeTypesManagerFactory3SetEPS_
libwx_baseu-2.8.so.0:_ZN26wxDateTimeHolidayAuthority12AddAuthorityEPS_
libwx_baseu-2.8.so.0:_ZN26wxDateTimeHolidayAuthority18GetHolidaysInRangeERK10wxDateTimeS2_R15wxDateTimeArray
libwx_baseu-2.8.so.0:_ZN26wxDateTimeHolidayAuthority19ClearAllAuthoritiesEv
libwx_baseu-2.8.so.0:_ZN26wxDateTimeHolidayAuthority9IsHolidayERK10wxDateTime
libwx_baseu-2.8.so.0:_ZN26wxDateTimeHolidayAuthorityD0Ev
libwx_baseu-2.8.so.0:_ZN26wxDateTimeHolidayAuthorityD1Ev
libwx_baseu-2.8.so.0:_ZN26wxDateTimeHolidayAuthorityD2Ev
libwx_baseu-2.8.so.0:_ZN26wxPluralFormsCalculatorPtrD1Ev
libwx_baseu-2.8.so.0:_ZN26wxPluralFormsCalculatorPtrD2Ev
libwx_baseu-2.8.so.0:_ZN27wxSingleInstanceCheckerImpl14CreateLockFileEv
libwx_baseu-2.8.so.0:_ZN27wxSingleInstanceCheckerImpl6CreateERK8wxString
libwx_baseu-2.8.so.0:_ZN27wxSingleInstanceCheckerImpl6UnlockEv
libwx_baseu-2.8.so.0:_ZN28wxDynamicLibraryDetailsArray3AddERK23wxDynamicLibraryDetailsm
libwx_baseu-2.8.so.0:_ZN28wxDynamicLibraryDetailsArray6DoCopyERKS_
libwx_baseu-2.8.so.0:_ZN28wxDynamicLibraryDetailsArray6InsertERK23wxDynamicLibraryDetailsmm
libwx_baseu-2.8.so.0:_ZN28wxDynamicLibraryDetailsArray7DoEmptyEv
libwx_baseu-2.8.so.0:_ZN28wxDynamicLibraryDetailsArray8RemoveAtEmm
libwx_baseu-2.8.so.0:_ZN28wxDynamicLibraryDetailsArrayC1ERKS_
libwx_baseu-2.8.so.0:_ZN28wxDynamicLibraryDetailsArrayC2ERKS_
libwx_baseu-2.8.so.0:_ZN28wxDynamicLibraryDetailsArrayD1Ev
libwx_baseu-2.8.so.0:_ZN28wxDynamicLibraryDetailsArrayD2Ev
libwx_baseu-2.8.so.0:_ZN28wxDynamicLibraryDetailsArrayaSERKS_
libwx_baseu-2.8.so.0:_ZN5wxDir10HasSubDirsERK8wxString
libwx_baseu-2.8.so.0:_ZN5wxDir11GetAllFilesERK8wxStringP13wxArrayStringS2_i
libwx_baseu-2.8.so.0:_ZN5wxDir12GetTotalSizeERK8wxStringP13wxArrayString
libwx_baseu-2.8.so.0:_ZN5wxDir4OpenERK8wxString
libwx_baseu-2.8.so.0:_ZN5wxDir6ExistsERK8wxString
libwx_baseu-2.8.so.0:_ZN5wxDir8HasFilesERK8wxString
libwx_baseu-2.8.so.0:_ZN5wxDir9FindFirstERK8wxStringS2_i
libwx_baseu-2.8.so.0:_ZN5wxDirC1ERK8wxString
libwx_baseu-2.8.so.0:_ZN5wxDirC2ERK8wxString
libwx_baseu-2.8.so.0:_ZN5wxDirD1Ev
libwx_baseu-2.8.so.0:_ZN5wxDirD2Ev
libwx_baseu-2.8.so.0:_ZN5wxLog11DoLogStringEPKwl
libwx_baseu-2.8.so.0:_ZN5wxLog12SetLogBufferEPwm
libwx_baseu-2.8.so.0:_ZN5wxLog15ClearTraceMasksEv
libwx_baseu-2.8.so.0:_ZN5wxLog15GetActiveTargetEv
libwx_baseu-2.8.so.0:_ZN5wxLog15RemoveTraceMaskERK8wxString
libwx_baseu-2.8.so.0:_ZN5wxLog15SetActiveTargetEPS_
libwx_baseu-2.8.so.0:_ZN5wxLog16DoCreateOnDemandEv
libwx_baseu-2.8.so.0:_ZN5wxLog18DontCreateOnDemandEv
libwx_baseu-2.8.so.0:_ZN5wxLog18IsAllowedTraceMaskEPKw
libwx_baseu-2.8.so.0:_ZN5wxLog20DoLogNumberOfRepeatsEv
libwx_baseu-2.8.so.0:_ZN5wxLog21LogLastRepeatIfNeededEv
libwx_baseu-2.8.so.0:_ZN5wxLog29LogLastRepeatIfNeededUnlockedEv
libwx_baseu-2.8.so.0:_ZN5wxLog5DoLogEmPKwl
libwx_baseu-2.8.so.0:_ZN5wxLog5FlushEv
libwx_baseu-2.8.so.0:_ZN5wxLog5OnLogEmPKwl
libwx_baseu-2.8.so.0:_ZN5wxLog9TimeStampEP8wxString
libwx_baseu-2.8.so.0:_ZN5wxLogD0Ev
libwx_baseu-2.8.so.0:_ZN5wxLogD1Ev
libwx_baseu-2.8.so.0:_ZN5wxLogD2Ev
libwx_baseu-2.8.so.0:_ZN5wxURI10IsGenDelimERKw
libwx_baseu-2.8.so.0:_ZN5wxURI10IsReservedERKw
libwx_baseu-2.8.so.0:_ZN5wxURI10IsSubDelimERKw
libwx_baseu-2.8.so.0:_ZN5wxURI10ParseQueryEPKw
libwx_baseu-2.8.so.0:_ZN5wxURI11ParseSchemeEPKw
libwx_baseu-2.8.so.0:_ZN5wxURI11ParseServerEPKw
libwx_baseu-2.8.so.0:_ZN5wxURI12IsUnreservedERKw
libwx_baseu-2.8.so.0:_ZN5wxURI13ParseFragmentEPKw
libwx_baseu-2.8.so.0:_ZN5wxURI13ParseUserInfoEPKw
libwx_baseu-2.8.so.0:_ZN5wxURI14ParseAuthorityEPKw
libwx_baseu-2.8.so.0:_ZN5wxURI14ParseIPvFutureERPKw
libwx_baseu-2.8.so.0:_ZN5wxURI15TranslateEscapeEPKw
libwx_baseu-2.8.so.0:_ZN5wxURI16ParseIPv4addressERPKw
libwx_baseu-2.8.so.0:_ZN5wxURI16ParseIPv6addressERPKw
libwx_baseu-2.8.so.0:_ZN5wxURI5ClearEv
libwx_baseu-2.8.so.0:_ZN5wxURI5IsHexERKw
libwx_baseu-2.8.so.0:_ZN5wxURI5ParseEPKw
libwx_baseu-2.8.so.0:_ZN5wxURI6AssignERKS_
libwx_baseu-2.8.so.0:_ZN5wxURI6CreateERK8wxString
libwx_baseu-2.8.so.0:_ZN5wxURI6EscapeER8wxStringRKw
libwx_baseu-2.8.so.0:_ZN5wxURI6UpTreeEPKwRS1_
libwx_baseu-2.8.so.0:_ZN5wxURI7IsAlphaERKw
libwx_baseu-2.8.so.0:_ZN5wxURI7IsDigitERKw
libwx_baseu-2.8.so.0:_ZN5wxURI7ResolveERKS_i
libwx_baseu-2.8.so.0:_ZN5wxURI8IsEscapeERPKw
libwx_baseu-2.8.so.0:_ZN5wxURI8ParseH16ERPKw
libwx_baseu-2.8.so.0:_ZN5wxURI8UnescapeERK8wxString
libwx_baseu-2.8.so.0:_ZN5wxURI9CharToHexERKw
libwx_baseu-2.8.so.0:_ZN5wxURI9NormalizeEPwb
libwx_baseu-2.8.so.0:_ZN5wxURI9ParsePathEPKwbb
libwx_baseu-2.8.so.0:_ZN5wxURI9ParsePortEPKw
libwx_baseu-2.8.so.0:_ZN5wxURIC1ERK8wxString
libwx_baseu-2.8.so.0:_ZN5wxURIC1ERKS_
libwx_baseu-2.8.so.0:_ZN5wxURIC1Ev
libwx_baseu-2.8.so.0:_ZN5wxURIC2ERK8wxString
libwx_baseu-2.8.so.0:_ZN5wxURIC2ERKS_
libwx_baseu-2.8.so.0:_ZN5wxURIC2Ev
libwx_baseu-2.8.so.0:_ZN5wxURID0Ev
libwx_baseu-2.8.so.0:_ZN5wxURID1Ev
libwx_baseu-2.8.so.0:_ZN5wxURID2Ev
libwx_baseu-2.8.so.0:_ZN5wxURIaSERK8wxString
libwx_baseu-2.8.so.0:_ZN5wxURIaSERKS_
libwx_baseu-2.8.so.0:_ZN6wxFile4OpenEPKwNS_8OpenModeEi
libwx_baseu-2.8.so.0:_ZN6wxFile4ReadEPvm
libwx_baseu-2.8.so.0:_ZN6wxFile4SeekEl10wxSeekMode
libwx_baseu-2.8.so.0:_ZN6wxFile5CloseEv
libwx_baseu-2.8.so.0:_ZN6wxFile5FlushEv
libwx_baseu-2.8.so.0:_ZN6wxFile5WriteEPKvm
libwx_baseu-2.8.so.0:_ZN6wxFile6AccessEPKwNS_8OpenModeE
libwx_baseu-2.8.so.0:_ZN6wxFile6CreateEPKwbi
libwx_baseu-2.8.so.0:_ZN6wxFile6ExistsEPKw
libwx_baseu-2.8.so.0:_ZN6wxFileC1EPKwNS_8OpenModeE
libwx_baseu-2.8.so.0:_ZN6wxFileC2EPKwNS_8OpenModeE
libwx_baseu-2.8.so.0:_ZN6wxList14wxCreateObjectEv
libwx_baseu-2.8.so.0:_ZN6wxListC1Ei
libwx_baseu-2.8.so.0:_ZN6wxListC2Ei
libwx_baseu-2.8.so.0:_ZN7wxEventC1ERKS_
libwx_baseu-2.8.so.0:_ZN7wxEventC1Eii
libwx_baseu-2.8.so.0:_ZN7wxEventC2ERKS_
libwx_baseu-2.8.so.0:_ZN7wxEventC2Eii
libwx_baseu-2.8.so.0:_ZN7wxFFile4OpenEPKwS1_
libwx_baseu-2.8.so.0:_ZN7wxFFile4ReadEPvm
libwx_baseu-2.8.so.0:_ZN7wxFFile4SeekEl10wxSeekMode
libwx_baseu-2.8.so.0:_ZN7wxFFile5CloseEv
libwx_baseu-2.8.so.0:_ZN7wxFFile5FlushEv
libwx_baseu-2.8.so.0:_ZN7wxFFile5WriteEPKvm
libwx_baseu-2.8.so.0:_ZN7wxFFile7ReadAllEP8wxStringRK8wxMBConv
libwx_baseu-2.8.so.0:_ZN7wxFFileC1EPKwS1_
libwx_baseu-2.8.so.0:_ZN7wxFFileC2EPKwS1_
libwx_baseu-2.8.so.0:_ZN7wxMutex4LockEv
libwx_baseu-2.8.so.0:_ZN7wxMutex6UnlockEv
libwx_baseu-2.8.so.0:_ZN7wxMutex7TryLockEv
libwx_baseu-2.8.so.0:_ZN7wxMutexC1E11wxMutexType
libwx_baseu-2.8.so.0:_ZN7wxMutexC2E11wxMutexType
libwx_baseu-2.8.so.0:_ZN7wxMutexD1Ev
libwx_baseu-2.8.so.0:_ZN7wxMutexD2Ev
libwx_baseu-2.8.so.0:_ZN7wxRegEx4InitEv
libwx_baseu-2.8.so.0:_ZN7wxRegEx7CompileERK8wxStringi
libwx_baseu-2.8.so.0:_ZN7wxRegExD1Ev
libwx_baseu-2.8.so.0:_ZN7wxRegExD2Ev
libwx_baseu-2.8.so.0:_ZN8wxCSConv4InitEv
libwx_baseu-2.8.so.0:_ZN8wxCSConv5ClearEv
libwx_baseu-2.8.so.0:_ZN8wxCSConv7SetNameEPKw
libwx_baseu-2.8.so.0:_ZN8wxCSConvC1E14wxFontEncoding
libwx_baseu-2.8.so.0:_ZN8wxCSConvC1EPKw
libwx_baseu-2.8.so.0:_ZN8wxCSConvC1ERKS_
libwx_baseu-2.8.so.0:_ZN8wxCSConvC2E14wxFontEncoding
libwx_baseu-2.8.so.0:_ZN8wxCSConvC2EPKw
libwx_baseu-2.8.so.0:_ZN8wxCSConvC2ERKS_
libwx_baseu-2.8.so.0:_ZN8wxCSConvD0Ev
libwx_baseu-2.8.so.0:_ZN8wxCSConvD1Ev
libwx_baseu-2.8.so.0:_ZN8wxCSConvD2Ev
libwx_baseu-2.8.so.0:_ZN8wxCSConvaSERKS_
libwx_baseu-2.8.so.0:_ZN8wxLocale10AddCatalogEPKw
libwx_baseu-2.8.so.0:_ZN8wxLocale10AddCatalogEPKw10wxLanguageS1_
libwx_baseu-2.8.so.0:_ZN8wxLocale11AddLanguageERK14wxLanguageInfo
libwx_baseu-2.8.so.0:_ZN8wxLocale11IsAvailableEi
libwx_baseu-2.8.so.0:_ZN8wxLocale12DoCommonInitEv
libwx_baseu-2.8.so.0:_ZN8wxLocale15GetLanguageInfoEi
libwx_baseu-2.8.so.0:_ZN8wxLocale15GetLanguageNameEi
libwx_baseu-2.8.so.0:_ZN8wxLocale15InitLanguagesDBEv
libwx_baseu-2.8.so.0:_ZN8wxLocale16FindLanguageInfoERK8wxString
libwx_baseu-2.8.so.0:_ZN8wxLocale17CreateLanguagesDBEv
libwx_baseu-2.8.so.0:_ZN8wxLocale17GetSystemEncodingEv
libwx_baseu-2.8.so.0:_ZN8wxLocale17GetSystemLanguageEv
libwx_baseu-2.8.so.0:_ZN8wxLocale18DestroyLanguagesDBEv
libwx_baseu-2.8.so.0:_ZN8wxLocale21GetSystemEncodingNameEv
libwx_baseu-2.8.so.0:_ZN8wxLocale26AddCatalogLookupPathPrefixERK8wxString
libwx_baseu-2.8.so.0:_ZN8wxLocale4InitEPKwS1_S1_bb
libwx_baseu-2.8.so.0:_ZN8wxLocale4InitEii
libwx_baseu-2.8.so.0:_ZN8wxLocale7GetInfoE12wxLocaleInfo16wxLocaleCategory
libwx_baseu-2.8.so.0:_ZN8wxLocaleD0Ev
libwx_baseu-2.8.so.0:_ZN8wxLocaleD1Ev
libwx_baseu-2.8.so.0:_ZN8wxLocaleD2Ev
libwx_baseu-2.8.so.0:_ZN8wxMBConvD0Ev
libwx_baseu-2.8.so.0:_ZN8wxMBConvD1Ev
libwx_baseu-2.8.so.0:_ZN8wxMBConvD2Ev
libwx_baseu-2.8.so.0:_ZN8wxModule14RegisterModuleEPS_
libwx_baseu-2.8.so.0:_ZN8wxModule15RegisterModulesEv
libwx_baseu-2.8.so.0:_ZN8wxModule16DoCleanUpModulesERK12wxModuleList
libwx_baseu-2.8.so.0:_ZN8wxModule16UnregisterModuleEPS_
libwx_baseu-2.8.so.0:_ZN8wxModule17InitializeModulesEv
libwx_baseu-2.8.so.0:_ZN8wxModule18DoInitializeModuleEPS_R12wxModuleList
libwx_baseu-2.8.so.0:_ZN8wxObject14AllocExclusiveEv
libwx_baseu-2.8.so.0:_ZN8wxObject3RefERKS_
libwx_baseu-2.8.so.0:_ZN8wxObject5UnRefEv
libwx_baseu-2.8.so.0:_ZN8wxString11GetWriteBufEm
libwx_baseu-2.8.so.0:_ZN8wxString13UngetWriteBufEm
libwx_baseu-2.8.so.0:_ZN8wxString13UngetWriteBufEv
libwx_baseu-2.8.so.0:_ZN8wxString3PadEmwb
libwx_baseu-2.8.so.0:_ZN8wxString4TrimEb
libwx_baseu-2.8.so.0:_ZN8wxString6FormatEPKwz
libwx_baseu-2.8.so.0:_ZN8wxString6PrintfEPKwz
libwx_baseu-2.8.so.0:_ZN8wxString6ShrinkEv
libwx_baseu-2.8.so.0:_ZN8wxString7FormatVEPKwP13__va_list_tag
libwx_baseu-2.8.so.0:_ZN8wxString7PrintfVEPKwP13__va_list_tag
libwx_baseu-2.8.so.0:_ZN8wxString7ReplaceEPKwS1_b
libwx_baseu-2.8.so.0:_ZN8wxString7sprintfEPKwz
libwx_baseu-2.8.so.0:_ZN8wxString8TruncateEm
libwx_baseu-2.8.so.0:_ZN8wxString9FromAsciiEPKc
libwx_baseu-2.8.so.0:_ZN8wxString9FromAsciiEc
libwx_baseu-2.8.so.0:_ZN8wxString9MakeLowerEv
libwx_baseu-2.8.so.0:_ZN8wxString9MakeUpperEv
libwx_baseu-2.8.so.0:_ZN8wxStringC1EPKcRK8wxMBConvm
libwx_baseu-2.8.so.0:_ZN8wxStringC2EPKcRK8wxMBConvm
libwx_baseu-2.8.so.0:_ZN8wxThread11GetCPUCountEv
libwx_baseu-2.8.so.0:_ZN8wxThread11SetPriorityEj
libwx_baseu-2.8.so.0:_ZN8wxThread11TestDestroyEv
libwx_baseu-2.8.so.0:_ZN8wxThread12GetCurrentIdEv
libwx_baseu-2.8.so.0:_ZN8wxThread14SetConcurrencyEm
libwx_baseu-2.8.so.0:_ZN8wxThread3RunEv
libwx_baseu-2.8.so.0:_ZN8wxThread4ExitEPv
libwx_baseu-2.8.so.0:_ZN8wxThread4KillEv
libwx_baseu-2.8.so.0:_ZN8wxThread4ThisEv
libwx_baseu-2.8.so.0:_ZN8wxThread4WaitEv
libwx_baseu-2.8.so.0:_ZN8wxThread5PauseEv
libwx_baseu-2.8.so.0:_ZN8wxThread5SleepEm
libwx_baseu-2.8.so.0:_ZN8wxThread5YieldEv
libwx_baseu-2.8.so.0:_ZN8wxThread6CreateEj
libwx_baseu-2.8.so.0:_ZN8wxThread6DeleteEPPv
libwx_baseu-2.8.so.0:_ZN8wxThread6IsMainEv
libwx_baseu-2.8.so.0:_ZN8wxThread6ResumeEv
libwx_baseu-2.8.so.0:_ZN8wxThreadC1E12wxThreadKind
libwx_baseu-2.8.so.0:_ZN8wxThreadC2E12wxThreadKind
libwx_baseu-2.8.so.0:_ZN8wxThreadD0Ev
libwx_baseu-2.8.so.0:_ZN8wxThreadD1Ev
libwx_baseu-2.8.so.0:_ZN8wxThreadD2Ev
libwx_baseu-2.8.so.0:_ZN9wxDirData4ReadEP8wxString
libwx_baseu-2.8.so.0:_ZN9wxDirDataC1ERK8wxString
libwx_baseu-2.8.so.0:_ZN9wxDirDataC2ERK8wxString
libwx_baseu-2.8.so.0:_ZN9wxDirDataD1Ev
libwx_baseu-2.8.so.0:_ZN9wxDirDataD2Ev
libwx_baseu-2.8.so.0:_ZN9wxProcess11OnTerminateEii
libwx_baseu-2.8.so.0:_ZN9wxProcess14SetPipeStreamsEP13wxInputStreamP14wxOutputStreamS1_
libwx_baseu-2.8.so.0:_ZN9wxProcess14wxCreateObjectEv
libwx_baseu-2.8.so.0:_ZN9wxProcess4InitEP12wxEvtHandlerii
libwx_baseu-2.8.so.0:_ZN9wxProcess4KillEi8wxSignali
libwx_baseu-2.8.so.0:_ZN9wxProcess4OpenERK8wxStringi
libwx_baseu-2.8.so.0:_ZN9wxProcess6DetachEv
libwx_baseu-2.8.so.0:_ZN9wxProcess6ExistsEi
libwx_baseu-2.8.so.0:_ZN9wxProcessD0Ev
libwx_baseu-2.8.so.0:_ZN9wxProcessD1Ev
libwx_baseu-2.8.so.0:_ZN9wxProcessD2Ev
libwx_baseu-2.8.so.0:_ZN9wxTarUserC1Ev
libwx_baseu-2.8.so.0:_ZN9wxTarUserC2Ev
libwx_baseu-2.8.so.0:_ZN9wxVariant14wxCreateObjectEv
libwx_baseu-2.8.so.0:_ZN9wxVariant3RefERKS_
libwx_baseu-2.8.so.0:_ZN9wxVariant5ClearEv
libwx_baseu-2.8.so.0:_ZN9wxVariant5UnRefEv
libwx_baseu-2.8.so.0:_ZN9wxVariant6AppendERKS_
libwx_baseu-2.8.so.0:_ZN9wxVariant6DeleteEm
libwx_baseu-2.8.so.0:_ZN9wxVariant6InsertERKS_
libwx_baseu-2.8.so.0:_ZN9wxVariant7SetDataEP13wxVariantData
libwx_baseu-2.8.so.0:_ZN9wxVariant8MakeNullEv
libwx_baseu-2.8.so.0:_ZN9wxVariant8NullListEv
libwx_baseu-2.8.so.0:_ZN9wxVariant9ClearListEv
libwx_baseu-2.8.so.0:_ZN9wxVariantC1EP13wxVariantDataRK8wxString
libwx_baseu-2.8.so.0:_ZN9wxVariantC1EP8wxObjectRK8wxString
libwx_baseu-2.8.so.0:_ZN9wxVariantC1EPKwRK8wxString
libwx_baseu-2.8.so.0:_ZN9wxVariantC1EPvRK8wxString
libwx_baseu-2.8.so.0:_ZN9wxVariantC1ERK10wxDateTimeRK8wxString
libwx_baseu-2.8.so.0:_ZN9wxVariantC1ERK13wxArrayStringRK8wxString
libwx_baseu-2.8.so.0:_ZN9wxVariantC1ERK6wxListRK8wxString
libwx_baseu-2.8.so.0:_ZN9wxVariantC1ERK8wxStringS2_
libwx_baseu-2.8.so.0:_ZN9wxVariantC1ERKS_
libwx_baseu-2.8.so.0:_ZN9wxVariantC1EbRK8wxString
libwx_baseu-2.8.so.0:_ZN9wxVariantC1EdRK8wxString
libwx_baseu-2.8.so.0:_ZN9wxVariantC1EiRK8wxString
libwx_baseu-2.8.so.0:_ZN9wxVariantC1ElRK8wxString
libwx_baseu-2.8.so.0:_ZN9wxVariantC1EsRK8wxString
libwx_baseu-2.8.so.0:_ZN9wxVariantC1Ev
libwx_baseu-2.8.so.0:_ZN9wxVariantC1EwRK8wxString
libwx_baseu-2.8.so.0:_ZN9wxVariantC2EP13wxVariantDataRK8wxString
libwx_baseu-2.8.so.0:_ZN9wxVariantC2EP8wxObjectRK8wxString
libwx_baseu-2.8.so.0:_ZN9wxVariantC2EPKwRK8wxString
libwx_baseu-2.8.so.0:_ZN9wxVariantC2EPvRK8wxString
libwx_baseu-2.8.so.0:_ZN9wxVariantC2ERK10wxDateTimeRK8wxString
libwx_baseu-2.8.so.0:_ZN9wxVariantC2ERK13wxArrayStringRK8wxString
libwx_baseu-2.8.so.0:_ZN9wxVariantC2ERK6wxListRK8wxString
libwx_baseu-2.8.so.0:_ZN9wxVariantC2ERK8wxStringS2_
libwx_baseu-2.8.so.0:_ZN9wxVariantC2ERKS_
libwx_baseu-2.8.so.0:_ZN9wxVariantC2EbRK8wxString
libwx_baseu-2.8.so.0:_ZN9wxVariantC2EdRK8wxString
libwx_baseu-2.8.so.0:_ZN9wxVariantC2EiRK8wxString
libwx_baseu-2.8.so.0:_ZN9wxVariantC2ElRK8wxString
libwx_baseu-2.8.so.0:_ZN9wxVariantC2EsRK8wxString
libwx_baseu-2.8.so.0:_ZN9wxVariantC2Ev
libwx_baseu-2.8.so.0:_ZN9wxVariantC2EwRK8wxString
libwx_baseu-2.8.so.0:_ZN9wxVariantD0Ev
libwx_baseu-2.8.so.0:_ZN9wxVariantD1Ev
libwx_baseu-2.8.so.0:_ZN9wxVariantD2Ev
libwx_baseu-2.8.so.0:_ZN9wxVariantaSEP13wxVariantData
libwx_baseu-2.8.so.0:_ZN9wxVariantaSEP8wxObject
libwx_baseu-2.8.so.0:_ZN9wxVariantaSEPKw
libwx_baseu-2.8.so.0:_ZN9wxVariantaSEPv
libwx_baseu-2.8.so.0:_ZN9wxVariantaSERK10wxDateTime
libwx_baseu-2.8.so.0:_ZN9wxVariantaSERK13wxArrayString
libwx_baseu-2.8.so.0:_ZN9wxVariantaSERK6wxList
libwx_baseu-2.8.so.0:_ZN9wxVariantaSERK8wxString
libwx_baseu-2.8.so.0:_ZN9wxVariantaSERKS_
libwx_baseu-2.8.so.0:_ZN9wxVariantaSEb
libwx_baseu-2.8.so.0:_ZN9wxVariantaSEd
libwx_baseu-2.8.so.0:_ZN9wxVariantaSEl
libwx_baseu-2.8.so.0:_ZN9wxVariantaSEw
libwx_baseu-2.8.so.0:_ZN9wxVariantixEm
libwx_baseu-2.8.so.0:_ZNK10wxConvAuto7SkipBOMEPPKcPm
libwx_baseu-2.8.so.0:_ZNK10wxConvAuto7ToWCharEPwmPKcm
libwx_baseu-2.8.so.0:_ZNK10wxConvAuto9FromWCharEPcmPKwm
libwx_baseu-2.8.so.0:_ZNK10wxDateTime10GetRataDieEv
libwx_baseu-2.8.so.0:_ZNK10wxDateTime11GetDateOnlyEv
libwx_baseu-2.8.so.0:_ZNK10wxDateTime12GetDayOfYearERKNS_8TimeZoneE
libwx_baseu-2.8.so.0:_ZNK10wxDateTime13GetWeekOfYearENS_9WeekFlagsERKNS_8TimeZoneE
libwx_baseu-2.8.so.0:_ZNK10wxDateTime14GetWeekOfMonthENS_9WeekFlagsERKNS_8TimeZoneE
libwx_baseu-2.8.so.0:_ZNK10wxDateTime18GetJulianDayNumberEv
libwx_baseu-2.8.so.0:_ZNK10wxDateTime2Tm7IsValidEv
libwx_baseu-2.8.so.0:_ZNK10wxDateTime5GetTmERKNS_8TimeZoneE
libwx_baseu-2.8.so.0:_ZNK10wxDateTime5IsDSTENS_7CountryE
libwx_baseu-2.8.so.0:_ZNK10wxDateTime6FormatEPKwRKNS_8TimeZoneE
libwx_baseu-2.8.so.0:_ZNK10wxDateTime7GetWeekEtNS_7WeekDayENS_9WeekFlagsE
libwx_baseu-2.8.so.0:_ZNK10wxDateTime8GetAsDOSEv
libwx_baseu-2.8.so.0:_ZNK10wxDateTime9IsWorkDayENS_7CountryE
libwx_baseu-2.8.so.0:_ZNK10wxFileName10FileExistsEv
libwx_baseu-2.8.so.0:_ZNK10wxFileName10IsAbsoluteE12wxPathFormat
libwx_baseu-2.8.so.0:_ZNK10wxFileName11GetFullNameEv
libwx_baseu-2.8.so.0:_ZNK10wxFileName11GetFullPathE12wxPathFormat
libwx_baseu-2.8.so.0:_ZNK10wxFileName11GetLongPathEv
libwx_baseu-2.8.so.0:_ZNK10wxFileName12GetShortPathEv
libwx_baseu-2.8.so.0:_ZNK10wxFileName20GetHumanReadableSizeERK8wxStringi
libwx_baseu-2.8.so.0:_ZNK10wxFileName6SameAsERKS_12wxPathFormat
libwx_baseu-2.8.so.0:_ZNK10wxFileName7GetPathEi12wxPathFormat
libwx_baseu-2.8.so.0:_ZNK10wxFileName7GetSizeEv
libwx_baseu-2.8.so.0:_ZNK10wxFileName8GetTimesEP10wxDateTimeS1_S1_
libwx_baseu-2.8.so.0:_ZNK10wxFileName9DirExistsEv
libwx_baseu-2.8.so.0:_ZNK10wxFileType11GetMimeTypeEP8wxString
libwx_baseu-2.8.so.0:_ZNK10wxFileType12GetMimeTypesER13wxArrayString
libwx_baseu-2.8.so.0:_ZNK10wxFileType14GetAllCommandsEP13wxArrayStringS1_RKNS_17MessageParametersE
libwx_baseu-2.8.so.0:_ZNK10wxFileType14GetDescriptionEP8wxString
libwx_baseu-2.8.so.0:_ZNK10wxFileType14GetOpenCommandEP8wxStringRKNS_17MessageParametersE
libwx_baseu-2.8.so.0:_ZNK10wxFileType14GetOpenCommandERK8wxString
libwx_baseu-2.8.so.0:_ZNK10wxFileType15GetPrintCommandEP8wxStringRKNS_17MessageParametersE
libwx_baseu-2.8.so.0:_ZNK10wxFileType7GetIconEP14wxIconLocation
libwx_baseu-2.8.so.0:_ZNK10wxFileType7GetIconEP14wxIconLocationRKNS_17MessageParametersE
libwx_baseu-2.8.so.0:_ZNK10wxListBase4FindEPKv
libwx_baseu-2.8.so.0:_ZNK10wxListBase4FindERK9wxListKey
libwx_baseu-2.8.so.0:_ZNK10wxListBase4ItemEm
libwx_baseu-2.8.so.0:_ZNK10wxListBase7IndexOfEPv
libwx_baseu-2.8.so.0:_ZNK10wxNodeBase7IndexOfEv
libwx_baseu-2.8.so.0:_ZNK10wxPathList13FindValidPathERK8wxString
libwx_baseu-2.8.so.0:_ZNK10wxPathList21FindAbsoluteValidPathERK8wxString
libwx_baseu-2.8.so.0:_ZNK10wxPathList6MemberERK8wxString
libwx_baseu-2.8.so.0:_ZNK10wxTarEntry12GetClassInfoEv
libwx_baseu-2.8.so.0:_ZNK10wxTarEntry5IsDirEv
libwx_baseu-2.8.so.0:_ZNK10wxTarEntry7GetModeEv
libwx_baseu-2.8.so.0:_ZNK10wxTarEntry7GetNameE12wxPathFormat
libwx_baseu-2.8.so.0:_ZNK10wxTextFile8OnExistsEv
libwx_baseu-2.8.so.0:_ZNK10wxTimeSpan6FormatEPKw
libwx_baseu-2.8.so.0:_ZNK10wxZipEntry10WriteLocalER14wxOutputStreamR8wxMBConv
libwx_baseu-2.8.so.0:_ZNK10wxZipEntry11GetExtraLenEv
libwx_baseu-2.8.so.0:_ZNK10wxZipEntry12GetClassInfoEv
libwx_baseu-2.8.so.0:_ZNK10wxZipEntry12WriteCentralER14wxOutputStreamR8wxMBConv
libwx_baseu-2.8.so.0:_ZNK10wxZipEntry13GetLocalExtraEv
libwx_baseu-2.8.so.0:_ZNK10wxZipEntry16GetLocalExtraLenEv
libwx_baseu-2.8.so.0:_ZNK10wxZipEntry7GetModeEv
libwx_baseu-2.8.so.0:_ZNK10wxZipEntry7GetNameE12wxPathFormat
libwx_baseu-2.8.so.0:_ZNK10wxZipEntry8GetExtraEv
libwx_baseu-2.8.so.0:_ZNK11wxCondition4IsOkEv
libwx_baseu-2.8.so.0:_ZNK11wxRegExImpl11GetErrorMsgEib
libwx_baseu-2.8.so.0:_ZNK11wxRegExImpl13GetMatchCountEv
libwx_baseu-2.8.so.0:_ZNK11wxRegExImpl7MatchesEPKwim
libwx_baseu-2.8.so.0:_ZNK11wxRegExImpl7ReplaceEP8wxStringRKS0_m
libwx_baseu-2.8.so.0:_ZNK11wxRegExImpl8GetMatchEPmS0_m
libwx_baseu-2.8.so.0:_ZNK11wxSemaphore4IsOkEv
libwx_baseu-2.8.so.0:_ZNK11wxStopWatch14GetElapsedTimeEv
libwx_baseu-2.8.so.0:_ZNK11wxStopWatch4TimeEv
libwx_baseu-2.8.so.0:_ZNK11wxZipEndRec5WriteER14wxOutputStreamR8wxMBConv
libwx_baseu-2.8.so.0:_ZNK12wxAppConsole11HandleEventEP12wxEvtHandlerMS0_FvR7wxEventES3_
libwx_baseu-2.8.so.0:_ZNK12wxClientBase12GetClassInfoEv
libwx_baseu-2.8.so.0:_ZNK12wxConfigBase10DoReadBoolERK8wxStringPb
libwx_baseu-2.8.so.0:_ZNK12wxConfigBase12DoReadDoubleERK8wxStringPd
libwx_baseu-2.8.so.0:_ZNK12wxConfigBase13ExpandEnvVarsERK8wxString
libwx_baseu-2.8.so.0:_ZNK12wxConfigBase4ReadERK8wxStringPS0_
libwx_baseu-2.8.so.0:_ZNK12wxConfigBase4ReadERK8wxStringPS0_S2_
libwx_baseu-2.8.so.0:_ZNK12wxConfigBase4ReadERK8wxStringPb
libwx_baseu-2.8.so.0:_ZNK12wxConfigBase4ReadERK8wxStringPbb
libwx_baseu-2.8.so.0:_ZNK12wxConfigBase4ReadERK8wxStringPd
libwx_baseu-2.8.so.0:_ZNK12wxConfigBase4ReadERK8wxStringPdd
libwx_baseu-2.8.so.0:_ZNK12wxConfigBase4ReadERK8wxStringPi
libwx_baseu-2.8.so.0:_ZNK12wxConfigBase4ReadERK8wxStringPii
libwx_baseu-2.8.so.0:_ZNK12wxConfigBase4ReadERK8wxStringPl
libwx_baseu-2.8.so.0:_ZNK12wxConfigBase4ReadERK8wxStringPll
libwx_baseu-2.8.so.0:_ZNK12wxConfigBase9DoReadIntERK8wxStringPi
libwx_baseu-2.8.so.0:_ZNK12wxEvtHandler12GetClassInfoEv
libwx_baseu-2.8.so.0:_ZNK12wxEvtHandler13GetEventTableEv
libwx_baseu-2.8.so.0:_ZNK12wxEvtHandler15DoGetClientDataEv
libwx_baseu-2.8.so.0:_ZNK12wxEvtHandler17DoGetClientObjectEv
libwx_baseu-2.8.so.0:_ZNK12wxEvtHandler17GetEventHashTableEv
libwx_baseu-2.8.so.0:_ZNK12wxFileConfig10DoReadLongERK8wxStringPl
libwx_baseu-2.8.so.0:_ZNK12wxFileConfig12DoReadStringERK8wxStringPS0_
libwx_baseu-2.8.so.0:_ZNK12wxFileConfig12GetNextEntryER8wxStringRl
libwx_baseu-2.8.so.0:_ZNK12wxFileConfig12GetNextGroupER8wxStringRl
libwx_baseu-2.8.so.0:_ZNK12wxFileConfig13GetFirstEntryER8wxStringRl
libwx_baseu-2.8.so.0:_ZNK12wxFileConfig13GetFirstGroupER8wxStringRl
libwx_baseu-2.8.so.0:_ZNK12wxFileConfig17GetNumberOfGroupsEb
libwx_baseu-2.8.so.0:_ZNK12wxFileConfig18GetNumberOfEntriesEb
libwx_baseu-2.8.so.0:_ZNK12wxFileConfig8HasEntryERK8wxString
libwx_baseu-2.8.so.0:_ZNK12wxFileConfig8HasGroupERK8wxString
libwx_baseu-2.8.so.0:_ZNK12wxFileSystem12GetClassInfoEv
libwx_baseu-2.8.so.0:_ZNK12wxMBConvLibc5MB2WCEPwPKcm
libwx_baseu-2.8.so.0:_ZNK12wxMBConvLibc5WC2MBEPcPKwm
libwx_baseu-2.8.so.0:_ZNK12wxMBConvUTF75MB2WCEPwPKcm
libwx_baseu-2.8.so.0:_ZNK12wxMBConvUTF75WC2MBEPcPKwm
libwx_baseu-2.8.so.0:_ZNK12wxMBConvUTF85MB2WCEPwPKcm
libwx_baseu-2.8.so.0:_ZNK12wxMBConvUTF85WC2MBEPcPKwm
libwx_baseu-2.8.so.0:_ZNK12wxMsgCatalog9GetStringEPKwm
libwx_baseu-2.8.so.0:_ZNK12wxServerBase12GetClassInfoEv
libwx_baseu-2.8.so.0:_ZNK12wxStreamBase7GetSizeEv
libwx_baseu-2.8.so.0:_ZNK12wxStreamBase9OnSysTellEv
libwx_baseu-2.8.so.0:_ZNK12wxStringBase12find_last_ofEPKwm
libwx_baseu-2.8.so.0:_ZNK12wxStringBase12find_last_ofEPKwmm
libwx_baseu-2.8.so.0:_ZNK12wxStringBase13find_first_ofEPKwm
libwx_baseu-2.8.so.0:_ZNK12wxStringBase13find_first_ofEPKwmm
libwx_baseu-2.8.so.0:_ZNK12wxStringBase16find_last_not_ofEPKwm
libwx_baseu-2.8.so.0:_ZNK12wxStringBase16find_last_not_ofEPKwmm
libwx_baseu-2.8.so.0:_ZNK12wxStringBase16find_last_not_ofEwm
libwx_baseu-2.8.so.0:_ZNK12wxStringBase17find_first_not_ofEPKwm
libwx_baseu-2.8.so.0:_ZNK12wxStringBase17find_first_not_ofEPKwmm
libwx_baseu-2.8.so.0:_ZNK12wxStringBase17find_first_not_ofEwm
libwx_baseu-2.8.so.0:_ZNK12wxStringBase4findEPKwmm
libwx_baseu-2.8.so.0:_ZNK12wxStringBase4findERKS_m
libwx_baseu-2.8.so.0:_ZNK12wxStringBase4findEwm
libwx_baseu-2.8.so.0:_ZNK12wxStringBase5rfindEPKwmm
libwx_baseu-2.8.so.0:_ZNK12wxStringBase5rfindERKS_m
libwx_baseu-2.8.so.0:_ZNK12wxStringBase5rfindEwm
libwx_baseu-2.8.so.0:_ZNK12wxStringBase6substrEmm
libwx_baseu-2.8.so.0:_ZNK12wxStringBase7compareEPKw
libwx_baseu-2.8.so.0:_ZNK12wxStringBase7compareERKS_
libwx_baseu-2.8.so.0:_ZNK12wxStringBase7compareEmmPKwm
libwx_baseu-2.8.so.0:_ZNK12wxStringBase7compareEmmRKS_
libwx_baseu-2.8.so.0:_ZNK12wxStringBase7compareEmmRKS_mm
libwx_baseu-2.8.so.0:_ZNK12wxStringBase9AllocCopyER8wxStringii
libwx_baseu-2.8.so.0:_ZNK12wxStringList11ListToArrayEb
libwx_baseu-2.8.so.0:_ZNK12wxStringList12GetClassInfoEv
libwx_baseu-2.8.so.0:_ZNK12wxStringList6MemberEPKw
libwx_baseu-2.8.so.0:_ZNK12wxTextBuffer6ExistsEv
libwx_baseu-2.8.so.0:_ZNK12wxTextBuffer9GuessTypeEv
libwx_baseu-2.8.so.0:_ZNK13wxArrayParams5IndexERK14wxCmdLineParamb
libwx_baseu-2.8.so.0:_ZNK13wxArrayString5IndexEPKwbb
libwx_baseu-2.8.so.0:_ZNK13wxArrayStringeqERKS_
libwx_baseu-2.8.so.0:_ZNK13wxInputStream3EofEv
libwx_baseu-2.8.so.0:_ZNK13wxInputStream5TellIEv
libwx_baseu-2.8.so.0:_ZNK13wxInputStream7CanReadEv
libwx_baseu-2.8.so.0:_ZNK13wxVariantData12GetClassInfoEv
libwx_baseu-2.8.so.0:_ZNK14wxArchiveEntry12GetClassInfoEv
libwx_baseu-2.8.so.0:_ZNK14wxArrayOptions5IndexERK15wxCmdLineOptionb
libwx_baseu-2.8.so.0:_ZNK14wxBaseArrayInt14IndexForInsertEiPFiPKvS1_E
libwx_baseu-2.8.so.0:_ZNK14wxBaseArrayInt5IndexEiPFiPKvS1_E
libwx_baseu-2.8.so.0:_ZNK14wxBaseArrayInt5IndexEib
libwx_baseu-2.8.so.0:_ZNK14wxFileTypeImpl12GetMimeTypesER13wxArrayString
libwx_baseu-2.8.so.0:_ZNK14wxFileTypeImpl14GetAllCommandsEP13wxArrayStringS1_RKN10wxFileType17MessageParametersE
libwx_baseu-2.8.so.0:_ZNK14wxFileTypeImpl18GetExpandedCommandERK8wxStringRKN10wxFileType17MessageParametersE
libwx_baseu-2.8.so.0:_ZNK14wxFileTypeImpl7GetIconEP14wxIconLocation
libwx_baseu-2.8.so.0:_ZNK14wxLocaleModule12GetClassInfoEv
libwx_baseu-2.8.so.0:_ZNK14wxMBConv_iconv11GetMBNulLenEv
libwx_baseu-2.8.so.0:_ZNK14wxMBConv_iconv5MB2WCEPwPKcm
libwx_baseu-2.8.so.0:_ZNK14wxMBConv_iconv5WC2MBEPcPKwm
libwx_baseu-2.8.so.0:_ZNK14wxOutputStream5TellOEv
libwx_baseu-2.8.so.0:_ZNK14wxPlatformInfoeqERKS_
libwx_baseu-2.8.so.0:_ZNK14wxProcessEvent12GetClassInfoEv
libwx_baseu-2.8.so.0:_ZNK14wxStreamBuffer14GetInputStreamEv
libwx_baseu-2.8.so.0:_ZNK14wxStreamBuffer15GetOutputStreamEv
libwx_baseu-2.8.so.0:_ZNK14wxStreamBuffer4TellEv
libwx_baseu-2.8.so.0:_ZNK14wxThreadModule12GetClassInfoEv
libwx_baseu-2.8.so.0:_ZNK14wxZipWeakLinks8GetEntryEl
libwx_baseu-2.8.so.0:_ZNK15wxBaseArrayChar14IndexForInsertEcPFiPKvS1_E
libwx_baseu-2.8.so.0:_ZNK15wxBaseArrayChar5IndexEcPFiPKvS1_E
libwx_baseu-2.8.so.0:_ZNK15wxBaseArrayChar5IndexEcb
libwx_baseu-2.8.so.0:_ZNK15wxBaseArrayLong14IndexForInsertElPFiPKvS1_E
libwx_baseu-2.8.so.0:_ZNK15wxBaseArrayLong5IndexElPFiPKvS1_E
libwx_baseu-2.8.so.0:_ZNK15wxBaseArrayLong5IndexElb
libwx_baseu-2.8.so.0:_ZNK15wxCmdLineParser13GetParamCountEv
libwx_baseu-2.8.so.0:_ZNK15wxCmdLineParser5FoundERK8wxString
libwx_baseu-2.8.so.0:_ZNK15wxCmdLineParser5FoundERK8wxStringP10wxDateTime
libwx_baseu-2.8.so.0:_ZNK15wxCmdLineParser5FoundERK8wxStringPS0_
libwx_baseu-2.8.so.0:_ZNK15wxCmdLineParser5FoundERK8wxStringPl
libwx_baseu-2.8.so.0:_ZNK15wxCmdLineParser8GetParamEm
libwx_baseu-2.8.so.0:_ZNK15wxDateTimeArray5IndexERK10wxDateTimeb
libwx_baseu-2.8.so.0:_ZNK15wxHashTableBase5DoGetEPKwl
libwx_baseu-2.8.so.0:_ZNK15wxHashTableBase5DoGetEll
libwx_baseu-2.8.so.0:_ZNK15wxMBConvUTF16BE7ToWCharEPwmPKcm
libwx_baseu-2.8.so.0:_ZNK15wxMBConvUTF16BE9FromWCharEPcmPKwm
libwx_baseu-2.8.so.0:_ZNK15wxMBConvUTF16LE7ToWCharEPwmPKcm
libwx_baseu-2.8.so.0:_ZNK15wxMBConvUTF16LE9FromWCharEPcmPKwm
libwx_baseu-2.8.so.0:_ZNK15wxMBConvUTF32BE7ToWCharEPwmPKcm
libwx_baseu-2.8.so.0:_ZNK15wxMBConvUTF32BE9FromWCharEPcmPKwm
libwx_baseu-2.8.so.0:_ZNK15wxMBConvUTF32LE7ToWCharEPwmPKcm
libwx_baseu-2.8.so.0:_ZNK15wxMBConvUTF32LE9FromWCharEPcmPKwm
libwx_baseu-2.8.so.0:_ZNK15wxStandardPaths10GetDataDirEv
libwx_baseu-2.8.so.0:_ZNK15wxStandardPaths12GetConfigDirEv
libwx_baseu-2.8.so.0:_ZNK15wxStandardPaths13GetPluginsDirEv
libwx_baseu-2.8.so.0:_ZNK15wxStandardPaths14GetUserDataDirEv
libwx_baseu-2.8.so.0:_ZNK15wxStandardPaths15GetLocalDataDirEv
libwx_baseu-2.8.so.0:_ZNK15wxStandardPaths16GetInstallPrefixEv
libwx_baseu-2.8.so.0:_ZNK15wxStandardPaths16GetUserConfigDirEv
libwx_baseu-2.8.so.0:_ZNK15wxStandardPaths17GetExecutablePathEv
libwx_baseu-2.8.so.0:_ZNK15wxStandardPaths24GetLocalizedResourcesDirEPKwN19wxStandardPathsBase11ResourceCatE
libwx_baseu-2.8.so.0:_ZNK16wxBaseArrayShort14IndexForInsertEsPFiPKvS1_E
libwx_baseu-2.8.so.0:_ZNK16wxBaseArrayShort5IndexEsPFiPKvS1_E
libwx_baseu-2.8.so.0:_ZNK16wxBaseArrayShort5IndexEsb
libwx_baseu-2.8.so.0:_ZNK16wxBaseArraySizeT14IndexForInsertEmPFiPKvS1_E
libwx_baseu-2.8.so.0:_ZNK16wxBaseArraySizeT5IndexEmPFiPKvS1_E
libwx_baseu-2.8.so.0:_ZNK16wxBaseArraySizeT5IndexEmb
libwx_baseu-2.8.so.0:_ZNK16wxConnectionBase12GetClassInfoEv
libwx_baseu-2.8.so.0:_ZNK16wxDynamicLibrary11DoGetSymbolERK8wxStringPb
libwx_baseu-2.8.so.0:_ZNK16wxDynamicLibrary9GetSymbolERK8wxStringPb
libwx_baseu-2.8.so.0:_ZNK16wxLongLongNative7asArrayEv
libwx_baseu-2.8.so.0:_ZNK16wxLongLongNative8ToStringEv
libwx_baseu-2.8.so.0:_ZNK16wxMsgCatalogFile8FillHashER14wxMessagesHashRK8wxStringb
libwx_baseu-2.8.so.0:_ZNK16wxTarHeaderBlock10IsAllZerosEv
libwx_baseu-2.8.so.0:_ZNK16wxTarInputStream13GetHeaderDateERK8wxString
libwx_baseu-2.8.so.0:_ZNK16wxTarInputStream13GetHeaderPathEv
libwx_baseu-2.8.so.0:_ZNK16wxTarInputStream15GetHeaderNumberEi
libwx_baseu-2.8.so.0:_ZNK16wxTarInputStream15GetHeaderStringEi
libwx_baseu-2.8.so.0:_ZNK16wxTarInputStream17GetExtendedHeaderERK8wxString
libwx_baseu-2.8.so.0:_ZNK17wxBackingFileImpl9GetLengthEv
libwx_baseu-2.8.so.0:_ZNK17wxBaseArrayDouble14IndexForInsertEdPFiPKvS1_E
libwx_baseu-2.8.so.0:_ZNK17wxBaseArrayDouble5IndexEdPFiPKvS1_E
libwx_baseu-2.8.so.0:_ZNK17wxBaseArrayDouble5IndexEdb
libwx_baseu-2.8.so.0:_ZNK17wxFileConfigGroup11GetFullNameEv
libwx_baseu-2.8.so.0:_ZNK17wxFileConfigGroup12FindSubgroupEPKw
libwx_baseu-2.8.so.0:_ZNK17wxFileConfigGroup9FindEntryEPKw
libwx_baseu-2.8.so.0:_ZNK17wxFileInputStream4IsOkEv
libwx_baseu-2.8.so.0:_ZNK17wxFileInputStream9GetLengthEv
libwx_baseu-2.8.so.0:_ZNK17wxFileInputStream9OnSysTellEv
libwx_baseu-2.8.so.0:_ZNK17wxPipeInputStream7CanReadEv
libwx_baseu-2.8.so.0:_ZNK17wxPluralFormsNode8evaluateEi
libwx_baseu-2.8.so.0:_ZNK17wxStringTokenizer11CountTokensEv
libwx_baseu-2.8.so.0:_ZNK17wxStringTokenizer13HasMoreTokensEv
libwx_baseu-2.8.so.0:_ZNK17wxTarClassFactory12GetClassInfoEv
libwx_baseu-2.8.so.0:_ZNK17wxTarClassFactory12GetProtocolsE20wxStreamProtocolType
libwx_baseu-2.8.so.0:_ZNK17wxULongLongNative7asArrayEv
libwx_baseu-2.8.so.0:_ZNK17wxULongLongNative8ToStringEv
libwx_baseu-2.8.so.0:_ZNK17wxVariantDataBool12GetClassInfoEv
libwx_baseu-2.8.so.0:_ZNK17wxVariantDataBool2EqER13wxVariantData
libwx_baseu-2.8.so.0:_ZNK17wxVariantDataBool5WriteER14wxOutputStream
libwx_baseu-2.8.so.0:_ZNK17wxVariantDataBool5WriteER8wxString
libwx_baseu-2.8.so.0:_ZNK17wxVariantDataBool5WriteERSo
libwx_baseu-2.8.so.0:_ZNK17wxVariantDataChar12GetClassInfoEv
libwx_baseu-2.8.so.0:_ZNK17wxVariantDataChar2EqER13wxVariantData
libwx_baseu-2.8.so.0:_ZNK17wxVariantDataChar5WriteER14wxOutputStream
libwx_baseu-2.8.so.0:_ZNK17wxVariantDataChar5WriteER8wxString
libwx_baseu-2.8.so.0:_ZNK17wxVariantDataChar5WriteERSo
libwx_baseu-2.8.so.0:_ZNK17wxVariantDataList12GetClassInfoEv
libwx_baseu-2.8.so.0:_ZNK17wxVariantDataList2EqER13wxVariantData
libwx_baseu-2.8.so.0:_ZNK17wxVariantDataList5WriteER8wxString
libwx_baseu-2.8.so.0:_ZNK17wxVariantDataList5WriteERSo
libwx_baseu-2.8.so.0:_ZNK17wxVariantDataLong12GetClassInfoEv
libwx_baseu-2.8.so.0:_ZNK17wxVariantDataLong2EqER13wxVariantData
libwx_baseu-2.8.so.0:_ZNK17wxVariantDataLong5WriteER14wxOutputStream
libwx_baseu-2.8.so.0:_ZNK17wxVariantDataLong5WriteER8wxString
libwx_baseu-2.8.so.0:_ZNK17wxVariantDataLong5WriteERSo
libwx_baseu-2.8.so.0:_ZNK17wxZipClassFactory12GetClassInfoEv
libwx_baseu-2.8.so.0:_ZNK17wxZipClassFactory12GetProtocolsE20wxStreamProtocolType
libwx_baseu-2.8.so.0:_ZNK18wxArchiveFSHandler12GetClassInfoEv
libwx_baseu-2.8.so.0:_ZNK18wxBaseArrayPtrVoid14IndexForInsertEPKvPFiS1_S1_E
libwx_baseu-2.8.so.0:_ZNK18wxBaseArrayPtrVoid5IndexEPKvPFiS1_S1_E
libwx_baseu-2.8.so.0:_ZNK18wxBaseArrayPtrVoid5IndexEPKvb
libwx_baseu-2.8.so.0:_ZNK18wxDateTimeWorkDays11DoIsHolidayERK10wxDateTime
libwx_baseu-2.8.so.0:_ZNK18wxDateTimeWorkDays20DoGetHolidaysInRangeERK10wxDateTimeS2_R15wxDateTimeArray
libwx_baseu-2.8.so.0:_ZNK18wxFFileInputStream4IsOkEv
libwx_baseu-2.8.so.0:_ZNK18wxFFileInputStream9GetLengthEv
libwx_baseu-2.8.so.0:_ZNK18wxFFileInputStream9OnSysTellEv
libwx_baseu-2.8.so.0:_ZNK18wxFileOutputStream4IsOkEv
libwx_baseu-2.8.so.0:_ZNK18wxFileOutputStream9GetLengthEv
libwx_baseu-2.8.so.0:_ZNK18wxFileOutputStream9OnSysTellEv
libwx_baseu-2.8.so.0:_ZNK18wxFileSystemModule12GetClassInfoEv
libwx_baseu-2.8.so.0:_ZNK18wxFontMapperModule12GetClassInfoEv
libwx_baseu-2.8.so.0:_ZNK18wxGzipClassFactory12GetClassInfoEv
libwx_baseu-2.8.so.0:_ZNK18wxGzipClassFactory12GetProtocolsE20wxStreamProtocolType
libwx_baseu-2.8.so.0:_ZNK18wxMimeTypeCommands10GetVerbCmdEm
libwx_baseu-2.8.so.0:_ZNK18wxMimeTypeCommands17GetCommandForVerbERK8wxStringPm
libwx_baseu-2.8.so.0:_ZNK18wxZlibClassFactory12GetClassInfoEv
libwx_baseu-2.8.so.0:_ZNK18wxZlibClassFactory12GetProtocolsE20wxStreamProtocolType
libwx_baseu-2.8.so.0:_ZNK19wxArrayFileTypeInfo5IndexERK14wxFileTypeInfob
libwx_baseu-2.8.so.0:_ZNK19wxBackedInputStream10FindLengthEv
libwx_baseu-2.8.so.0:_ZNK19wxBackedInputStream9GetLengthEv
libwx_baseu-2.8.so.0:_ZNK19wxBackedInputStream9OnSysTellEv
libwx_baseu-2.8.so.0:_ZNK19wxEncodingConverter7ConvertEPKcPc
libwx_baseu-2.8.so.0:_ZNK19wxEncodingConverter7ConvertEPKcPw
libwx_baseu-2.8.so.0:_ZNK19wxEncodingConverter7ConvertEPKwPc
libwx_baseu-2.8.so.0:_ZNK19wxEncodingConverter7ConvertEPKwPw
libwx_baseu-2.8.so.0:_ZNK19wxEncodingConverter7ConvertERK8wxString
libwx_baseu-2.8.so.0:_ZNK19wxFFileOutputStream4IsOkEv
libwx_baseu-2.8.so.0:_ZNK19wxFFileOutputStream9GetLengthEv
libwx_baseu-2.8.so.0:_ZNK19wxFFileOutputStream9OnSysTellEv
libwx_baseu-2.8.so.0:_ZNK19wxFileSystemHandler11GetProtocolERK8wxString
libwx_baseu-2.8.so.0:_ZNK19wxFileSystemHandler12GetClassInfoEv
libwx_baseu-2.8.so.0:_ZNK19wxFileSystemHandler15GetLeftLocationERK8wxString
libwx_baseu-2.8.so.0:_ZNK19wxFileSystemHandler16GetRightLocationERK8wxString
libwx_baseu-2.8.so.0:_ZNK19wxFileSystemHandler9GetAnchorERK8wxString
libwx_baseu-2.8.so.0:_ZNK19wxLanguageInfoArray5IndexERK14wxLanguageInfob
libwx_baseu-2.8.so.0:_ZNK19wxMemoryInputStream9OnSysTellEv
libwx_baseu-2.8.so.0:_ZNK19wxMimeTypeCmnModule12GetClassInfoEv
libwx_baseu-2.8.so.0:_ZNK19wxPluralFormsParser5tokenEv
libwx_baseu-2.8.so.0:_ZNK19wxStandardPathsBase10GetTempDirEv
libwx_baseu-2.8.so.0:_ZNK19wxStandardPathsBase15GetDocumentsDirEv
libwx_baseu-2.8.so.0:_ZNK19wxStandardPathsBase15GetLocalDataDirEv
libwx_baseu-2.8.so.0:_ZNK19wxStandardPathsBase17GetExecutablePathEv
libwx_baseu-2.8.so.0:_ZNK19wxStandardPathsBase19GetUserLocalDataDirEv
libwx_baseu-2.8.so.0:_ZNK19wxStringInputStream9GetLengthEv
libwx_baseu-2.8.so.0:_ZNK19wxStringInputStream9OnSysTellEv
libwx_baseu-2.8.so.0:_ZNK19wxVariantDataString12GetClassInfoEv
libwx_baseu-2.8.so.0:_ZNK19wxVariantDataString2EqER13wxVariantData
libwx_baseu-2.8.so.0:_ZNK19wxVariantDataString5WriteER14wxOutputStream
libwx_baseu-2.8.so.0:_ZNK19wxVariantDataString5WriteER8wxString
libwx_baseu-2.8.so.0:_ZNK19wxVariantDataString5WriteERSo
libwx_baseu-2.8.so.0:_ZNK19wxVariantDoubleData12GetClassInfoEv
libwx_baseu-2.8.so.0:_ZNK19wxVariantDoubleData2EqER13wxVariantData
libwx_baseu-2.8.so.0:_ZNK19wxVariantDoubleData5WriteER14wxOutputStream
libwx_baseu-2.8.so.0:_ZNK19wxVariantDoubleData5WriteER8wxString
libwx_baseu-2.8.so.0:_ZNK19wxVariantDoubleData5WriteERSo
libwx_baseu-2.8.so.0:_ZNK20wxFilterClassFactory12GetClassInfoEv
libwx_baseu-2.8.so.0:_ZNK20wxMemoryOutputStream6CopyToEPvm
libwx_baseu-2.8.so.0:_ZNK20wxMemoryOutputStream9OnSysTellEv
libwx_baseu-2.8.so.0:_ZNK20wxStringOutputStream9OnSysTellEv
libwx_baseu-2.8.so.0:_ZNK20wxVariantDataVoidPtr12GetClassInfoEv
libwx_baseu-2.8.so.0:_ZNK20wxVariantDataVoidPtr2EqER13wxVariantData
libwx_baseu-2.8.so.0:_ZNK20wxVariantDataVoidPtr5WriteER8wxString
libwx_baseu-2.8.so.0:_ZNK20wxVariantDataVoidPtr5WriteERSo
libwx_baseu-2.8.so.0:_ZNK21wxArchiveClassFactory12GetClassInfoEv
libwx_baseu-2.8.so.0:_ZNK21wxBufferedInputStream5TellIEv
libwx_baseu-2.8.so.0:_ZNK21wxBufferedInputStream9OnSysTellEv
libwx_baseu-2.8.so.0:_ZNK21wxClientDataContainer15DoGetClientDataEv
libwx_baseu-2.8.so.0:_ZNK21wxClientDataContainer17DoGetClientObjectEv
libwx_baseu-2.8.so.0:_ZNK21wxPluginLibraryModule12GetClassInfoEv
libwx_baseu-2.8.so.0:_ZNK21wxVariantDataDateTime12GetClassInfoEv
libwx_baseu-2.8.so.0:_ZNK21wxVariantDataDateTime2EqER13wxVariantData
libwx_baseu-2.8.so.0:_ZNK21wxVariantDataDateTime5WriteER8wxString
libwx_baseu-2.8.so.0:_ZNK21wxVariantDataDateTime5WriteERSo
libwx_baseu-2.8.so.0:_ZNK22wxBufferedOutputStream5TellOEv
libwx_baseu-2.8.so.0:_ZNK22wxBufferedOutputStream9GetLengthEv
libwx_baseu-2.8.so.0:_ZNK22wxBufferedOutputStream9OnSysTellEv
libwx_baseu-2.8.so.0:_ZNK22wxCountingOutputStream9GetLengthEv
libwx_baseu-2.8.so.0:_ZNK22wxCountingOutputStream9OnSysTellEv
libwx_baseu-2.8.so.0:_ZNK22wxMimeTypesManagerImpl10GetCommandERK8wxStringm
libwx_baseu-2.8.so.0:_ZNK23wxPluralFormsCalculator8evaluateEi
libwx_baseu-2.8.so.0:_ZNK23wxSingleInstanceChecker16IsAnotherRunningEv
libwx_baseu-2.8.so.0:_ZNK24wxArchiveFSCacheDataImpl9NewStreamEv
libwx_baseu-2.8.so.0:_ZNK24wxDateTimeHolidaysModule12GetClassInfoEv
libwx_baseu-2.8.so.0:_ZNK24wxFilterClassFactoryBase12GetClassInfoEv
libwx_baseu-2.8.so.0:_ZNK24wxFilterClassFactoryBase12PopExtensionERK8wxString
libwx_baseu-2.8.so.0:_ZNK24wxFilterClassFactoryBase13FindExtensionEPKw
libwx_baseu-2.8.so.0:_ZNK24wxFilterClassFactoryBase9CanHandleEPKw20wxStreamProtocolType
libwx_baseu-2.8.so.0:_ZNK24wxVariantDataArrayString12GetClassInfoEv
libwx_baseu-2.8.so.0:_ZNK24wxVariantDataArrayString2EqER13wxVariantData
libwx_baseu-2.8.so.0:_ZNK24wxVariantDataArrayString5WriteER8wxString
libwx_baseu-2.8.so.0:_ZNK24wxVariantDataArrayString5WriteERSo
libwx_baseu-2.8.so.0:_ZNK24wxVariantDataWxObjectPtr12GetClassInfoEv
libwx_baseu-2.8.so.0:_ZNK24wxVariantDataWxObjectPtr2EqER13wxVariantData
libwx_baseu-2.8.so.0:_ZNK24wxVariantDataWxObjectPtr5WriteER8wxString
libwx_baseu-2.8.so.0:_ZNK24wxVariantDataWxObjectPtr5WriteERSo
libwx_baseu-2.8.so.0:_ZNK24wxVariantDataWxObjectPtr7GetTypeEv
libwx_baseu-2.8.so.0:_ZNK28wxDynamicLibraryDetailsArray5IndexERK23wxDynamicLibraryDetailsb
libwx_baseu-2.8.so.0:_ZNK5wxDir7GetNameEv
libwx_baseu-2.8.so.0:_ZNK5wxDir7GetNextEP8wxString
libwx_baseu-2.8.so.0:_ZNK5wxDir8GetFirstEP8wxStringRKS0_i
libwx_baseu-2.8.so.0:_ZNK5wxDir8IsOpenedEv
libwx_baseu-2.8.so.0:_ZNK5wxDir8TraverseER14wxDirTraverserRK8wxStringi
libwx_baseu-2.8.so.0:_ZNK5wxURI11GetPasswordEv
libwx_baseu-2.8.so.0:_ZNK5wxURI11IsReferenceEv
libwx_baseu-2.8.so.0:_ZNK5wxURI12GetClassInfoEv
libwx_baseu-2.8.so.0:_ZNK5wxURI17BuildUnescapedURIEv
libwx_baseu-2.8.so.0:_ZNK5wxURI7GetUserEv
libwx_baseu-2.8.so.0:_ZNK5wxURI8BuildURIEv
libwx_baseu-2.8.so.0:_ZNK5wxURIeqERKS_
libwx_baseu-2.8.so.0:_ZNK6wxFile3EofEv
libwx_baseu-2.8.so.0:_ZNK6wxFile4TellEv
libwx_baseu-2.8.so.0:_ZNK6wxFile6LengthEv
libwx_baseu-2.8.so.0:_ZNK6wxList12GetClassInfoEv
libwx_baseu-2.8.so.0:_ZNK7wxEvent12GetClassInfoEv
libwx_baseu-2.8.so.0:_ZNK7wxFFile4TellEv
libwx_baseu-2.8.so.0:_ZNK7wxFFile6LengthEv
libwx_baseu-2.8.so.0:_ZNK7wxMutex4IsOkEv
libwx_baseu-2.8.so.0:_ZNK7wxRegEx13GetMatchCountEv
libwx_baseu-2.8.so.0:_ZNK7wxRegEx7MatchesEPKwi
libwx_baseu-2.8.so.0:_ZNK7wxRegEx7MatchesEPKwim
libwx_baseu-2.8.so.0:_ZNK7wxRegEx7ReplaceEP8wxStringRKS0_m
libwx_baseu-2.8.so.0:_ZNK7wxRegEx8GetMatchEPmS0_m
libwx_baseu-2.8.so.0:_ZNK7wxRegEx8GetMatchERK8wxStringm
libwx_baseu-2.8.so.0:_ZNK8wxCSConv11GetMBNulLenEv
libwx_baseu-2.8.so.0:_ZNK8wxCSConv18CreateConvIfNeededEv
libwx_baseu-2.8.so.0:_ZNK8wxCSConv4IsOkEv
libwx_baseu-2.8.so.0:_ZNK8wxCSConv5MB2WCEPwPKcm
libwx_baseu-2.8.so.0:_ZNK8wxCSConv5WC2MBEPcPKwm
libwx_baseu-2.8.so.0:_ZNK8wxCSConv7ToWCharEPwmPKcm
libwx_baseu-2.8.so.0:_ZNK8wxCSConv8DoCreateEv
libwx_baseu-2.8.so.0:_ZNK8wxCSConv9FromWCharEPcmPKwm
libwx_baseu-2.8.so.0:_ZNK8wxFSFile12GetClassInfoEv
libwx_baseu-2.8.so.0:_ZNK8wxLocale10GetSysNameEv
libwx_baseu-2.8.so.0:_ZNK8wxLocale11FindCatalogEPKw
libwx_baseu-2.8.so.0:_ZNK8wxLocale14GetHeaderValueEPKwS1_
libwx_baseu-2.8.so.0:_ZNK8wxLocale8IsLoadedEPKw
libwx_baseu-2.8.so.0:_ZNK8wxLocale9GetStringEPKwS1_
libwx_baseu-2.8.so.0:_ZNK8wxLocale9GetStringEPKwS1_mS1_
libwx_baseu-2.8.so.0:_ZNK8wxMBConv5MB2WCEPwPKcm
libwx_baseu-2.8.so.0:_ZNK8wxMBConv5WC2MBEPcPKwm
libwx_baseu-2.8.so.0:_ZNK8wxMBConv6cMB2WCEPKc
libwx_baseu-2.8.so.0:_ZNK8wxMBConv6cMB2WCEPKcmPm
libwx_baseu-2.8.so.0:_ZNK8wxMBConv6cWC2MBEPKw
libwx_baseu-2.8.so.0:_ZNK8wxMBConv6cWC2MBEPKwmPm
libwx_baseu-2.8.so.0:_ZNK8wxMBConv7ToWCharEPwmPKcm
libwx_baseu-2.8.so.0:_ZNK8wxMBConv9FromWCharEPcmPKwm
libwx_baseu-2.8.so.0:_ZNK8wxModule12GetClassInfoEv
libwx_baseu-2.8.so.0:_ZNK8wxObject12CloneRefDataEPK15wxObjectRefData
libwx_baseu-2.8.so.0:_ZNK8wxObject12GetClassInfoEv
libwx_baseu-2.8.so.0:_ZNK8wxObject13CreateRefDataEv
libwx_baseu-2.8.so.0:_ZNK8wxObject8IsKindOfEP11wxClassInfo
libwx_baseu-2.8.so.0:_ZNK8wxString10AfterFirstEw
libwx_baseu-2.8.so.0:_ZNK8wxString10BeforeLastEw
libwx_baseu-2.8.so.0:_ZNK8wxString10StartsWithEPKwPS_
libwx_baseu-2.8.so.0:_ZNK8wxString10ToLongLongEPxi
libwx_baseu-2.8.so.0:_ZNK8wxString11BeforeFirstEw
libwx_baseu-2.8.so.0:_ZNK8wxString11ToULongLongEPyi
libwx_baseu-2.8.so.0:_ZNK8wxString3CmpEPKw
libwx_baseu-2.8.so.0:_ZNK8wxString3CmpERKS_
libwx_baseu-2.8.so.0:_ZNK8wxString3MidEmm
libwx_baseu-2.8.so.0:_ZNK8wxString4FindEPKw
libwx_baseu-2.8.so.0:_ZNK8wxString4FindEwb
libwx_baseu-2.8.so.0:_ZNK8wxString4FreqEw
libwx_baseu-2.8.so.0:_ZNK8wxString4LeftEm
libwx_baseu-2.8.so.0:_ZNK8wxString5LowerEv
libwx_baseu-2.8.so.0:_ZNK8wxString5RightEm
libwx_baseu-2.8.so.0:_ZNK8wxString5StripENS_9stripTypeE
libwx_baseu-2.8.so.0:_ZNK8wxString5UpperEv
libwx_baseu-2.8.so.0:_ZNK8wxString6IsWordEv
libwx_baseu-2.8.so.0:_ZNK8wxString6ToLongEPli
libwx_baseu-2.8.so.0:_ZNK8wxString6mb_strERK8wxMBConv
libwx_baseu-2.8.so.0:_ZNK8wxString7IsAsciiEv
libwx_baseu-2.8.so.0:_ZNK8wxString7MatchesEPKw
libwx_baseu-2.8.so.0:_ZNK8wxString7ToAsciiEv
libwx_baseu-2.8.so.0:_ZNK8wxString7ToULongEPmi
libwx_baseu-2.8.so.0:_ZNK8wxString8EndsWithEPKwPS_
libwx_baseu-2.8.so.0:_ZNK8wxString8IsNumberEv
libwx_baseu-2.8.so.0:_ZNK8wxString8ToDoubleEPd
libwx_baseu-2.8.so.0:_ZNK8wxString9AfterLastEw
libwx_baseu-2.8.so.0:_ZNK8wxString9CmpNoCaseEPKw
libwx_baseu-2.8.so.0:_ZNK8wxString9CmpNoCaseERKS_
libwx_baseu-2.8.so.0:_ZNK8wxThread11GetPriorityEv
libwx_baseu-2.8.so.0:_ZNK8wxThread5GetIdEv
libwx_baseu-2.8.so.0:_ZNK8wxThread7IsAliveEv
libwx_baseu-2.8.so.0:_ZNK8wxThread8IsPausedEv
libwx_baseu-2.8.so.0:_ZNK8wxThread9IsRunningEv
libwx_baseu-2.8.so.0:_ZNK9wxListKeyeqE14wxListKeyValue
libwx_baseu-2.8.so.0:_ZNK9wxProcess12GetClassInfoEv
libwx_baseu-2.8.so.0:_ZNK9wxProcess13IsInputOpenedEv
libwx_baseu-2.8.so.0:_ZNK9wxProcess16IsErrorAvailableEv
libwx_baseu-2.8.so.0:_ZNK9wxProcess16IsInputAvailableEv
libwx_baseu-2.8.so.0:_ZNK9wxVariant10GetVoidPtrEv
libwx_baseu-2.8.so.0:_ZNK9wxVariant10MakeStringEv
libwx_baseu-2.8.so.0:_ZNK9wxVariant11GetDateTimeEv
libwx_baseu-2.8.so.0:_ZNK9wxVariant12GetClassInfoEv
libwx_baseu-2.8.so.0:_ZNK9wxVariant13IsValueKindOfEPK11wxClassInfo
libwx_baseu-2.8.so.0:_ZNK9wxVariant14GetArrayStringEv
libwx_baseu-2.8.so.0:_ZNK9wxVariant14GetWxObjectPtrEv
libwx_baseu-2.8.so.0:_ZNK9wxVariant6IsNullEv
libwx_baseu-2.8.so.0:_ZNK9wxVariant6IsTypeERK8wxString
libwx_baseu-2.8.so.0:_ZNK9wxVariant6MemberERKS_
libwx_baseu-2.8.so.0:_ZNK9wxVariant7ConvertEP10wxDateTime
libwx_baseu-2.8.so.0:_ZNK9wxVariant7ConvertEP8wxString
libwx_baseu-2.8.so.0:_ZNK9wxVariant7ConvertEPb
libwx_baseu-2.8.so.0:_ZNK9wxVariant7ConvertEPd
libwx_baseu-2.8.so.0:_ZNK9wxVariant7ConvertEPl
libwx_baseu-2.8.so.0:_ZNK9wxVariant7ConvertEPw
libwx_baseu-2.8.so.0:_ZNK9wxVariant7GetBoolEv
libwx_baseu-2.8.so.0:_ZNK9wxVariant7GetCharEv
libwx_baseu-2.8.so.0:_ZNK9wxVariant7GetListEv
libwx_baseu-2.8.so.0:_ZNK9wxVariant7GetLongEv
libwx_baseu-2.8.so.0:_ZNK9wxVariant7GetTypeEv
libwx_baseu-2.8.so.0:_ZNK9wxVariant8GetCountEv
libwx_baseu-2.8.so.0:_ZNK9wxVariant9GetDoubleEv
libwx_baseu-2.8.so.0:_ZNK9wxVariant9GetStringEv
libwx_baseu-2.8.so.0:_ZNK9wxVarianteqEP8wxObject
libwx_baseu-2.8.so.0:_ZNK9wxVarianteqEPv
libwx_baseu-2.8.so.0:_ZNK9wxVarianteqERK10wxDateTime
libwx_baseu-2.8.so.0:_ZNK9wxVarianteqERK13wxArrayString
libwx_baseu-2.8.so.0:_ZNK9wxVarianteqERK6wxList
libwx_baseu-2.8.so.0:_ZNK9wxVarianteqERK8wxString
libwx_baseu-2.8.so.0:_ZNK9wxVarianteqERKS_
libwx_baseu-2.8.so.0:_ZNK9wxVarianteqEb
libwx_baseu-2.8.so.0:_ZNK9wxVarianteqEd
libwx_baseu-2.8.so.0:_ZNK9wxVarianteqEl
libwx_baseu-2.8.so.0:_ZNK9wxVarianteqEw
libwx_baseu-2.8.so.0:_ZNK9wxVariantixEm
libwx_baseu-2.8.so.0:_ZNK9wxVariantneEP8wxObject
libwx_baseu-2.8.so.0:_ZNK9wxVariantneEPv
libwx_baseu-2.8.so.0:_ZNK9wxVariantneERK10wxDateTime
libwx_baseu-2.8.so.0:_ZNK9wxVariantneERK13wxArrayString
libwx_baseu-2.8.so.0:_ZNK9wxVariantneERK6wxList
libwx_baseu-2.8.so.0:_ZNK9wxVariantneERK8wxString
libwx_baseu-2.8.so.0:_ZNK9wxVariantneERKS_
libwx_baseu-2.8.so.0:_ZNK9wxVariantneEb
libwx_baseu-2.8.so.0:_ZNK9wxVariantneEd
libwx_baseu-2.8.so.0:_ZNK9wxVariantneEl
libwx_baseu-2.8.so.0:_ZNK9wxVariantneEw
libwx_baseu-2.8.so.0:_ZlsR18wxTextOutputStreamRK16wxLongLongNative
libwx_baseu-2.8.so.0:_ZlsR18wxTextOutputStreamRK17wxULongLongNative
libwx_baseu-2.8.so.0:_ZlsR18wxTextOutputStreamx
libwx_baseu-2.8.so.0:_ZlsR18wxTextOutputStreamy
libwx_baseu-2.8.so.0:_ZlsR8wxStringRK16wxLongLongNative
libwx_baseu-2.8.so.0:_ZlsR8wxStringRK17wxULongLongNative
libwx_baseu-2.8.so.0:_ZlsRSoRK16wxLongLongNative
libwx_baseu-2.8.so.0:_ZlsRSoRK17wxULongLongNative
libwx_baseu-2.8.so.0:_ZlsRSoRK8wxString
libwx_baseu-2.8.so.0:_ZmliRK10wxDateSpan
libwx_baseu-2.8.so.0:_ZmliRK10wxTimeSpan
libwx_baseu-2.8.so.0:_ZplPKwRK8wxString
libwx_baseu-2.8.so.0:_ZplRK8wxStringPKw
libwx_baseu-2.8.so.0:_ZplRK8wxStringS1_
libwx_baseu-2.8.so.0:_ZplRK8wxStringw
libwx_baseu-2.8.so.0:_ZplwRK8wxString
libwx_baseu-2.8.so.0:_ZrsR17wxTextInputStreamR16wxLongLongNative
libwx_baseu-2.8.so.0:_ZrsR17wxTextInputStreamR17wxULongLongNative
libwx_baseu-2.8.so.0:_ZrsR17wxTextInputStreamRx
libwx_baseu-2.8.so.0:_ZrsR17wxTextInputStreamRy
libwx_baseu-2.8.so.0:wxFatalSignalHandler
libwx_baseu-2.8.so.0:wxPthreadCleanup
libwx_baseu-2.8.so.0:wxPthreadStart
libwx_baseu-2.8.so.0:wxStringCompareFunction
libwx_baseu-2.8.so.0:wx_comparestrings
libwx_baseu-2.8.so.0:wx_re_comp
libwx_baseu-2.8.so.0:wx_re_exec
libwx_baseu-2.8.so.0:wx_regerror
libwx_baseu-2.8.so.0:wx_regfree
libwx_baseu_net-2.8.so.0:GAddress_GetFamily
libwx_baseu_net-2.8.so.0:GAddress_INET_GetHostAddress
libwx_baseu_net-2.8.so.0:GAddress_INET_GetHostName
libwx_baseu_net-2.8.so.0:GAddress_INET_GetPort
libwx_baseu_net-2.8.so.0:GAddress_INET_SetAnyAddress
libwx_baseu_net-2.8.so.0:GAddress_INET_SetHostAddress
libwx_baseu_net-2.8.so.0:GAddress_INET_SetHostName
libwx_baseu_net-2.8.so.0:GAddress_INET_SetPort
libwx_baseu_net-2.8.so.0:GAddress_INET_SetPortName
libwx_baseu_net-2.8.so.0:GAddress_SetFamily
libwx_baseu_net-2.8.so.0:GAddress_UNIX_GetPath
libwx_baseu_net-2.8.so.0:GAddress_UNIX_SetPath
libwx_baseu_net-2.8.so.0:GAddress_copy
libwx_baseu_net-2.8.so.0:GAddress_destroy
libwx_baseu_net-2.8.so.0:GAddress_new
libwx_baseu_net-2.8.so.0:GSocket_Cleanup
libwx_baseu_net-2.8.so.0:GSocket_Init
libwx_baseu_net-2.8.so.0:GSocket_SetGUIFunctions
libwx_baseu_net-2.8.so.0:GSocket_new
libwx_baseu_net-2.8.so.0:WXU_2.8
libwx_baseu_net-2.8.so.0:WXU_2.8.1
libwx_baseu_net-2.8.so.0:WXU_2.8.10
libwx_baseu_net-2.8.so.0:WXU_2.8.11
libwx_baseu_net-2.8.so.0:WXU_2.8.12
libwx_baseu_net-2.8.so.0:WXU_2.8.2
libwx_baseu_net-2.8.so.0:WXU_2.8.4
libwx_baseu_net-2.8.so.0:WXU_2.8.5
libwx_baseu_net-2.8.so.0:WXU_2.8.7
libwx_baseu_net-2.8.so.0:WXU_2.8.8
libwx_baseu_net-2.8.so.0:WXU_2.8.9
libwx_baseu_net-2.8.so.0:_GAddress_Init_INET
libwx_baseu_net-2.8.so.0:_GAddress_Init_UNIX
libwx_baseu_net-2.8.so.0:_GAddress_translate_from
libwx_baseu_net-2.8.so.0:_GAddress_translate_to
libwx_baseu_net-2.8.so.0:_Z17wxGethostbyaddr_rPKciiP7hostentPviPi
libwx_baseu_net-2.8.so.0:_Z17wxGethostbyname_rPKcP7hostentPviPi
libwx_baseu_net-2.8.so.0:_Z17wxGetservbyname_rPKcS0_P7serventPvi
libwx_baseu_net-2.8.so.0:_Z7GetLineP12wxSocketBaseR8wxString
libwx_baseu_net-2.8.so.0:_ZN10wxProtocol8ReadLineEP12wxSocketBaseR8wxString
libwx_baseu_net-2.8.so.0:_ZN10wxProtocol8ReadLineER8wxString
libwx_baseu_net-2.8.so.0:_ZN10wxProtocol9ReconnectEv
libwx_baseu_net-2.8.so.0:_ZN10wxProtocolC1Ev
libwx_baseu_net-2.8.so.0:_ZN10wxProtocolC2Ev
libwx_baseu_net-2.8.so.0:_ZN11wxFileProto14GetInputStreamERK8wxString
libwx_baseu_net-2.8.so.0:_ZN11wxFileProto14wxCreateObjectEv
libwx_baseu_net-2.8.so.0:_ZN11wxFileProtoC1Ev
libwx_baseu_net-2.8.so.0:_ZN11wxFileProtoC2Ev
libwx_baseu_net-2.8.so.0:_ZN11wxFileProtoD0Ev
libwx_baseu_net-2.8.so.0:_ZN11wxFileProtoD1Ev
libwx_baseu_net-2.8.so.0:_ZN11wxFileProtoD2Ev
libwx_baseu_net-2.8.so.0:_ZN11wxIPaddressC1ERKS_
libwx_baseu_net-2.8.so.0:_ZN11wxIPaddressC1Ev
libwx_baseu_net-2.8.so.0:_ZN11wxIPaddressC2ERKS_
libwx_baseu_net-2.8.so.0:_ZN11wxIPaddressC2Ev
libwx_baseu_net-2.8.so.0:_ZN11wxIPaddressD0Ev
libwx_baseu_net-2.8.so.0:_ZN11wxIPaddressD1Ev
libwx_baseu_net-2.8.so.0:_ZN11wxIPaddressD2Ev
libwx_baseu_net-2.8.so.0:_ZN11wxProtoInfoC1EPKwS1_bP11wxClassInfo
libwx_baseu_net-2.8.so.0:_ZN11wxProtoInfoC2EPKwS1_bP11wxClassInfo
libwx_baseu_net-2.8.so.0:_ZN11wxTCPClient14MakeConnectionERK8wxStringS2_S2_
libwx_baseu_net-2.8.so.0:_ZN11wxTCPClient14wxCreateObjectEv
libwx_baseu_net-2.8.so.0:_ZN11wxTCPClient16OnMakeConnectionEv
libwx_baseu_net-2.8.so.0:_ZN11wxTCPClient9ValidHostERK8wxString
libwx_baseu_net-2.8.so.0:_ZN11wxTCPClientC1Ev
libwx_baseu_net-2.8.so.0:_ZN11wxTCPClientC2Ev
libwx_baseu_net-2.8.so.0:_ZN11wxTCPClientD0Ev
libwx_baseu_net-2.8.so.0:_ZN11wxTCPClientD1Ev
libwx_baseu_net-2.8.so.0:_ZN11wxTCPClientD2Ev
libwx_baseu_net-2.8.so.0:_ZN11wxTCPServer14wxCreateObjectEv
libwx_baseu_net-2.8.so.0:_ZN11wxTCPServer18OnAcceptConnectionERK8wxString
libwx_baseu_net-2.8.so.0:_ZN11wxTCPServer6CreateERK8wxString
libwx_baseu_net-2.8.so.0:_ZN11wxTCPServerC1Ev
libwx_baseu_net-2.8.so.0:_ZN11wxTCPServerC2Ev
libwx_baseu_net-2.8.so.0:_ZN11wxTCPServerD0Ev
libwx_baseu_net-2.8.so.0:_ZN11wxTCPServerD1Ev
libwx_baseu_net-2.8.so.0:_ZN11wxTCPServerD2Ev
libwx_baseu_net-2.8.so.0:_ZN11wxURLModule14wxCreateObjectEv
libwx_baseu_net-2.8.so.0:_ZN11wxURLModule6OnExitEv
libwx_baseu_net-2.8.so.0:_ZN11wxURLModule6OnInitEv
libwx_baseu_net-2.8.so.0:_ZN11wxURLModuleC1Ev
libwx_baseu_net-2.8.so.0:_ZN11wxURLModuleC2Ev
libwx_baseu_net-2.8.so.0:_ZN12wxHTTPStream9OnSysReadEPvm
libwx_baseu_net-2.8.so.0:_ZN12wxSocketBase10InitializeEv
libwx_baseu_net-2.8.so.0:_ZN12wxSocketBase10SetTimeoutEl
libwx_baseu_net-2.8.so.0:_ZN12wxSocketBase11GetPushbackEPvjb
libwx_baseu_net-2.8.so.0:_ZN12wxSocketBase11WaitForLostEll
libwx_baseu_net-2.8.so.0:_ZN12wxSocketBase11WaitForReadEll
libwx_baseu_net-2.8.so.0:_ZN12wxSocketBase12RestoreStateEv
libwx_baseu_net-2.8.so.0:_ZN12wxSocketBase12WaitForWriteEll
libwx_baseu_net-2.8.so.0:_ZN12wxSocketBase13IsInitializedEv
libwx_baseu_net-2.8.so.0:_ZN12wxSocketBase15SetEventHandlerER12wxEvtHandleri
libwx_baseu_net-2.8.so.0:_ZN12wxSocketBase4InitEv
libwx_baseu_net-2.8.so.0:_ZN12wxSocketBase4PeekEPvj
libwx_baseu_net-2.8.so.0:_ZN12wxSocketBase4ReadEPvj
libwx_baseu_net-2.8.so.0:_ZN12wxSocketBase4WaitEll
libwx_baseu_net-2.8.so.0:_ZN12wxSocketBase5CloseEv
libwx_baseu_net-2.8.so.0:_ZN12wxSocketBase5WriteEPKvj
libwx_baseu_net-2.8.so.0:_ZN12wxSocketBase5_ReadEPvj
libwx_baseu_net-2.8.so.0:_ZN12wxSocketBase5_WaitElli
libwx_baseu_net-2.8.so.0:_ZN12wxSocketBase6NotifyEb
libwx_baseu_net-2.8.so.0:_ZN12wxSocketBase6UnreadEPKvj
libwx_baseu_net-2.8.so.0:_ZN12wxSocketBase6_WriteEPKvj
libwx_baseu_net-2.8.so.0:_ZN12wxSocketBase7DestroyEv
libwx_baseu_net-2.8.so.0:_ZN12wxSocketBase7DiscardEv
libwx_baseu_net-2.8.so.0:_ZN12wxSocketBase7ReadMsgEPvj
libwx_baseu_net-2.8.so.0:_ZN12wxSocketBase8PushbackEPKvj
libwx_baseu_net-2.8.so.0:_ZN12wxSocketBase8SetFlagsEi
libwx_baseu_net-2.8.so.0:_ZN12wxSocketBase8SetLocalER13wxIPV4address
libwx_baseu_net-2.8.so.0:_ZN12wxSocketBase8ShutdownEv
libwx_baseu_net-2.8.so.0:_ZN12wxSocketBase8WriteMsgEPKvj
libwx_baseu_net-2.8.so.0:_ZN12wxSocketBase9GetOptionEiiPvPi
libwx_baseu_net-2.8.so.0:_ZN12wxSocketBase9OnRequestE14wxSocketNotify
libwx_baseu_net-2.8.so.0:_ZN12wxSocketBase9SaveStateEv
libwx_baseu_net-2.8.so.0:_ZN12wxSocketBase9SetNotifyEi
libwx_baseu_net-2.8.so.0:_ZN12wxSocketBase9SetOptionEiiPKvi
libwx_baseu_net-2.8.so.0:_ZN12wxSocketBaseC1Ei12wxSocketType
libwx_baseu_net-2.8.so.0:_ZN12wxSocketBaseC1Ev
libwx_baseu_net-2.8.so.0:_ZN12wxSocketBaseC2Ei12wxSocketType
libwx_baseu_net-2.8.so.0:_ZN12wxSocketBaseC2Ev
libwx_baseu_net-2.8.so.0:_ZN12wxSocketBaseD0Ev
libwx_baseu_net-2.8.so.0:_ZN12wxSocketBaseD1Ev
libwx_baseu_net-2.8.so.0:_ZN12wxSocketBaseD2Ev
libwx_baseu_net-2.8.so.0:_ZN13wxIPV4address10AnyAddressEv
libwx_baseu_net-2.8.so.0:_ZN13wxIPV4address14wxCreateObjectEv
libwx_baseu_net-2.8.so.0:_ZN13wxIPV4address7ServiceERK8wxString
libwx_baseu_net-2.8.so.0:_ZN13wxIPV4address7ServiceEt
libwx_baseu_net-2.8.so.0:_ZN13wxIPV4address8HostnameERK8wxString
libwx_baseu_net-2.8.so.0:_ZN13wxIPV4address8HostnameEm
libwx_baseu_net-2.8.so.0:_ZN13wxIPV4address9LocalHostEv
libwx_baseu_net-2.8.so.0:_ZN13wxIPV4addressC1ERKS_
libwx_baseu_net-2.8.so.0:_ZN13wxIPV4addressC1Ev
libwx_baseu_net-2.8.so.0:_ZN13wxIPV4addressC2ERKS_
libwx_baseu_net-2.8.so.0:_ZN13wxIPV4addressC2Ev
libwx_baseu_net-2.8.so.0:_ZN13wxIPV4addressD0Ev
libwx_baseu_net-2.8.so.0:_ZN13wxIPV4addressD1Ev
libwx_baseu_net-2.8.so.0:_ZN13wxIPV4addressD2Ev
libwx_baseu_net-2.8.so.0:_ZN13wxSockAddress10SetAddressEP9_GAddress
libwx_baseu_net-2.8.so.0:_ZN13wxSockAddress4InitEv
libwx_baseu_net-2.8.so.0:_ZN13wxSockAddress5ClearEv
libwx_baseu_net-2.8.so.0:_ZN13wxSockAddressC1ERKS_
libwx_baseu_net-2.8.so.0:_ZN13wxSockAddressC1Ev
libwx_baseu_net-2.8.so.0:_ZN13wxSockAddressC2ERKS_
libwx_baseu_net-2.8.so.0:_ZN13wxSockAddressC2Ev
libwx_baseu_net-2.8.so.0:_ZN13wxSockAddressD0Ev
libwx_baseu_net-2.8.so.0:_ZN13wxSockAddressD1Ev
libwx_baseu_net-2.8.so.0:_ZN13wxSockAddressD2Ev
libwx_baseu_net-2.8.so.0:_ZN13wxSockAddressaSERKS_
libwx_baseu_net-2.8.so.0:_ZN13wxSocketEvent14wxCreateObjectEv
libwx_baseu_net-2.8.so.0:_ZN13wxUNIXaddress14wxCreateObjectEv
libwx_baseu_net-2.8.so.0:_ZN13wxUNIXaddress8FilenameERK8wxString
libwx_baseu_net-2.8.so.0:_ZN13wxUNIXaddress8FilenameEv
libwx_baseu_net-2.8.so.0:_ZN13wxUNIXaddressC1ERKS_
libwx_baseu_net-2.8.so.0:_ZN13wxUNIXaddressC1Ev
libwx_baseu_net-2.8.so.0:_ZN13wxUNIXaddressC2ERKS_
libwx_baseu_net-2.8.so.0:_ZN13wxUNIXaddressC2Ev
libwx_baseu_net-2.8.so.0:_ZN13wxUNIXaddressD0Ev
libwx_baseu_net-2.8.so.0:_ZN13wxUNIXaddressD1Ev
libwx_baseu_net-2.8.so.0:_ZN13wxUNIXaddressD2Ev
libwx_baseu_net-2.8.so.0:_ZN14wxSocketClient13WaitOnConnectEll
libwx_baseu_net-2.8.so.0:_ZN14wxSocketClient7ConnectER13wxSockAddressS1_b
libwx_baseu_net-2.8.so.0:_ZN14wxSocketClient7ConnectER13wxSockAddressb
libwx_baseu_net-2.8.so.0:_ZN14wxSocketClient9DoConnectER13wxSockAddressPS0_b
libwx_baseu_net-2.8.so.0:_ZN14wxSocketClientC1Ei
libwx_baseu_net-2.8.so.0:_ZN14wxSocketClientC2Ei
libwx_baseu_net-2.8.so.0:_ZN14wxSocketClientD0Ev
libwx_baseu_net-2.8.so.0:_ZN14wxSocketClientD1Ev
libwx_baseu_net-2.8.so.0:_ZN14wxSocketClientD2Ev
libwx_baseu_net-2.8.so.0:_ZN14wxSocketModule14wxCreateObjectEv
libwx_baseu_net-2.8.so.0:_ZN14wxSocketServer10AcceptWithER12wxSocketBaseb
libwx_baseu_net-2.8.so.0:_ZN14wxSocketServer13WaitForAcceptEll
libwx_baseu_net-2.8.so.0:_ZN14wxSocketServer6AcceptEb
libwx_baseu_net-2.8.so.0:_ZN14wxSocketServerC1ERK13wxSockAddressi
libwx_baseu_net-2.8.so.0:_ZN14wxSocketServerC2ERK13wxSockAddressi
libwx_baseu_net-2.8.so.0:_ZN14wxSocketStreamC1ER12wxSocketBase
libwx_baseu_net-2.8.so.0:_ZN14wxSocketStreamC2ER12wxSocketBase
libwx_baseu_net-2.8.so.0:_ZN14wxSocketStreamD0Ev
libwx_baseu_net-2.8.so.0:_ZN14wxSocketStreamD1Ev
libwx_baseu_net-2.8.so.0:_ZN14wxSocketStreamD2Ev
libwx_baseu_net-2.8.so.0:_ZN15wxTCPConnection10DisconnectEv
libwx_baseu_net-2.8.so.0:_ZN15wxTCPConnection10StopAdviseERK8wxString
libwx_baseu_net-2.8.so.0:_ZN15wxTCPConnection11StartAdviseERK8wxString
libwx_baseu_net-2.8.so.0:_ZN15wxTCPConnection4PokeERK8wxStringPwi11wxIPCFormat
libwx_baseu_net-2.8.so.0:_ZN15wxTCPConnection6AdviseERK8wxStringPwi11wxIPCFormat
libwx_baseu_net-2.8.so.0:_ZN15wxTCPConnection7ExecuteEPKwi11wxIPCFormat
libwx_baseu_net-2.8.so.0:_ZN15wxTCPConnection7RequestERK8wxStringPi11wxIPCFormat
libwx_baseu_net-2.8.so.0:_ZN15wxTCPConnection8CompressEb
libwx_baseu_net-2.8.so.0:_ZN15wxTCPConnectionC1EPwi
libwx_baseu_net-2.8.so.0:_ZN15wxTCPConnectionC1Ev
libwx_baseu_net-2.8.so.0:_ZN15wxTCPConnectionC2EPwi
libwx_baseu_net-2.8.so.0:_ZN15wxTCPConnectionC2Ev
libwx_baseu_net-2.8.so.0:_ZN15wxTCPConnectionD0Ev
libwx_baseu_net-2.8.so.0:_ZN15wxTCPConnectionD1Ev
libwx_baseu_net-2.8.so.0:_ZN15wxTCPConnectionD2Ev
libwx_baseu_net-2.8.so.0:_ZN16wxDatagramSocket6SendToERK13wxSockAddressPKvj
libwx_baseu_net-2.8.so.0:_ZN16wxDatagramSocket8RecvFromER13wxSockAddressPvj
libwx_baseu_net-2.8.so.0:_ZN16wxDatagramSocketC1ERK13wxSockAddressi
libwx_baseu_net-2.8.so.0:_ZN16wxDatagramSocketC2ERK13wxSockAddressi
libwx_baseu_net-2.8.so.0:_ZN17wxTCPEventHandler16Client_OnRequestER13wxSocketEvent
libwx_baseu_net-2.8.so.0:_ZN17wxTCPEventHandler16Server_OnRequestER13wxSocketEvent
libwx_baseu_net-2.8.so.0:_ZN19wxInternetFSHandler7CanOpenERK8wxString
libwx_baseu_net-2.8.so.0:_ZN19wxInternetFSHandler8OpenFileER12wxFileSystemRK8wxString
libwx_baseu_net-2.8.so.0:_ZN19wxSocketInputStream9OnSysReadEPvm
libwx_baseu_net-2.8.so.0:_ZN19wxSocketInputStreamC1ER12wxSocketBase
libwx_baseu_net-2.8.so.0:_ZN19wxSocketInputStreamC2ER12wxSocketBase
libwx_baseu_net-2.8.so.0:_ZN19wxSocketInputStreamD0Ev
libwx_baseu_net-2.8.so.0:_ZN19wxSocketInputStreamD1Ev
libwx_baseu_net-2.8.so.0:_ZN19wxSocketInputStreamD2Ev
libwx_baseu_net-2.8.so.0:_ZN20wxSocketOutputStream10OnSysWriteEPKvm
libwx_baseu_net-2.8.so.0:_ZN20wxSocketOutputStreamC1ER12wxSocketBase
libwx_baseu_net-2.8.so.0:_ZN20wxSocketOutputStreamC2ER12wxSocketBase
libwx_baseu_net-2.8.so.0:_ZN20wxSocketOutputStreamD0Ev
libwx_baseu_net-2.8.so.0:_ZN20wxSocketOutputStreamD1Ev
libwx_baseu_net-2.8.so.0:_ZN20wxSocketOutputStreamD2Ev
libwx_baseu_net-2.8.so.0:_ZN23wxTCPEventHandlerModule14wxCreateObjectEv
libwx_baseu_net-2.8.so.0:_ZN26wxFileSystemInternetModule14wxCreateObjectEv
libwx_baseu_net-2.8.so.0:_ZN28GSocketGUIFunctionsTableNull11Init_SocketEP7GSocket
libwx_baseu_net-2.8.so.0:_ZN28GSocketGUIFunctionsTableNull13Enable_EventsEP7GSocket
libwx_baseu_net-2.8.so.0:_ZN28GSocketGUIFunctionsTableNull14Destroy_SocketEP7GSocket
libwx_baseu_net-2.8.so.0:_ZN28GSocketGUIFunctionsTableNull14Disable_EventsEP7GSocket
libwx_baseu_net-2.8.so.0:_ZN28GSocketGUIFunctionsTableNull15CanUseEventLoopEv
libwx_baseu_net-2.8.so.0:_ZN28GSocketGUIFunctionsTableNull16Install_CallbackEP7GSocket12GSocketEvent
libwx_baseu_net-2.8.so.0:_ZN28GSocketGUIFunctionsTableNull18Uninstall_CallbackEP7GSocket12GSocketEvent
libwx_baseu_net-2.8.so.0:_ZN28GSocketGUIFunctionsTableNull6OnExitEv
libwx_baseu_net-2.8.so.0:_ZN28GSocketGUIFunctionsTableNull6OnInitEv
libwx_baseu_net-2.8.so.0:_ZN5wxFTP10FileExistsERK8wxString
libwx_baseu_net-2.8.so.0:_ZN5wxFTP11GetFileSizeERK8wxString
libwx_baseu_net-2.8.so.0:_ZN5wxFTP11SendCommandERK8wxString
libwx_baseu_net-2.8.so.0:_ZN5wxFTP13GetActivePortEv
libwx_baseu_net-2.8.so.0:_ZN5wxFTP14AcceptIfActiveEP12wxSocketBase
libwx_baseu_net-2.8.so.0:_ZN5wxFTP14GetInputStreamERK8wxString
libwx_baseu_net-2.8.so.0:_ZN5wxFTP14GetPassivePortEv
libwx_baseu_net-2.8.so.0:_ZN5wxFTP14wxCreateObjectEv
libwx_baseu_net-2.8.so.0:_ZN5wxFTP15DoSimpleCommandEPKwRK8wxString
libwx_baseu_net-2.8.so.0:_ZN5wxFTP15GetOutputStreamERK8wxString
libwx_baseu_net-2.8.so.0:_ZN5wxFTP15SetTransferModeENS_12TransferModeE
libwx_baseu_net-2.8.so.0:_ZN5wxFTP17SetDefaultTimeoutEj
libwx_baseu_net-2.8.so.0:_ZN5wxFTP18GetPortCmdArgumentERK13wxIPV4addressS2_
libwx_baseu_net-2.8.so.0:_ZN5wxFTP3PwdEv
libwx_baseu_net-2.8.so.0:_ZN5wxFTP5AbortEv
libwx_baseu_net-2.8.so.0:_ZN5wxFTP5ChDirERK8wxString
libwx_baseu_net-2.8.so.0:_ZN5wxFTP5CloseEv
libwx_baseu_net-2.8.so.0:_ZN5wxFTP5MkDirERK8wxString
libwx_baseu_net-2.8.so.0:_ZN5wxFTP5RmDirERK8wxString
libwx_baseu_net-2.8.so.0:_ZN5wxFTP6RenameERK8wxStringS2_
libwx_baseu_net-2.8.so.0:_ZN5wxFTP6RmFileERK8wxString
libwx_baseu_net-2.8.so.0:_ZN5wxFTP7ConnectER13wxSockAddressb
libwx_baseu_net-2.8.so.0:_ZN5wxFTP7ConnectERK8wxString
libwx_baseu_net-2.8.so.0:_ZN5wxFTP7GetListER13wxArrayStringRK8wxStringb
libwx_baseu_net-2.8.so.0:_ZN5wxFTP7GetPortEv
libwx_baseu_net-2.8.so.0:_ZN5wxFTP9GetResultEv
libwx_baseu_net-2.8.so.0:_ZN5wxFTPC1Ev
libwx_baseu_net-2.8.so.0:_ZN5wxFTPC2Ev
libwx_baseu_net-2.8.so.0:_ZN5wxFTPD0Ev
libwx_baseu_net-2.8.so.0:_ZN5wxFTPD1Ev
libwx_baseu_net-2.8.so.0:_ZN5wxFTPD2Ev
libwx_baseu_net-2.8.so.0:_ZN5wxURL13FetchProtocolEv
libwx_baseu_net-2.8.so.0:_ZN5wxURL14GetInputStreamEv
libwx_baseu_net-2.8.so.0:_ZN5wxURL15SetDefaultProxyERK8wxString
libwx_baseu_net-2.8.so.0:_ZN5wxURL4InitERK8wxString
libwx_baseu_net-2.8.so.0:_ZN5wxURL8ParseURLEv
libwx_baseu_net-2.8.so.0:_ZN5wxURL8SetProxyERK8wxString
libwx_baseu_net-2.8.so.0:_ZN5wxURL9CleanDataEv
libwx_baseu_net-2.8.so.0:_ZN5wxURLC1ERK5wxURI
libwx_baseu_net-2.8.so.0:_ZN5wxURLC1ERK8wxString
libwx_baseu_net-2.8.so.0:_ZN5wxURLC2ERK5wxURI
libwx_baseu_net-2.8.so.0:_ZN5wxURLC2ERK8wxString
libwx_baseu_net-2.8.so.0:_ZN5wxURLD0Ev
libwx_baseu_net-2.8.so.0:_ZN5wxURLD1Ev
libwx_baseu_net-2.8.so.0:_ZN5wxURLD2Ev
libwx_baseu_net-2.8.so.0:_ZN5wxURLaSERK5wxURI
libwx_baseu_net-2.8.so.0:_ZN5wxURLaSERK8wxString
libwx_baseu_net-2.8.so.0:_ZN6wxHTTP10FindHeaderERK8wxString
libwx_baseu_net-2.8.so.0:_ZN6wxHTTP11SendHeadersEv
libwx_baseu_net-2.8.so.0:_ZN6wxHTTP12BuildRequestERK8wxStringNS_10wxHTTP_ReqE
libwx_baseu_net-2.8.so.0:_ZN6wxHTTP12ClearHeadersEv
libwx_baseu_net-2.8.so.0:_ZN6wxHTTP12ParseHeadersEv
libwx_baseu_net-2.8.so.0:_ZN6wxHTTP12SetProxyModeEb
libwx_baseu_net-2.8.so.0:_ZN6wxHTTP13SetPostBufferERK8wxString
libwx_baseu_net-2.8.so.0:_ZN6wxHTTP14GetContentTypeEv
libwx_baseu_net-2.8.so.0:_ZN6wxHTTP14GetInputStreamERK8wxString
libwx_baseu_net-2.8.so.0:_ZN6wxHTTP14wxCreateObjectEv
libwx_baseu_net-2.8.so.0:_ZN6wxHTTP5AbortEv
libwx_baseu_net-2.8.so.0:_ZN6wxHTTP7ConnectER13wxSockAddressb
libwx_baseu_net-2.8.so.0:_ZN6wxHTTP7ConnectERK8wxStringt
libwx_baseu_net-2.8.so.0:_ZN6wxHTTP9SetHeaderERK8wxStringS2_
libwx_baseu_net-2.8.so.0:_ZN6wxHTTPC1Ev
libwx_baseu_net-2.8.so.0:_ZN6wxHTTPC2Ev
libwx_baseu_net-2.8.so.0:_ZN6wxHTTPD0Ev
libwx_baseu_net-2.8.so.0:_ZN6wxHTTPD1Ev
libwx_baseu_net-2.8.so.0:_ZN6wxHTTPD2Ev
libwx_baseu_net-2.8.so.0:_ZN7GSocket10GetSockOptEiiPvPi
libwx_baseu_net-2.8.so.0:_ZN7GSocket10Recv_DgramEPci
libwx_baseu_net-2.8.so.0:_ZN7GSocket10Send_DgramEPKci
libwx_baseu_net-2.8.so.0:_ZN7GSocket10SetSockOptEiiPKvi
libwx_baseu_net-2.8.so.0:_ZN7GSocket10SetTimeoutEm
libwx_baseu_net-2.8.so.0:_ZN7GSocket11Recv_StreamEPci
libwx_baseu_net-2.8.so.0:_ZN7GSocket11Send_StreamEPKci
libwx_baseu_net-2.8.so.0:_ZN7GSocket11SetCallbackEiPFvPS_12GSocketEventPcES2_
libwx_baseu_net-2.8.so.0:_ZN7GSocket11SetReusableEv
libwx_baseu_net-2.8.so.0:_ZN7GSocket13Detected_ReadEv
libwx_baseu_net-2.8.so.0:_ZN7GSocket13Input_TimeoutEv
libwx_baseu_net-2.8.so.0:_ZN7GSocket13UnsetCallbackEi
libwx_baseu_net-2.8.so.0:_ZN7GSocket14Detected_WriteEv
libwx_baseu_net-2.8.so.0:_ZN7GSocket14Output_TimeoutEv
libwx_baseu_net-2.8.so.0:_ZN7GSocket14SetNonBlockingEb
libwx_baseu_net-2.8.so.0:_ZN7GSocket14SetNonOrientedEv
libwx_baseu_net-2.8.so.0:_ZN7GSocket14WaitConnectionEv
libwx_baseu_net-2.8.so.0:_ZN7GSocket4ReadEPci
libwx_baseu_net-2.8.so.0:_ZN7GSocket5CloseEv
libwx_baseu_net-2.8.so.0:_ZN7GSocket5WriteEPKci
libwx_baseu_net-2.8.so.0:_ZN7GSocket6EnableE12GSocketEvent
libwx_baseu_net-2.8.so.0:_ZN7GSocket6SelectEi
libwx_baseu_net-2.8.so.0:_ZN7GSocket7ConnectE13GSocketStream
libwx_baseu_net-2.8.so.0:_ZN7GSocket7DisableE12GSocketEvent
libwx_baseu_net-2.8.so.0:_ZN7GSocket7GetPeerEv
libwx_baseu_net-2.8.so.0:_ZN7GSocket7SetPeerEP9_GAddress
libwx_baseu_net-2.8.so.0:_ZN7GSocket8GetErrorEv
libwx_baseu_net-2.8.so.0:_ZN7GSocket8GetLocalEv
libwx_baseu_net-2.8.so.0:_ZN7GSocket8SetLocalEP9_GAddress
libwx_baseu_net-2.8.so.0:_ZN7GSocket8ShutdownEv
libwx_baseu_net-2.8.so.0:_ZN7GSocket9SetServerEv
libwx_baseu_net-2.8.so.0:_ZN7GSocketC1Ev
libwx_baseu_net-2.8.so.0:_ZN7GSocketC2Ev
libwx_baseu_net-2.8.so.0:_ZN7GSocketD0Ev
libwx_baseu_net-2.8.so.0:_ZN7GSocketD1Ev
libwx_baseu_net-2.8.so.0:_ZN7GSocketD2Ev
libwx_baseu_net-2.8.so.0:_ZNK10wxProtocol12GetClassInfoEv
libwx_baseu_net-2.8.so.0:_ZNK11wxFileProto12GetClassInfoEv
libwx_baseu_net-2.8.so.0:_ZNK11wxIPaddress12GetClassInfoEv
libwx_baseu_net-2.8.so.0:_ZNK11wxProtoInfo12GetClassInfoEv
libwx_baseu_net-2.8.so.0:_ZNK11wxTCPClient12GetClassInfoEv
libwx_baseu_net-2.8.so.0:_ZNK11wxTCPServer12GetClassInfoEv
libwx_baseu_net-2.8.so.0:_ZNK11wxURLModule12GetClassInfoEv
libwx_baseu_net-2.8.so.0:_ZNK12wxSocketBase12GetClassInfoEv
libwx_baseu_net-2.8.so.0:_ZNK12wxSocketBase7GetPeerER13wxSockAddress
libwx_baseu_net-2.8.so.0:_ZNK12wxSocketBase8GetLocalER13wxSockAddress
libwx_baseu_net-2.8.so.0:_ZNK13wxIPV4address11IsLocalHostEv
libwx_baseu_net-2.8.so.0:_ZNK13wxIPV4address12GetClassInfoEv
libwx_baseu_net-2.8.so.0:_ZNK13wxIPV4address5CloneEv
libwx_baseu_net-2.8.so.0:_ZNK13wxIPV4address7ServiceEv
libwx_baseu_net-2.8.so.0:_ZNK13wxIPV4address8HostnameEv
libwx_baseu_net-2.8.so.0:_ZNK13wxIPV4address9IPAddressEv
libwx_baseu_net-2.8.so.0:_ZNK13wxIPV4addresseqERKS_
libwx_baseu_net-2.8.so.0:_ZNK13wxSockAddress12GetClassInfoEv
libwx_baseu_net-2.8.so.0:_ZNK13wxSocketEvent12GetClassInfoEv
libwx_baseu_net-2.8.so.0:_ZNK13wxUNIXaddress12GetClassInfoEv
libwx_baseu_net-2.8.so.0:_ZNK14wxSocketClient12GetClassInfoEv
libwx_baseu_net-2.8.so.0:_ZNK14wxSocketModule12GetClassInfoEv
libwx_baseu_net-2.8.so.0:_ZNK14wxSocketServer12GetClassInfoEv
libwx_baseu_net-2.8.so.0:_ZNK15wxTCPConnection12GetClassInfoEv
libwx_baseu_net-2.8.so.0:_ZNK16wxDatagramSocket12GetClassInfoEv
libwx_baseu_net-2.8.so.0:_ZNK17wxTCPEventHandler13GetEventTableEv
libwx_baseu_net-2.8.so.0:_ZNK17wxTCPEventHandler17GetEventHashTableEv
libwx_baseu_net-2.8.so.0:_ZNK23wxTCPEventHandlerModule12GetClassInfoEv
libwx_baseu_net-2.8.so.0:_ZNK26wxFileSystemInternetModule12GetClassInfoEv
libwx_baseu_net-2.8.so.0:_ZNK5wxFTP12GetClassInfoEv
libwx_baseu_net-2.8.so.0:_ZNK5wxURL12GetClassInfoEv
libwx_baseu_net-2.8.so.0:_ZNK6wxHTTP10FindHeaderERK8wxString
libwx_baseu_net-2.8.so.0:_ZNK6wxHTTP12GetClassInfoEv
libwx_baseu_net-2.8.so.0:_ZNK6wxHTTP18GenerateAuthStringERK8wxStringS2_
libwx_baseu_net-2.8.so.0:_ZNK6wxHTTP9GetHeaderERK8wxString
libwx_baseu_net-2.8.so.0:_ZThn56_N14wxSocketStreamD0Ev
libwx_baseu_net-2.8.so.0:_ZThn56_N14wxSocketStreamD1Ev
libwx_baseu_net-2.8.so.0:wx_socket_callback
libwx_baseu_xml-2.8.so.0:WXU_2.8
libwx_baseu_xml-2.8.so.0:WXU_2.8.1
libwx_baseu_xml-2.8.so.0:WXU_2.8.10
libwx_baseu_xml-2.8.so.0:WXU_2.8.11
libwx_baseu_xml-2.8.so.0:WXU_2.8.12
libwx_baseu_xml-2.8.so.0:WXU_2.8.2
libwx_baseu_xml-2.8.so.0:WXU_2.8.4
libwx_baseu_xml-2.8.so.0:WXU_2.8.5
libwx_baseu_xml-2.8.so.0:WXU_2.8.7
libwx_baseu_xml-2.8.so.0:WXU_2.8.8
libwx_baseu_xml-2.8.so.0:WXU_2.8.9
libwx_baseu_xml-2.8.so.0:_ZN13wxXmlDocument4LoadER13wxInputStreamRK8wxStringi
libwx_baseu_xml-2.8.so.0:_ZN13wxXmlDocument4LoadERK8wxStringS2_i
libwx_baseu_xml-2.8.so.0:_ZN13wxXmlDocument6DoCopyERKS_
libwx_baseu_xml-2.8.so.0:_ZN13wxXmlDocumentC1ER13wxInputStreamRK8wxString
libwx_baseu_xml-2.8.so.0:_ZN13wxXmlDocumentC1ERK8wxStringS2_
libwx_baseu_xml-2.8.so.0:_ZN13wxXmlDocumentC1ERKS_
libwx_baseu_xml-2.8.so.0:_ZN13wxXmlDocumentC1Ev
libwx_baseu_xml-2.8.so.0:_ZN13wxXmlDocumentC2ER13wxInputStreamRK8wxString
libwx_baseu_xml-2.8.so.0:_ZN13wxXmlDocumentC2ERK8wxStringS2_
libwx_baseu_xml-2.8.so.0:_ZN13wxXmlDocumentC2ERKS_
libwx_baseu_xml-2.8.so.0:_ZN13wxXmlDocumentC2Ev
libwx_baseu_xml-2.8.so.0:_ZN13wxXmlDocumentaSERKS_
libwx_baseu_xml-2.8.so.0:_ZN9wxXmlNode11AddPropertyEP13wxXmlProperty
libwx_baseu_xml-2.8.so.0:_ZN9wxXmlNode11AddPropertyERK8wxStringS2_
libwx_baseu_xml-2.8.so.0:_ZN9wxXmlNode11InsertChildEPS_S0_
libwx_baseu_xml-2.8.so.0:_ZN9wxXmlNode11RemoveChildEPS_
libwx_baseu_xml-2.8.so.0:_ZN9wxXmlNode14DeletePropertyERK8wxString
libwx_baseu_xml-2.8.so.0:_ZN9wxXmlNode16InsertChildAfterEPS_S0_
libwx_baseu_xml-2.8.so.0:_ZN9wxXmlNode6DoCopyERKS_
libwx_baseu_xml-2.8.so.0:_ZN9wxXmlNode8AddChildEPS_
libwx_baseu_xml-2.8.so.0:_ZN9wxXmlNodeC1E13wxXmlNodeTypeRK8wxStringS3_
libwx_baseu_xml-2.8.so.0:_ZN9wxXmlNodeC1EPS_13wxXmlNodeTypeRK8wxStringS4_P13wxXmlPropertyS0_
libwx_baseu_xml-2.8.so.0:_ZN9wxXmlNodeC1ERKS_
libwx_baseu_xml-2.8.so.0:_ZN9wxXmlNodeC2E13wxXmlNodeTypeRK8wxStringS3_
libwx_baseu_xml-2.8.so.0:_ZN9wxXmlNodeC2EPS_13wxXmlNodeTypeRK8wxStringS4_P13wxXmlPropertyS0_
libwx_baseu_xml-2.8.so.0:_ZN9wxXmlNodeC2ERKS_
libwx_baseu_xml-2.8.so.0:_ZN9wxXmlNodeD0Ev
libwx_baseu_xml-2.8.so.0:_ZN9wxXmlNodeD1Ev
libwx_baseu_xml-2.8.so.0:_ZN9wxXmlNodeD2Ev
libwx_baseu_xml-2.8.so.0:_ZN9wxXmlNodeaSERKS_
libwx_baseu_xml-2.8.so.0:_ZNK13wxXmlDocument12GetClassInfoEv
libwx_baseu_xml-2.8.so.0:_ZNK13wxXmlDocument4SaveER14wxOutputStreami
libwx_baseu_xml-2.8.so.0:_ZNK13wxXmlDocument4SaveERK8wxStringi
libwx_baseu_xml-2.8.so.0:_ZNK9wxXmlNode10GetPropValERK8wxStringPS0_
libwx_baseu_xml-2.8.so.0:_ZNK9wxXmlNode10GetPropValERK8wxStringS2_
libwx_baseu_xml-2.8.so.0:_ZNK9wxXmlNode14GetNodeContentEv
libwx_baseu_xml-2.8.so.0:_ZNK9wxXmlNode16IsWhitespaceOnlyEv
libwx_baseu_xml-2.8.so.0:_ZNK9wxXmlNode7HasPropERK8wxString
libwx_baseu_xml-2.8.so.0:_ZNK9wxXmlNode8GetDepthEPS_
libwx_gtk2u_adv-2.8.so.0:WXU_2.8
libwx_gtk2u_adv-2.8.so.0:WXU_2.8.1
libwx_gtk2u_adv-2.8.so.0:WXU_2.8.10
libwx_gtk2u_adv-2.8.so.0:WXU_2.8.11
libwx_gtk2u_adv-2.8.so.0:WXU_2.8.12
libwx_gtk2u_adv-2.8.so.0:WXU_2.8.2
libwx_gtk2u_adv-2.8.so.0:WXU_2.8.4
libwx_gtk2u_adv-2.8.so.0:WXU_2.8.5
libwx_gtk2u_adv-2.8.so.0:WXU_2.8.7
libwx_gtk2u_adv-2.8.so.0:WXU_2.8.8
libwx_gtk2u_adv-2.8.so.0:WXU_2.8.9
libwx_gtk2u_adv-2.8.so.0:_Z10wxAboutBoxRK17wxAboutDialogInfo
libwx_gtk2u_adv-2.8.so.0:_Z17wxGenericAboutBoxRK17wxAboutDialogInfo
libwx_gtk2u_adv-2.8.so.0:_Z23gdk_pixbuf_area_updatedP16_GdkPixbufLoaderiiiiP11wxAnimation
libwx_gtk2u_adv-2.8.so.0:_Z23wxCreateFileTipProviderRK8wxStringm
libwx_gtk2u_adv-2.8.so.0:_Z9wxShowTipP8wxWindowP13wxTipProviderb
libwx_gtk2u_adv-2.8.so.0:_ZN10wxJoystick10SetCaptureEP8wxWindowi
libwx_gtk2u_adv-2.8.so.0:_ZN10wxJoystick14ReleaseCaptureEv
libwx_gtk2u_adv-2.8.so.0:_ZN10wxJoystick14wxCreateObjectEv
libwx_gtk2u_adv-2.8.so.0:_ZN10wxJoystick18GetNumberJoysticksEv
libwx_gtk2u_adv-2.8.so.0:_ZN10wxJoystick20SetMovementThresholdEi
libwx_gtk2u_adv-2.8.so.0:_ZN10wxJoystickC1Ei
libwx_gtk2u_adv-2.8.so.0:_ZN10wxJoystickC2Ei
libwx_gtk2u_adv-2.8.so.0:_ZN10wxJoystickD0Ev
libwx_gtk2u_adv-2.8.so.0:_ZN10wxJoystickD1Ev
libwx_gtk2u_adv-2.8.so.0:_ZN10wxJoystickD2Ev
libwx_gtk2u_adv-2.8.so.0:_ZN11wxAnimation14wxCreateObjectEv
libwx_gtk2u_adv-2.8.so.0:_ZN11wxAnimation4LoadER13wxInputStream15wxAnimationType
libwx_gtk2u_adv-2.8.so.0:_ZN11wxAnimation5UnRefEv
libwx_gtk2u_adv-2.8.so.0:_ZN11wxAnimation8LoadFileERK8wxString15wxAnimationType
libwx_gtk2u_adv-2.8.so.0:_ZN11wxAnimation9SetPixbufEP19_GdkPixbufAnimation
libwx_gtk2u_adv-2.8.so.0:_ZN11wxAnimationC1EP19_GdkPixbufAnimation
libwx_gtk2u_adv-2.8.so.0:_ZN11wxAnimationC1ERKS_
libwx_gtk2u_adv-2.8.so.0:_ZN11wxAnimationC2EP19_GdkPixbufAnimation
libwx_gtk2u_adv-2.8.so.0:_ZN11wxAnimationC2ERKS_
libwx_gtk2u_adv-2.8.so.0:_ZN11wxAnimationaSERKS_
libwx_gtk2u_adv-2.8.so.0:_ZN11wxDateEvent14wxCreateObjectEv
libwx_gtk2u_adv-2.8.so.0:_ZN11wxGridEvent14wxCreateObjectEv
libwx_gtk2u_adv-2.8.so.0:_ZN11wxGridEventC1EiiP8wxObjectiiiibbbbb
libwx_gtk2u_adv-2.8.so.0:_ZN11wxGridEventC2EiiP8wxObjectiiiibbbbb
libwx_gtk2u_adv-2.8.so.0:_ZN11wxSashEvent14wxCreateObjectEv
libwx_gtk2u_adv-2.8.so.0:_ZN11wxSoundData6DecRefEv
libwx_gtk2u_adv-2.8.so.0:_ZN11wxSoundData6IncRefEv
libwx_gtk2u_adv-2.8.so.0:_ZN11wxSoundDataD1Ev
libwx_gtk2u_adv-2.8.so.0:_ZN11wxSoundDataD2Ev
libwx_gtk2u_adv-2.8.so.0:_ZN11wxTipDialogC1EP8wxWindowP13wxTipProviderb
libwx_gtk2u_adv-2.8.so.0:_ZN11wxTipDialogC2EP8wxWindowP13wxTipProviderb
libwx_gtk2u_adv-2.8.so.0:_ZN12wxGridWindow12OnMouseEventER12wxMouseEvent
libwx_gtk2u_adv-2.8.so.0:_ZN12wxGridWindow12OnMouseWheelER12wxMouseEvent
libwx_gtk2u_adv-2.8.so.0:_ZN12wxGridWindow12ScrollWindowEiiPK6wxRect
libwx_gtk2u_adv-2.8.so.0:_ZN12wxGridWindow14wxCreateObjectEv
libwx_gtk2u_adv-2.8.so.0:_ZN12wxGridWindow17OnEraseBackgroundER12wxEraseEvent
libwx_gtk2u_adv-2.8.so.0:_ZN12wxGridWindow6OnCharER10wxKeyEvent
libwx_gtk2u_adv-2.8.so.0:_ZN12wxGridWindow7OnFocusER12wxFocusEvent
libwx_gtk2u_adv-2.8.so.0:_ZN12wxGridWindow7OnKeyUpER10wxKeyEvent
libwx_gtk2u_adv-2.8.so.0:_ZN12wxGridWindow7OnPaintER12wxPaintEvent
libwx_gtk2u_adv-2.8.so.0:_ZN12wxGridWindow9OnKeyDownER10wxKeyEvent
libwx_gtk2u_adv-2.8.so.0:_ZN12wxGridWindowC1EP6wxGridP20wxGridRowLabelWindowP20wxGridColLabelWindowiRK7wxPointRK6wxSize
libwx_gtk2u_adv-2.8.so.0:_ZN12wxGridWindowC2EP6wxGridP20wxGridRowLabelWindowP20wxGridColLabelWindowiRK7wxPointRK6wxSize
libwx_gtk2u_adv-2.8.so.0:_ZN12wxSashWindow10DrawSashesER4wxDC
libwx_gtk2u_adv-2.8.so.0:_ZN12wxSashWindow11DrawBordersER4wxDC
libwx_gtk2u_adv-2.8.so.0:_ZN12wxSashWindow11InitColoursEv
libwx_gtk2u_adv-2.8.so.0:_ZN12wxSashWindow11SashHitTestEiii
libwx_gtk2u_adv-2.8.so.0:_ZN12wxSashWindow11SizeWindowsEv
libwx_gtk2u_adv-2.8.so.0:_ZN12wxSashWindow12OnMouseEventER12wxMouseEvent
libwx_gtk2u_adv-2.8.so.0:_ZN12wxSashWindow14SetSashVisibleE18wxSashEdgePositionb
libwx_gtk2u_adv-2.8.so.0:_ZN12wxSashWindow14wxCreateObjectEv
libwx_gtk2u_adv-2.8.so.0:_ZN12wxSashWindow15DrawSashTrackerE18wxSashEdgePositionii
libwx_gtk2u_adv-2.8.so.0:_ZN12wxSashWindow4InitEv
libwx_gtk2u_adv-2.8.so.0:_ZN12wxSashWindow6CreateEP8wxWindowiRK7wxPointRK6wxSizelRK8wxString
libwx_gtk2u_adv-2.8.so.0:_ZN12wxSashWindow6OnSizeER11wxSizeEvent
libwx_gtk2u_adv-2.8.so.0:_ZN12wxSashWindow7OnPaintER12wxPaintEvent
libwx_gtk2u_adv-2.8.so.0:_ZN12wxSashWindow8DrawSashE18wxSashEdgePositionR4wxDC
libwx_gtk2u_adv-2.8.so.0:_ZN12wxSashWindowD0Ev
libwx_gtk2u_adv-2.8.so.0:_ZN12wxSashWindowD1Ev
libwx_gtk2u_adv-2.8.so.0:_ZN12wxSashWindowD2Ev
libwx_gtk2u_adv-2.8.so.0:_ZN12wxWizardPage4InitEv
libwx_gtk2u_adv-2.8.so.0:_ZN12wxWizardPage6CreateEP8wxWizardRK8wxBitmapPKw
libwx_gtk2u_adv-2.8.so.0:_ZN12wxWizardPageC1EP8wxWizardRK8wxBitmapPKw
libwx_gtk2u_adv-2.8.so.0:_ZN12wxWizardPageC2EP8wxWizardRK8wxBitmapPKw
libwx_gtk2u_adv-2.8.so.0:_ZN13wxTaskBarIcon10RemoveIconEv
libwx_gtk2u_adv-2.8.so.0:_ZN13wxTaskBarIcon14wxCreateObjectEv
libwx_gtk2u_adv-2.8.so.0:_ZN13wxTaskBarIcon7SetIconERK6wxIconRK8wxString
libwx_gtk2u_adv-2.8.so.0:_ZN13wxTaskBarIcon9OnDestroyER20wxWindowDestroyEvent
libwx_gtk2u_adv-2.8.so.0:_ZN13wxTaskBarIcon9PopupMenuEP6wxMenu
libwx_gtk2u_adv-2.8.so.0:_ZN13wxTaskBarIconC1Ev
libwx_gtk2u_adv-2.8.so.0:_ZN13wxTaskBarIconC2Ev
libwx_gtk2u_adv-2.8.so.0:_ZN13wxTaskBarIconD0Ev
libwx_gtk2u_adv-2.8.so.0:_ZN13wxTaskBarIconD1Ev
libwx_gtk2u_adv-2.8.so.0:_ZN13wxTaskBarIconD2Ev
libwx_gtk2u_adv-2.8.so.0:_ZN13wxWizardEvent14wxCreateObjectEv
libwx_gtk2u_adv-2.8.so.0:_ZN13wxWizardEventC1EiibP12wxWizardPage
libwx_gtk2u_adv-2.8.so.0:_ZN13wxWizardEventC2EiibP12wxWizardPage
libwx_gtk2u_adv-2.8.so.0:_ZN13wxWizardSizer11RecalcSizesEv
libwx_gtk2u_adv-2.8.so.0:_ZN13wxWizardSizer11SiblingSizeEP11wxSizerItem
libwx_gtk2u_adv-2.8.so.0:_ZN13wxWizardSizer15GetMaxChildSizeEv
libwx_gtk2u_adv-2.8.so.0:_ZN13wxWizardSizer6InsertEmP11wxSizerItem
libwx_gtk2u_adv-2.8.so.0:_ZN13wxWizardSizer7CalcMinEv
libwx_gtk2u_adv-2.8.so.0:_ZN13wxWizardSizer9HidePagesEv
libwx_gtk2u_adv-2.8.so.0:_ZN13wxWizardSizerC1EP8wxWizard
libwx_gtk2u_adv-2.8.so.0:_ZN13wxWizardSizerC2EP8wxWizard
libwx_gtk2u_adv-2.8.so.0:_ZN14wxCalendarCtrl10SetHolidayEm
libwx_gtk2u_adv-2.8.so.0:_ZN14wxCalendarCtrl11InitColoursEv
libwx_gtk2u_adv-2.8.so.0:_ZN14wxCalendarCtrl11RefreshDateERK10wxDateTime
libwx_gtk2u_adv-2.8.so.0:_ZN14wxCalendarCtrl12DoMoveWindowEiiii
libwx_gtk2u_adv-2.8.so.0:_ZN14wxCalendarCtrl12OnYearChangeER14wxCommandEvent
libwx_gtk2u_adv-2.8.so.0:_ZN14wxCalendarCtrl12SetDateRangeERK10wxDateTimeS2_
libwx_gtk2u_adv-2.8.so.0:_ZN14wxCalendarCtrl13OnMonthChangeER14wxCommandEvent
libwx_gtk2u_adv-2.8.so.0:_ZN14wxCalendarCtrl14HighlightRangeEP9wxPaintDCRK10wxDateTimeS4_PK5wxPenPK7wxBrush
libwx_gtk2u_adv-2.8.so.0:_ZN14wxCalendarCtrl14RecalcGeometryEv
libwx_gtk2u_adv-2.8.so.0:_ZN14wxCalendarCtrl14wxCreateObjectEv
libwx_gtk2u_adv-2.8.so.0:_ZN14wxCalendarCtrl15SetHolidayAttrsEv
libwx_gtk2u_adv-2.8.so.0:_ZN14wxCalendarCtrl16EnableYearChangeEb
libwx_gtk2u_adv-2.8.so.0:_ZN14wxCalendarCtrl16OnYearTextChangeER14wxCommandEvent
libwx_gtk2u_adv-2.8.so.0:_ZN14wxCalendarCtrl16SetDateAndNotifyERK10wxDateTime
libwx_gtk2u_adv-2.8.so.0:_ZN14wxCalendarCtrl17EnableMonthChangeEb
libwx_gtk2u_adv-2.8.so.0:_ZN14wxCalendarCtrl17ResetHolidayAttrsEv
libwx_gtk2u_adv-2.8.so.0:_ZN14wxCalendarCtrl17SetLowerDateLimitERK10wxDateTime
libwx_gtk2u_adv-2.8.so.0:_ZN14wxCalendarCtrl17SetUpperDateLimitERK10wxDateTime
libwx_gtk2u_adv-2.8.so.0:_ZN14wxCalendarCtrl18CreateYearSpinCtrlEv
libwx_gtk2u_adv-2.8.so.0:_ZN14wxCalendarCtrl18OnSysColourChangedER23wxSysColourChangedEvent
libwx_gtk2u_adv-2.8.so.0:_ZN14wxCalendarCtrl18SetWindowStyleFlagEl
libwx_gtk2u_adv-2.8.so.0:_ZN14wxCalendarCtrl19CreateMonthComboBoxEv
libwx_gtk2u_adv-2.8.so.0:_ZN14wxCalendarCtrl19ShowCurrentControlsEv
libwx_gtk2u_adv-2.8.so.0:_ZN14wxCalendarCtrl20EnableHolidayDisplayEb
libwx_gtk2u_adv-2.8.so.0:_ZN14wxCalendarCtrl25GetClassDefaultAttributesE15wxWindowVariant
libwx_gtk2u_adv-2.8.so.0:_ZN14wxCalendarCtrl4InitEv
libwx_gtk2u_adv-2.8.so.0:_ZN14wxCalendarCtrl4ShowEb
libwx_gtk2u_adv-2.8.so.0:_ZN14wxCalendarCtrl6CreateEP8wxWindowiRK10wxDateTimeRK7wxPointRK6wxSizelRK8wxString
libwx_gtk2u_adv-2.8.so.0:_ZN14wxCalendarCtrl6EnableEb
libwx_gtk2u_adv-2.8.so.0:_ZN14wxCalendarCtrl6OnCharER10wxKeyEvent
libwx_gtk2u_adv-2.8.so.0:_ZN14wxCalendarCtrl7DestroyEv
libwx_gtk2u_adv-2.8.so.0:_ZN14wxCalendarCtrl7HitTestERK7wxPointP10wxDateTimePNS3_7WeekDayE
libwx_gtk2u_adv-2.8.so.0:_ZN14wxCalendarCtrl7OnClickER12wxMouseEvent
libwx_gtk2u_adv-2.8.so.0:_ZN14wxCalendarCtrl7OnPaintER12wxPaintEvent
libwx_gtk2u_adv-2.8.so.0:_ZN14wxCalendarCtrl7SetDateERK10wxDateTime
libwx_gtk2u_adv-2.8.so.0:_ZN14wxCalendarCtrl8OnDClickER12wxMouseEvent
libwx_gtk2u_adv-2.8.so.0:_ZN14wxCalendarCtrl9ChangeDayERK10wxDateTime
libwx_gtk2u_adv-2.8.so.0:_ZN14wxCalendarCtrl9DoSetSizeEiiiii
libwx_gtk2u_adv-2.8.so.0:_ZN14wxCalendarCtrlC1EP8wxWindowiRK10wxDateTimeRK7wxPointRK6wxSizelRK8wxString
libwx_gtk2u_adv-2.8.so.0:_ZN14wxCalendarCtrlC2EP8wxWindowiRK10wxDateTimeRK7wxPointRK6wxSizelRK8wxString
libwx_gtk2u_adv-2.8.so.0:_ZN14wxCalendarCtrlD0Ev
libwx_gtk2u_adv-2.8.so.0:_ZN14wxCalendarCtrlD1Ev
libwx_gtk2u_adv-2.8.so.0:_ZN14wxCalendarCtrlD2Ev
libwx_gtk2u_adv-2.8.so.0:_ZN14wxGridCellAttr4InitEPS_
libwx_gtk2u_adv-2.8.so.0:_ZN14wxGridCellAttr7SetSizeEii
libwx_gtk2u_adv-2.8.so.0:_ZN14wxGridCellAttr9MergeWithEPS_
libwx_gtk2u_adv-2.8.so.0:_ZN14wxSplashScreen13OnCloseWindowER12wxCloseEvent
libwx_gtk2u_adv-2.8.so.0:_ZN14wxSplashScreen14wxCreateObjectEv
libwx_gtk2u_adv-2.8.so.0:_ZN14wxSplashScreen8OnNotifyER12wxTimerEvent
libwx_gtk2u_adv-2.8.so.0:_ZN14wxSplashScreenC1ERK8wxBitmapliP8wxWindowiRK7wxPointRK6wxSizel
libwx_gtk2u_adv-2.8.so.0:_ZN14wxSplashScreenC2ERK8wxBitmapliP8wxWindowiRK7wxPointRK6wxSizel
libwx_gtk2u_adv-2.8.so.0:_ZN14wxSplashScreenD0Ev
libwx_gtk2u_adv-2.8.so.0:_ZN14wxSplashScreenD1Ev
libwx_gtk2u_adv-2.8.so.0:_ZN14wxSplashScreenD2Ev
libwx_gtk2u_adv-2.8.so.0:_ZN15wxAnimationCtrl12SetAnimationERK11wxAnimation
libwx_gtk2u_adv-2.8.so.0:_ZN15wxAnimationCtrl14FitToAnimationEv
libwx_gtk2u_adv-2.8.so.0:_ZN15wxAnimationCtrl14wxCreateObjectEv
libwx_gtk2u_adv-2.8.so.0:_ZN15wxAnimationCtrl18DisplayStaticImageEv
libwx_gtk2u_adv-2.8.so.0:_ZN15wxAnimationCtrl19SetBackgroundColourERK8wxColour
libwx_gtk2u_adv-2.8.so.0:_ZN15wxAnimationCtrl23ClearToBackgroundColourEv
libwx_gtk2u_adv-2.8.so.0:_ZN15wxAnimationCtrl4InitEv
libwx_gtk2u_adv-2.8.so.0:_ZN15wxAnimationCtrl4PlayEv
libwx_gtk2u_adv-2.8.so.0:_ZN15wxAnimationCtrl4StopEv
libwx_gtk2u_adv-2.8.so.0:_ZN15wxAnimationCtrl6CreateEP8wxWindowiRK11wxAnimationRK7wxPointRK6wxSizelRK8wxString
libwx_gtk2u_adv-2.8.so.0:_ZN15wxAnimationCtrl7OnTimerER12wxTimerEvent
libwx_gtk2u_adv-2.8.so.0:_ZN15wxAnimationCtrl8LoadFileERK8wxString15wxAnimationType
libwx_gtk2u_adv-2.8.so.0:_ZN15wxAnimationCtrl9ResetAnimEv
libwx_gtk2u_adv-2.8.so.0:_ZN15wxAnimationCtrl9ResetIterEv
libwx_gtk2u_adv-2.8.so.0:_ZN15wxAnimationCtrlD0Ev
libwx_gtk2u_adv-2.8.so.0:_ZN15wxAnimationCtrlD1Ev
libwx_gtk2u_adv-2.8.so.0:_ZN15wxAnimationCtrlD2Ev
libwx_gtk2u_adv-2.8.so.0:_ZN15wxCalendarEvent14wxCreateObjectEv
libwx_gtk2u_adv-2.8.so.0:_ZN15wxGridSelection10SelectCellEiibbbbb
libwx_gtk2u_adv-2.8.so.0:_ZN15wxGridSelection10UpdateColsEmi
libwx_gtk2u_adv-2.8.so.0:_ZN15wxGridSelection10UpdateRowsEmi
libwx_gtk2u_adv-2.8.so.0:_ZN15wxGridSelection11IsSelectionEv
libwx_gtk2u_adv-2.8.so.0:_ZN15wxGridSelection11SelectBlockEiiiibbbbb
libwx_gtk2u_adv-2.8.so.0:_ZN15wxGridSelection12BlockContainEiiiiiiii
libwx_gtk2u_adv-2.8.so.0:_ZN15wxGridSelection13IsInSelectionEii
libwx_gtk2u_adv-2.8.so.0:_ZN15wxGridSelection14ClearSelectionEv
libwx_gtk2u_adv-2.8.so.0:_ZN15wxGridSelection16SetSelectionModeEN6wxGrid20wxGridSelectionModesE
libwx_gtk2u_adv-2.8.so.0:_ZN15wxGridSelection19ToggleCellSelectionEiibbbb
libwx_gtk2u_adv-2.8.so.0:_ZN15wxGridSelection9SelectColEibbbb
libwx_gtk2u_adv-2.8.so.0:_ZN15wxGridSelection9SelectRowEibbbb
libwx_gtk2u_adv-2.8.so.0:_ZN15wxGridSelectionC1EP6wxGridNS0_20wxGridSelectionModesE
libwx_gtk2u_adv-2.8.so.0:_ZN15wxGridSelectionC2EP6wxGridNS0_20wxGridSelectionModesE
libwx_gtk2u_adv-2.8.so.0:_ZN15wxGridSizeEvent14wxCreateObjectEv
libwx_gtk2u_adv-2.8.so.0:_ZN15wxGridSizeEventC1EiiP8wxObjectiiibbbb
libwx_gtk2u_adv-2.8.so.0:_ZN15wxGridSizeEventC2EiiP8wxObjectiiibbbb
libwx_gtk2u_adv-2.8.so.0:_ZN15wxGridSubwindow18OnMouseCaptureLostER23wxMouseCaptureLostEvent
libwx_gtk2u_adv-2.8.so.0:_ZN15wxGridTableBase10AppendColsEm
libwx_gtk2u_adv-2.8.so.0:_ZN15wxGridTableBase10AppendRowsEm
libwx_gtk2u_adv-2.8.so.0:_ZN15wxGridTableBase10DeleteColsEmm
libwx_gtk2u_adv-2.8.so.0:_ZN15wxGridTableBase10DeleteRowsEmm
libwx_gtk2u_adv-2.8.so.0:_ZN15wxGridTableBase10InsertColsEmm
libwx_gtk2u_adv-2.8.so.0:_ZN15wxGridTableBase10InsertRowsEmm
libwx_gtk2u_adv-2.8.so.0:_ZN15wxGridTableBase10SetColAttrEP14wxGridCellAttri
libwx_gtk2u_adv-2.8.so.0:_ZN15wxGridTableBase10SetRowAttrEP14wxGridCellAttri
libwx_gtk2u_adv-2.8.so.0:_ZN15wxGridTableBase11GetTypeNameEii
libwx_gtk2u_adv-2.8.so.0:_ZN15wxGridTableBase13CanGetValueAsEiiRK8wxString
libwx_gtk2u_adv-2.8.so.0:_ZN15wxGridTableBase13CanSetValueAsEiiRK8wxString
libwx_gtk2u_adv-2.8.so.0:_ZN15wxGridTableBase14GetValueAsBoolEii
libwx_gtk2u_adv-2.8.so.0:_ZN15wxGridTableBase14GetValueAsLongEii
libwx_gtk2u_adv-2.8.so.0:_ZN15wxGridTableBase14SetValueAsBoolEiib
libwx_gtk2u_adv-2.8.so.0:_ZN15wxGridTableBase14SetValueAsLongEiil
libwx_gtk2u_adv-2.8.so.0:_ZN15wxGridTableBase15SetAttrProviderEP22wxGridCellAttrProvider
libwx_gtk2u_adv-2.8.so.0:_ZN15wxGridTableBase16GetColLabelValueEi
libwx_gtk2u_adv-2.8.so.0:_ZN15wxGridTableBase16GetRowLabelValueEi
libwx_gtk2u_adv-2.8.so.0:_ZN15wxGridTableBase16GetValueAsCustomEiiRK8wxString
libwx_gtk2u_adv-2.8.so.0:_ZN15wxGridTableBase16GetValueAsDoubleEii
libwx_gtk2u_adv-2.8.so.0:_ZN15wxGridTableBase16SetValueAsCustomEiiRK8wxStringPv
libwx_gtk2u_adv-2.8.so.0:_ZN15wxGridTableBase16SetValueAsDoubleEiid
libwx_gtk2u_adv-2.8.so.0:_ZN15wxGridTableBase17CanHaveAttributesEv
libwx_gtk2u_adv-2.8.so.0:_ZN15wxGridTableBase7GetAttrEiiN14wxGridCellAttr10wxAttrKindE
libwx_gtk2u_adv-2.8.so.0:_ZN15wxGridTableBase7SetAttrEP14wxGridCellAttrii
libwx_gtk2u_adv-2.8.so.0:_ZN15wxGridTableBaseC1Ev
libwx_gtk2u_adv-2.8.so.0:_ZN15wxGridTableBaseC2Ev
libwx_gtk2u_adv-2.8.so.0:_ZN15wxGridTableBaseD0Ev
libwx_gtk2u_adv-2.8.so.0:_ZN15wxGridTableBaseD1Ev
libwx_gtk2u_adv-2.8.so.0:_ZN15wxGridTableBaseD2Ev
libwx_gtk2u_adv-2.8.so.0:_ZN15wxHyperlinkCtrl10OnLeftDownER12wxMouseEvent
libwx_gtk2u_adv-2.8.so.0:_ZN15wxHyperlinkCtrl11OnPopUpCopyER14wxCommandEvent
libwx_gtk2u_adv-2.8.so.0:_ZN15wxHyperlinkCtrl13DoContextMenuERK7wxPoint
libwx_gtk2u_adv-2.8.so.0:_ZN15wxHyperlinkCtrl13OnLeaveWindowER12wxMouseEvent
libwx_gtk2u_adv-2.8.so.0:_ZN15wxHyperlinkCtrl14wxCreateObjectEv
libwx_gtk2u_adv-2.8.so.0:_ZN15wxHyperlinkCtrl15SetNormalColourERK8wxColour
libwx_gtk2u_adv-2.8.so.0:_ZN15wxHyperlinkCtrl16SetVisitedColourERK8wxColour
libwx_gtk2u_adv-2.8.so.0:_ZN15wxHyperlinkCtrl6CreateEP8wxWindowiRK8wxStringS4_RK7wxPointRK6wxSizelS4_
libwx_gtk2u_adv-2.8.so.0:_ZN15wxHyperlinkCtrl6OnSizeER11wxSizeEvent
libwx_gtk2u_adv-2.8.so.0:_ZN15wxHyperlinkCtrl7OnPaintER12wxPaintEvent
libwx_gtk2u_adv-2.8.so.0:_ZN15wxHyperlinkCtrl8OnLeftUpER12wxMouseEvent
libwx_gtk2u_adv-2.8.so.0:_ZN15wxHyperlinkCtrl8OnMotionER12wxMouseEvent
libwx_gtk2u_adv-2.8.so.0:_ZN15wxHyperlinkCtrl9OnRightUpER12wxMouseEvent
libwx_gtk2u_adv-2.8.so.0:_ZN16wxBitmapComboBox10PostCreateEv
libwx_gtk2u_adv-2.8.so.0:_ZN16wxBitmapComboBox11OnAddBitmapERK8wxBitmap
libwx_gtk2u_adv-2.8.so.0:_ZN16wxBitmapComboBox13SetItemBitmapEjRK8wxBitmap
libwx_gtk2u_adv-2.8.so.0:_ZN16wxBitmapComboBox14DoInsertBitmapERK8wxBitmapj
libwx_gtk2u_adv-2.8.so.0:_ZN16wxBitmapComboBox14wxCreateObjectEv
libwx_gtk2u_adv-2.8.so.0:_ZN16wxBitmapComboBox15DetermineIndentEv
libwx_gtk2u_adv-2.8.so.0:_ZN16wxBitmapComboBox17DoAppendWithImageERK8wxStringRK8wxBitmap
libwx_gtk2u_adv-2.8.so.0:_ZN16wxBitmapComboBox17DoInsertWithImageERK8wxStringRK8wxBitmapj
libwx_gtk2u_adv-2.8.so.0:_ZN16wxBitmapComboBox4InitEv
libwx_gtk2u_adv-2.8.so.0:_ZN16wxBitmapComboBox5ClearEv
libwx_gtk2u_adv-2.8.so.0:_ZN16wxBitmapComboBox6CreateEP8wxWindowiRK8wxStringRK7wxPointRK6wxSizeRK13wxArrayStringlRK11wxValidatorS4_
libwx_gtk2u_adv-2.8.so.0:_ZN16wxBitmapComboBox6CreateEP8wxWindowiRK8wxStringRK7wxPointRK6wxSizeiPS3_lRK11wxValidatorS4_
libwx_gtk2u_adv-2.8.so.0:_ZN16wxBitmapComboBox6DeleteEj
libwx_gtk2u_adv-2.8.so.0:_ZN16wxBitmapComboBox6InsertERK8wxStringRK8wxBitmapjP12wxClientData
libwx_gtk2u_adv-2.8.so.0:_ZN16wxBitmapComboBox6InsertERK8wxStringRK8wxBitmapjPv
libwx_gtk2u_adv-2.8.so.0:_ZN16wxBitmapComboBox6OnSizeER11wxSizeEvent
libwx_gtk2u_adv-2.8.so.0:_ZN16wxBitmapComboBox7SetFontERK6wxFont
libwx_gtk2u_adv-2.8.so.0:_ZN16wxBitmapComboBox8DoAppendERK8wxString
libwx_gtk2u_adv-2.8.so.0:_ZN16wxBitmapComboBox8DoInsertERK8wxStringj
libwx_gtk2u_adv-2.8.so.0:_ZN16wxBitmapComboBoxC1EP8wxWindowiRK8wxStringRK7wxPointRK6wxSizeRK13wxArrayStringlRK11wxValidatorS4_
libwx_gtk2u_adv-2.8.so.0:_ZN16wxBitmapComboBoxC2EP8wxWindowiRK8wxStringRK7wxPointRK6wxSizeRK13wxArrayStringlRK11wxValidatorS4_
libwx_gtk2u_adv-2.8.so.0:_ZN16wxBitmapComboBoxD0Ev
libwx_gtk2u_adv-2.8.so.0:_ZN16wxBitmapComboBoxD1Ev
libwx_gtk2u_adv-2.8.so.0:_ZN16wxBitmapComboBoxD2Ev
libwx_gtk2u_adv-2.8.so.0:_ZN16wxDatePickerCtrl14wxCreateObjectEv
libwx_gtk2u_adv-2.8.so.0:_ZN16wxGridCellEditor11StartingKeyER10wxKeyEvent
libwx_gtk2u_adv-2.8.so.0:_ZN16wxGridCellEditor12HandleReturnER10wxKeyEvent
libwx_gtk2u_adv-2.8.so.0:_ZN16wxGridCellEditor13IsAcceptedKeyER10wxKeyEvent
libwx_gtk2u_adv-2.8.so.0:_ZN16wxGridCellEditor13StartingClickEv
libwx_gtk2u_adv-2.8.so.0:_ZN16wxGridCellEditor15PaintBackgroundERK6wxRectP14wxGridCellAttr
libwx_gtk2u_adv-2.8.so.0:_ZN16wxGridCellEditor4ShowEbP14wxGridCellAttr
libwx_gtk2u_adv-2.8.so.0:_ZN16wxGridCellEditor6CreateEP8wxWindowiP12wxEvtHandler
libwx_gtk2u_adv-2.8.so.0:_ZN16wxGridCellEditor7DestroyEv
libwx_gtk2u_adv-2.8.so.0:_ZN16wxGridCellEditor7SetSizeERK6wxRect
libwx_gtk2u_adv-2.8.so.0:_ZN16wxGridCellEditorC1Ev
libwx_gtk2u_adv-2.8.so.0:_ZN16wxGridCellEditorC2Ev
libwx_gtk2u_adv-2.8.so.0:_ZN16wxGridCellEditorD0Ev
libwx_gtk2u_adv-2.8.so.0:_ZN16wxGridCellEditorD1Ev
libwx_gtk2u_adv-2.8.so.0:_ZN16wxGridCellEditorD2Ev
libwx_gtk2u_adv-2.8.so.0:_ZN16wxGridCellWorker13SetParametersERK8wxString
libwx_gtk2u_adv-2.8.so.0:_ZN16wxGridCellWorkerD0Ev
libwx_gtk2u_adv-2.8.so.0:_ZN16wxGridCellWorkerD1Ev
libwx_gtk2u_adv-2.8.so.0:_ZN16wxGridCellWorkerD2Ev
libwx_gtk2u_adv-2.8.so.0:_ZN16wxHyperlinkEvent14wxCreateObjectEv
libwx_gtk2u_adv-2.8.so.0:_ZN16wxJoystickThread5EntryEv
libwx_gtk2u_adv-2.8.so.0:_ZN16wxJoystickThreadC1Eii
libwx_gtk2u_adv-2.8.so.0:_ZN16wxJoystickThreadC2Eii
libwx_gtk2u_adv-2.8.so.0:_ZN17wxFileTipProvider6GetTipEv
libwx_gtk2u_adv-2.8.so.0:_ZN17wxFileTipProviderC1ERK8wxStringm
libwx_gtk2u_adv-2.8.so.0:_ZN17wxFileTipProviderC2ERK8wxStringm
libwx_gtk2u_adv-2.8.so.0:_ZN17wxGridStringArray3AddERK13wxArrayStringm
libwx_gtk2u_adv-2.8.so.0:_ZN17wxGridStringArray6DoCopyERKS_
libwx_gtk2u_adv-2.8.so.0:_ZN17wxGridStringArray6InsertERK13wxArrayStringmm
libwx_gtk2u_adv-2.8.so.0:_ZN17wxGridStringArray7DoEmptyEv
libwx_gtk2u_adv-2.8.so.0:_ZN17wxGridStringArray8RemoveAtEmm
libwx_gtk2u_adv-2.8.so.0:_ZN17wxGridStringArrayC1ERKS_
libwx_gtk2u_adv-2.8.so.0:_ZN17wxGridStringArrayC2ERKS_
libwx_gtk2u_adv-2.8.so.0:_ZN17wxGridStringArrayD1Ev
libwx_gtk2u_adv-2.8.so.0:_ZN17wxGridStringArrayD2Ev
libwx_gtk2u_adv-2.8.so.0:_ZN17wxGridStringArrayaSERKS_
libwx_gtk2u_adv-2.8.so.0:_ZN17wxGridStringTable10AppendColsEm
libwx_gtk2u_adv-2.8.so.0:_ZN17wxGridStringTable10AppendRowsEm
libwx_gtk2u_adv-2.8.so.0:_ZN17wxGridStringTable10DeleteColsEmm
libwx_gtk2u_adv-2.8.so.0:_ZN17wxGridStringTable10DeleteRowsEmm
libwx_gtk2u_adv-2.8.so.0:_ZN17wxGridStringTable10InsertColsEmm
libwx_gtk2u_adv-2.8.so.0:_ZN17wxGridStringTable10InsertRowsEmm
libwx_gtk2u_adv-2.8.so.0:_ZN17wxGridStringTable11IsEmptyCellEii
libwx_gtk2u_adv-2.8.so.0:_ZN17wxGridStringTable13GetNumberColsEv
libwx_gtk2u_adv-2.8.so.0:_ZN17wxGridStringTable13GetNumberRowsEv
libwx_gtk2u_adv-2.8.so.0:_ZN17wxGridStringTable14wxCreateObjectEv
libwx_gtk2u_adv-2.8.so.0:_ZN17wxGridStringTable16GetColLabelValueEi
libwx_gtk2u_adv-2.8.so.0:_ZN17wxGridStringTable16GetRowLabelValueEi
libwx_gtk2u_adv-2.8.so.0:_ZN17wxGridStringTable16SetColLabelValueEiRK8wxString
libwx_gtk2u_adv-2.8.so.0:_ZN17wxGridStringTable16SetRowLabelValueEiRK8wxString
libwx_gtk2u_adv-2.8.so.0:_ZN17wxGridStringTable5ClearEv
libwx_gtk2u_adv-2.8.so.0:_ZN17wxGridStringTable8GetValueEii
libwx_gtk2u_adv-2.8.so.0:_ZN17wxGridStringTable8SetValueEiiRK8wxString
libwx_gtk2u_adv-2.8.so.0:_ZN17wxGridStringTableC1Eii
libwx_gtk2u_adv-2.8.so.0:_ZN17wxGridStringTableC1Ev
libwx_gtk2u_adv-2.8.so.0:_ZN17wxGridStringTableC2Eii
libwx_gtk2u_adv-2.8.so.0:_ZN17wxGridStringTableC2Ev
libwx_gtk2u_adv-2.8.so.0:_ZN17wxGridStringTableD0Ev
libwx_gtk2u_adv-2.8.so.0:_ZN17wxGridStringTableD1Ev
libwx_gtk2u_adv-2.8.so.0:_ZN17wxGridStringTableD2Ev
libwx_gtk2u_adv-2.8.so.0:_ZN17wxLayoutAlgorithm11LayoutFrameEP7wxFrameP8wxWindow
libwx_gtk2u_adv-2.8.so.0:_ZN17wxLayoutAlgorithm12LayoutWindowEP8wxWindowS1_
libwx_gtk2u_adv-2.8.so.0:_ZN17wxLayoutAlgorithm14LayoutMDIFrameEP16wxMDIParentFrameP6wxRect
libwx_gtk2u_adv-2.8.so.0:_ZN17wxSoundBackendOSS4PlayEP11wxSoundDatajPV21wxSoundPlaybackStatus
libwx_gtk2u_adv-2.8.so.0:_ZN17wxSoundBackendOSS7InitDSPEiPK11wxSoundData
libwx_gtk2u_adv-2.8.so.0:_ZN17wxSoundBackendOSS7OpenDSPEPK11wxSoundData
libwx_gtk2u_adv-2.8.so.0:_ZN17wxSoundBackendSDL10CloseAudioEv
libwx_gtk2u_adv-2.8.so.0:_ZN17wxSoundBackendSDL15FillAudioBufferEPhi
libwx_gtk2u_adv-2.8.so.0:_ZN17wxSoundBackendSDL16FinishedPlaybackEv
libwx_gtk2u_adv-2.8.so.0:_ZN17wxSoundBackendSDL4PlayEP11wxSoundDatajPV21wxSoundPlaybackStatus
libwx_gtk2u_adv-2.8.so.0:_ZN17wxSoundBackendSDL4StopEv
libwx_gtk2u_adv-2.8.so.0:_ZN17wxSoundBackendSDL9OpenAudioEv
libwx_gtk2u_adv-2.8.so.0:_ZN17wxSoundBackendSDLD0Ev
libwx_gtk2u_adv-2.8.so.0:_ZN17wxSoundBackendSDLD1Ev
libwx_gtk2u_adv-2.8.so.0:_ZN17wxSoundBackendSDLD2Ev
libwx_gtk2u_adv-2.8.so.0:_ZN17wxTaskBarIconArea11OnMenuEventER14wxCommandEvent
libwx_gtk2u_adv-2.8.so.0:_ZN17wxTaskBarIconArea11SetTrayIconERK8wxBitmap
libwx_gtk2u_adv-2.8.so.0:_ZN17wxTaskBarIconArea12OnMouseEventER12wxMouseEvent
libwx_gtk2u_adv-2.8.so.0:_ZN17wxTaskBarIconArea12OnSizeChangeER11wxSizeEvent
libwx_gtk2u_adv-2.8.so.0:_ZN17wxTaskBarIconArea21SetLegacyWMPropertiesEv
libwx_gtk2u_adv-2.8.so.0:_ZN17wxTaskBarIconArea7OnPaintER12wxPaintEvent
libwx_gtk2u_adv-2.8.so.0:_ZN17wxTaskBarIconAreaC1EP13wxTaskBarIconRK8wxBitmap
libwx_gtk2u_adv-2.8.so.0:_ZN17wxTaskBarIconAreaC2EP13wxTaskBarIconRK8wxBitmap
libwx_gtk2u_adv-2.8.so.0:_ZN17wxTaskBarIconBase17OnRightButtonDownER18wxTaskBarIconEvent
libwx_gtk2u_adv-2.8.so.0:_ZN18wxGridCellAttrData14UpdateAttrColsEmi
libwx_gtk2u_adv-2.8.so.0:_ZN18wxGridCellAttrData14UpdateAttrRowsEmi
libwx_gtk2u_adv-2.8.so.0:_ZN18wxGridCellAttrData7SetAttrEP14wxGridCellAttrii
libwx_gtk2u_adv-2.8.so.0:_ZN18wxGridCellRenderer4DrawER6wxGridR14wxGridCellAttrR4wxDCRK6wxRectiib
libwx_gtk2u_adv-2.8.so.0:_ZN18wxGridTableMessageC1EP15wxGridTableBaseiii
libwx_gtk2u_adv-2.8.so.0:_ZN18wxGridTableMessageC1Ev
libwx_gtk2u_adv-2.8.so.0:_ZN18wxGridTableMessageC2EP15wxGridTableBaseiii
libwx_gtk2u_adv-2.8.so.0:_ZN18wxGridTableMessageC2Ev
libwx_gtk2u_adv-2.8.so.0:_ZN18wxGridTypeRegistry11GetRendererEi
libwx_gtk2u_adv-2.8.so.0:_ZN18wxGridTypeRegistry12FindDataTypeERK8wxString
libwx_gtk2u_adv-2.8.so.0:_ZN18wxGridTypeRegistry16RegisterDataTypeERK8wxStringP18wxGridCellRendererP16wxGridCellEditor
libwx_gtk2u_adv-2.8.so.0:_ZN18wxGridTypeRegistry19FindOrCloneDataTypeERK8wxString
libwx_gtk2u_adv-2.8.so.0:_ZN18wxGridTypeRegistry22FindRegisteredDataTypeERK8wxString
libwx_gtk2u_adv-2.8.so.0:_ZN18wxGridTypeRegistry9GetEditorEi
libwx_gtk2u_adv-2.8.so.0:_ZN18wxGridTypeRegistryD1Ev
libwx_gtk2u_adv-2.8.so.0:_ZN18wxGridTypeRegistryD2Ev
libwx_gtk2u_adv-2.8.so.0:_ZN18wxSashLayoutWindow17OnCalculateLayoutER22wxCalculateLayoutEvent
libwx_gtk2u_adv-2.8.so.0:_ZN18wxSashLayoutWindow17OnQueryLayoutInfoER22wxQueryLayoutInfoEvent
libwx_gtk2u_adv-2.8.so.0:_ZN18wxSashLayoutWindow4InitEv
libwx_gtk2u_adv-2.8.so.0:_ZN18wxSashLayoutWindow6CreateEP8wxWindowiRK7wxPointRK6wxSizelRK8wxString
libwx_gtk2u_adv-2.8.so.0:_ZN18wxWizardPageSimple14wxCreateObjectEv
libwx_gtk2u_adv-2.8.so.0:_ZN19wxAnimationCtrlBase17SetInactiveBitmapERK8wxBitmap
libwx_gtk2u_adv-2.8.so.0:_ZN19wxAnimationCtrlBase17UpdateStaticImageEv
libwx_gtk2u_adv-2.8.so.0:_ZN19wxExtHelpController10DeleteListEv
libwx_gtk2u_adv-2.8.so.0:_ZN19wxExtHelpController10InitializeERK8wxString
libwx_gtk2u_adv-2.8.so.0:_ZN19wxExtHelpController10SetBrowserERK8wxStringb
libwx_gtk2u_adv-2.8.so.0:_ZN19wxExtHelpController11DisplayHelpERK8wxString
libwx_gtk2u_adv-2.8.so.0:_ZN19wxExtHelpController12DisplayBlockEl
libwx_gtk2u_adv-2.8.so.0:_ZN19wxExtHelpController13KeywordSearchERK8wxString16wxHelpSearchMode
libwx_gtk2u_adv-2.8.so.0:_ZN19wxExtHelpController14DisplaySectionERK8wxString
libwx_gtk2u_adv-2.8.so.0:_ZN19wxExtHelpController14DisplaySectionEi
libwx_gtk2u_adv-2.8.so.0:_ZN19wxExtHelpController15DisplayContentsEv
libwx_gtk2u_adv-2.8.so.0:_ZN19wxExtHelpController16ParseMapFileLineERK8wxString
libwx_gtk2u_adv-2.8.so.0:_ZN19wxExtHelpController4QuitEv
libwx_gtk2u_adv-2.8.so.0:_ZN19wxExtHelpController6OnQuitEv
libwx_gtk2u_adv-2.8.so.0:_ZN19wxExtHelpController8LoadFileERK8wxString
libwx_gtk2u_adv-2.8.so.0:_ZN19wxExtHelpController9SetViewerERK8wxStringl
libwx_gtk2u_adv-2.8.so.0:_ZN19wxExtHelpControllerC1EP8wxWindow
libwx_gtk2u_adv-2.8.so.0:_ZN19wxExtHelpControllerC2EP8wxWindow
libwx_gtk2u_adv-2.8.so.0:_ZN19wxExtHelpControllerD0Ev
libwx_gtk2u_adv-2.8.so.0:_ZN19wxExtHelpControllerD1Ev
libwx_gtk2u_adv-2.8.so.0:_ZN19wxExtHelpControllerD2Ev
libwx_gtk2u_adv-2.8.so.0:_ZN20wxGenericAboutDialog10AddControlEP8wxWindow
libwx_gtk2u_adv-2.8.so.0:_ZN20wxGenericAboutDialog10AddControlEP8wxWindowRK12wxSizerFlags
libwx_gtk2u_adv-2.8.so.0:_ZN20wxGenericAboutDialog18AddCollapsiblePaneERK8wxStringS2_
libwx_gtk2u_adv-2.8.so.0:_ZN20wxGenericAboutDialog6CreateERK17wxAboutDialogInfo
libwx_gtk2u_adv-2.8.so.0:_ZN20wxGenericAboutDialog7AddTextERK8wxString
libwx_gtk2u_adv-2.8.so.0:_ZN20wxGridCellBoolEditor11IsTrueValueERK8wxString
libwx_gtk2u_adv-2.8.so.0:_ZN20wxGridCellBoolEditor11StartingKeyER10wxKeyEvent
libwx_gtk2u_adv-2.8.so.0:_ZN20wxGridCellBoolEditor13IsAcceptedKeyER10wxKeyEvent
libwx_gtk2u_adv-2.8.so.0:_ZN20wxGridCellBoolEditor13StartingClickEv
libwx_gtk2u_adv-2.8.so.0:_ZN20wxGridCellBoolEditor15UseStringValuesERK8wxStringS2_
libwx_gtk2u_adv-2.8.so.0:_ZN20wxGridCellBoolEditor4ShowEbP14wxGridCellAttr
libwx_gtk2u_adv-2.8.so.0:_ZN20wxGridCellBoolEditor5ResetEv
libwx_gtk2u_adv-2.8.so.0:_ZN20wxGridCellBoolEditor6CreateEP8wxWindowiP12wxEvtHandler
libwx_gtk2u_adv-2.8.so.0:_ZN20wxGridCellBoolEditor7EndEditEiiP6wxGrid
libwx_gtk2u_adv-2.8.so.0:_ZN20wxGridCellBoolEditor7SetSizeERK6wxRect
libwx_gtk2u_adv-2.8.so.0:_ZN20wxGridCellBoolEditor9BeginEditEiiP6wxGrid
libwx_gtk2u_adv-2.8.so.0:_ZN20wxGridCellEnumEditor7EndEditEiiP6wxGrid
libwx_gtk2u_adv-2.8.so.0:_ZN20wxGridCellEnumEditor9BeginEditEiiP6wxGrid
libwx_gtk2u_adv-2.8.so.0:_ZN20wxGridCellEnumEditorC1ERK8wxString
libwx_gtk2u_adv-2.8.so.0:_ZN20wxGridCellEnumEditorC2ERK8wxString
libwx_gtk2u_adv-2.8.so.0:_ZN20wxGridCellTextEditor11DoBeginEditERK8wxString
libwx_gtk2u_adv-2.8.so.0:_ZN20wxGridCellTextEditor11StartingKeyER10wxKeyEvent
libwx_gtk2u_adv-2.8.so.0:_ZN20wxGridCellTextEditor12HandleReturnER10wxKeyEvent
libwx_gtk2u_adv-2.8.so.0:_ZN20wxGridCellTextEditor13IsAcceptedKeyER10wxKeyEvent
libwx_gtk2u_adv-2.8.so.0:_ZN20wxGridCellTextEditor13SetParametersERK8wxString
libwx_gtk2u_adv-2.8.so.0:_ZN20wxGridCellTextEditor15PaintBackgroundERK6wxRectP14wxGridCellAttr
libwx_gtk2u_adv-2.8.so.0:_ZN20wxGridCellTextEditor5ResetEv
libwx_gtk2u_adv-2.8.so.0:_ZN20wxGridCellTextEditor6CreateEP8wxWindowiP12wxEvtHandler
libwx_gtk2u_adv-2.8.so.0:_ZN20wxGridCellTextEditor7DoResetERK8wxString
libwx_gtk2u_adv-2.8.so.0:_ZN20wxGridCellTextEditor7EndEditEiiP6wxGrid
libwx_gtk2u_adv-2.8.so.0:_ZN20wxGridCellTextEditor7SetSizeERK6wxRect
libwx_gtk2u_adv-2.8.so.0:_ZN20wxGridCellTextEditor9BeginEditEiiP6wxGrid
libwx_gtk2u_adv-2.8.so.0:_ZN20wxGridCellTextEditorC1Ev
libwx_gtk2u_adv-2.8.so.0:_ZN20wxGridCellTextEditorC2Ev
libwx_gtk2u_adv-2.8.so.0:_ZN20wxGridColLabelWindow12OnMouseEventER12wxMouseEvent
libwx_gtk2u_adv-2.8.so.0:_ZN20wxGridColLabelWindow12OnMouseWheelER12wxMouseEvent
libwx_gtk2u_adv-2.8.so.0:_ZN20wxGridColLabelWindow14wxCreateObjectEv
libwx_gtk2u_adv-2.8.so.0:_ZN20wxGridColLabelWindow6OnCharER10wxKeyEvent
libwx_gtk2u_adv-2.8.so.0:_ZN20wxGridColLabelWindow7OnKeyUpER10wxKeyEvent
libwx_gtk2u_adv-2.8.so.0:_ZN20wxGridColLabelWindow7OnPaintER12wxPaintEvent
libwx_gtk2u_adv-2.8.so.0:_ZN20wxGridColLabelWindow9OnKeyDownER10wxKeyEvent
libwx_gtk2u_adv-2.8.so.0:_ZN20wxGridColLabelWindowC1EP6wxGridiRK7wxPointRK6wxSize
libwx_gtk2u_adv-2.8.so.0:_ZN20wxGridColLabelWindowC2EP6wxGridiRK7wxPointRK6wxSize
libwx_gtk2u_adv-2.8.so.0:_ZN20wxGridRowLabelWindow12OnMouseEventER12wxMouseEvent
libwx_gtk2u_adv-2.8.so.0:_ZN20wxGridRowLabelWindow12OnMouseWheelER12wxMouseEvent
libwx_gtk2u_adv-2.8.so.0:_ZN20wxGridRowLabelWindow14wxCreateObjectEv
libwx_gtk2u_adv-2.8.so.0:_ZN20wxGridRowLabelWindow6OnCharER10wxKeyEvent
libwx_gtk2u_adv-2.8.so.0:_ZN20wxGridRowLabelWindow7OnKeyUpER10wxKeyEvent
libwx_gtk2u_adv-2.8.so.0:_ZN20wxGridRowLabelWindow7OnPaintER12wxPaintEvent
libwx_gtk2u_adv-2.8.so.0:_ZN20wxGridRowLabelWindow9OnKeyDownER10wxKeyEvent
libwx_gtk2u_adv-2.8.so.0:_ZN20wxGridRowLabelWindowC1EP6wxGridiRK7wxPointRK6wxSize
libwx_gtk2u_adv-2.8.so.0:_ZN20wxGridRowLabelWindowC2EP6wxGridiRK7wxPointRK6wxSize
libwx_gtk2u_adv-2.8.so.0:_ZN20wxOwnerDrawnComboBox14wxCreateObjectEv
libwx_gtk2u_adv-2.8.so.0:_ZN20wxOwnerDrawnComboBox17DoSetPopupControlEP12wxComboPopup
libwx_gtk2u_adv-2.8.so.0:_ZN20wxOwnerDrawnComboBox19DoSetItemClientDataEjPv
libwx_gtk2u_adv-2.8.so.0:_ZN20wxOwnerDrawnComboBox21DoSetItemClientObjectEjP12wxClientData
libwx_gtk2u_adv-2.8.so.0:_ZN20wxOwnerDrawnComboBox4InitEv
libwx_gtk2u_adv-2.8.so.0:_ZN20wxOwnerDrawnComboBox5ClearEv
libwx_gtk2u_adv-2.8.so.0:_ZN20wxOwnerDrawnComboBox6CreateEP8wxWindowiRK8wxStringRK7wxPointRK6wxSizeRK13wxArrayStringlRK11wxValidatorS4_
libwx_gtk2u_adv-2.8.so.0:_ZN20wxOwnerDrawnComboBox6CreateEP8wxWindowiRK8wxStringRK7wxPointRK6wxSizeiPS3_lRK11wxValidatorS4_
libwx_gtk2u_adv-2.8.so.0:_ZN20wxOwnerDrawnComboBox6CreateEP8wxWindowiRK8wxStringRK7wxPointRK6wxSizelRK11wxValidatorS4_
libwx_gtk2u_adv-2.8.so.0:_ZN20wxOwnerDrawnComboBox6DeleteEj
libwx_gtk2u_adv-2.8.so.0:_ZN20wxOwnerDrawnComboBox6SelectEi
libwx_gtk2u_adv-2.8.so.0:_ZN20wxOwnerDrawnComboBox8DoAppendERK8wxString
libwx_gtk2u_adv-2.8.so.0:_ZN20wxOwnerDrawnComboBox8DoInsertERK8wxStringj
libwx_gtk2u_adv-2.8.so.0:_ZN20wxOwnerDrawnComboBox9SetStringEjRK8wxString
libwx_gtk2u_adv-2.8.so.0:_ZN20wxOwnerDrawnComboBoxC1EP8wxWindowiRK8wxStringRK7wxPointRK6wxSizeRK13wxArrayStringlRK11wxValidatorS4_
libwx_gtk2u_adv-2.8.so.0:_ZN20wxOwnerDrawnComboBoxC2EP8wxWindowiRK8wxStringRK7wxPointRK6wxSizeRK13wxArrayStringlRK11wxValidatorS4_
libwx_gtk2u_adv-2.8.so.0:_ZN20wxOwnerDrawnComboBoxD0Ev
libwx_gtk2u_adv-2.8.so.0:_ZN20wxOwnerDrawnComboBoxD1Ev
libwx_gtk2u_adv-2.8.so.0:_ZN20wxOwnerDrawnComboBoxD2Ev
libwx_gtk2u_adv-2.8.so.0:_ZN20wxSoundCleanupModule14wxCreateObjectEv
libwx_gtk2u_adv-2.8.so.0:_ZN20wxSplashScreenWindow12OnMouseEventER12wxMouseEvent
libwx_gtk2u_adv-2.8.so.0:_ZN20wxSplashScreenWindow17OnEraseBackgroundER12wxEraseEvent
libwx_gtk2u_adv-2.8.so.0:_ZN20wxSplashScreenWindow6OnCharER10wxKeyEvent
libwx_gtk2u_adv-2.8.so.0:_ZN20wxSplashScreenWindow7OnPaintER12wxPaintEvent
libwx_gtk2u_adv-2.8.so.0:_ZN20wxSplashScreenWindowC1ERK8wxBitmapP8wxWindowiRK7wxPointRK6wxSizel
libwx_gtk2u_adv-2.8.so.0:_ZN20wxSplashScreenWindowC2ERK8wxBitmapP8wxWindowiRK7wxPointRK6wxSizel
libwx_gtk2u_adv-2.8.so.0:_ZN20wxVListBoxComboPopup10CalcWidthsEv
libwx_gtk2u_adv-2.8.so.0:_ZN20wxVListBoxComboPopup10LazyCreateEv
libwx_gtk2u_adv-2.8.so.0:_ZN20wxVListBoxComboPopup11OnLeftClickER12wxMouseEvent
libwx_gtk2u_adv-2.8.so.0:_ZN20wxVListBoxComboPopup11OnMouseMoveER12wxMouseEvent
libwx_gtk2u_adv-2.8.so.0:_ZN20wxVListBoxComboPopup12SetSelectionEi
libwx_gtk2u_adv-2.8.so.0:_ZN20wxVListBoxComboPopup14SetStringValueERK8wxString
libwx_gtk2u_adv-2.8.so.0:_ZN20wxVListBoxComboPopup15GetAdjustedSizeEiii
libwx_gtk2u_adv-2.8.so.0:_ZN20wxVListBoxComboPopup15OnComboKeyEventER10wxKeyEvent
libwx_gtk2u_adv-2.8.so.0:_ZN20wxVListBoxComboPopup16ClearClientDatasEv
libwx_gtk2u_adv-2.8.so.0:_ZN20wxVListBoxComboPopup16DismissWithEventEv
libwx_gtk2u_adv-2.8.so.0:_ZN20wxVListBoxComboPopup17PaintComboControlER4wxDCRK6wxRect
libwx_gtk2u_adv-2.8.so.0:_ZN20wxVListBoxComboPopup17SendComboBoxEventEi
libwx_gtk2u_adv-2.8.so.0:_ZN20wxVListBoxComboPopup17SetItemClientDataEjPv16wxClientDataType
libwx_gtk2u_adv-2.8.so.0:_ZN20wxVListBoxComboPopup18OnComboDoubleClickEv
libwx_gtk2u_adv-2.8.so.0:_ZN20wxVListBoxComboPopup21StopPartialCompletionEv
libwx_gtk2u_adv-2.8.so.0:_ZN20wxVListBoxComboPopup4InitEv
libwx_gtk2u_adv-2.8.so.0:_ZN20wxVListBoxComboPopup5ClearEv
libwx_gtk2u_adv-2.8.so.0:_ZN20wxVListBoxComboPopup5OnKeyER10wxKeyEvent
libwx_gtk2u_adv-2.8.so.0:_ZN20wxVListBoxComboPopup6AppendERK8wxString
libwx_gtk2u_adv-2.8.so.0:_ZN20wxVListBoxComboPopup6CreateEP8wxWindow
libwx_gtk2u_adv-2.8.so.0:_ZN20wxVListBoxComboPopup6DeleteEj
libwx_gtk2u_adv-2.8.so.0:_ZN20wxVListBoxComboPopup6InsertERK8wxStringi
libwx_gtk2u_adv-2.8.so.0:_ZN20wxVListBoxComboPopup7OnPopupEv
libwx_gtk2u_adv-2.8.so.0:_ZN20wxVListBoxComboPopup8PopulateERK13wxArrayString
libwx_gtk2u_adv-2.8.so.0:_ZN20wxVListBoxComboPopup9HandleKeyEibw
libwx_gtk2u_adv-2.8.so.0:_ZN20wxVListBoxComboPopup9SetStringEiRK8wxString
libwx_gtk2u_adv-2.8.so.0:_ZN20wxVListBoxComboPopupD0Ev
libwx_gtk2u_adv-2.8.so.0:_ZN20wxVListBoxComboPopupD1Ev
libwx_gtk2u_adv-2.8.so.0:_ZN20wxVListBoxComboPopupD2Ev
libwx_gtk2u_adv-2.8.so.0:_ZN21wxGridCellCoordsArray3AddERK16wxGridCellCoordsm
libwx_gtk2u_adv-2.8.so.0:_ZN21wxGridCellCoordsArray6DoCopyERKS_
libwx_gtk2u_adv-2.8.so.0:_ZN21wxGridCellCoordsArray6InsertERK16wxGridCellCoordsmm
libwx_gtk2u_adv-2.8.so.0:_ZN21wxGridCellCoordsArray7DoEmptyEv
libwx_gtk2u_adv-2.8.so.0:_ZN21wxGridCellCoordsArray8RemoveAtEmm
libwx_gtk2u_adv-2.8.so.0:_ZN21wxGridCellCoordsArrayC1ERKS_
libwx_gtk2u_adv-2.8.so.0:_ZN21wxGridCellCoordsArrayC2ERKS_
libwx_gtk2u_adv-2.8.so.0:_ZN21wxGridCellCoordsArrayD1Ev
libwx_gtk2u_adv-2.8.so.0:_ZN21wxGridCellCoordsArrayD2Ev
libwx_gtk2u_adv-2.8.so.0:_ZN21wxGridCellCoordsArrayaSERKS_
libwx_gtk2u_adv-2.8.so.0:_ZN21wxGridCellFloatEditor11StartingKeyER10wxKeyEvent
libwx_gtk2u_adv-2.8.so.0:_ZN21wxGridCellFloatEditor13IsAcceptedKeyER10wxKeyEvent
libwx_gtk2u_adv-2.8.so.0:_ZN21wxGridCellFloatEditor13SetParametersERK8wxString
libwx_gtk2u_adv-2.8.so.0:_ZN21wxGridCellFloatEditor5ResetEv
libwx_gtk2u_adv-2.8.so.0:_ZN21wxGridCellFloatEditor6CreateEP8wxWindowiP12wxEvtHandler
libwx_gtk2u_adv-2.8.so.0:_ZN21wxGridCellFloatEditor7EndEditEiiP6wxGrid
libwx_gtk2u_adv-2.8.so.0:_ZN21wxGridCellFloatEditor9BeginEditEiiP6wxGrid
libwx_gtk2u_adv-2.8.so.0:_ZN21wxGridCellFloatEditorC1Eii
libwx_gtk2u_adv-2.8.so.0:_ZN21wxGridCellFloatEditorC2Eii
libwx_gtk2u_adv-2.8.so.0:_ZN21wxPropertySheetDialog10OnActivateER15wxActivateEvent
libwx_gtk2u_adv-2.8.so.0:_ZN21wxPropertySheetDialog11AddBookCtrlEP7wxSizer
libwx_gtk2u_adv-2.8.so.0:_ZN21wxPropertySheetDialog12LayoutDialogEi
libwx_gtk2u_adv-2.8.so.0:_ZN21wxPropertySheetDialog13CreateButtonsEi
libwx_gtk2u_adv-2.8.so.0:_ZN21wxPropertySheetDialog14CreateBookCtrlEv
libwx_gtk2u_adv-2.8.so.0:_ZN21wxPropertySheetDialog14wxCreateObjectEv
libwx_gtk2u_adv-2.8.so.0:_ZN21wxPropertySheetDialog4InitEv
libwx_gtk2u_adv-2.8.so.0:_ZN21wxPropertySheetDialog6CreateEP8wxWindowiRK8wxStringRK7wxPointRK6wxSizelS4_
libwx_gtk2u_adv-2.8.so.0:_ZN21wxPropertySheetDialog6OnIdleER11wxIdleEvent
libwx_gtk2u_adv-2.8.so.0:_ZN21wxTaskBarIconAreaBase11DoPopupMenuEP6wxMenuii
libwx_gtk2u_adv-2.8.so.0:_ZN21wxTaskBarIconAreaBase19IsProtocolSupportedEv
libwx_gtk2u_adv-2.8.so.0:_ZN21wxTaskBarIconAreaBaseC1Ev
libwx_gtk2u_adv-2.8.so.0:_ZN21wxTaskBarIconAreaBaseC2Ev
libwx_gtk2u_adv-2.8.so.0:_ZN22wxCalculateLayoutEvent14wxCreateObjectEv
libwx_gtk2u_adv-2.8.so.0:_ZN22wxGridCellAttrProvider10SetColAttrEP14wxGridCellAttri
libwx_gtk2u_adv-2.8.so.0:_ZN22wxGridCellAttrProvider10SetRowAttrEP14wxGridCellAttri
libwx_gtk2u_adv-2.8.so.0:_ZN22wxGridCellAttrProvider14UpdateAttrColsEmi
libwx_gtk2u_adv-2.8.so.0:_ZN22wxGridCellAttrProvider14UpdateAttrRowsEmi
libwx_gtk2u_adv-2.8.so.0:_ZN22wxGridCellAttrProvider7SetAttrEP14wxGridCellAttrii
libwx_gtk2u_adv-2.8.so.0:_ZN22wxGridCellAttrProvider8InitDataEv
libwx_gtk2u_adv-2.8.so.0:_ZN22wxGridCellAttrProviderC1Ev
libwx_gtk2u_adv-2.8.so.0:_ZN22wxGridCellAttrProviderC2Ev
libwx_gtk2u_adv-2.8.so.0:_ZN22wxGridCellAttrProviderD0Ev
libwx_gtk2u_adv-2.8.so.0:_ZN22wxGridCellAttrProviderD1Ev
libwx_gtk2u_adv-2.8.so.0:_ZN22wxGridCellAttrProviderD2Ev
libwx_gtk2u_adv-2.8.so.0:_ZN22wxGridCellBoolRenderer11GetBestSizeER6wxGridR14wxGridCellAttrR4wxDCii
libwx_gtk2u_adv-2.8.so.0:_ZN22wxGridCellBoolRenderer4DrawER6wxGridR14wxGridCellAttrR4wxDCRK6wxRectiib
libwx_gtk2u_adv-2.8.so.0:_ZN22wxGridCellChoiceEditor13SetParametersERK8wxString
libwx_gtk2u_adv-2.8.so.0:_ZN22wxGridCellChoiceEditor15PaintBackgroundERK6wxRectP14wxGridCellAttr
libwx_gtk2u_adv-2.8.so.0:_ZN22wxGridCellChoiceEditor5ResetEv
libwx_gtk2u_adv-2.8.so.0:_ZN22wxGridCellChoiceEditor6CreateEP8wxWindowiP12wxEvtHandler
libwx_gtk2u_adv-2.8.so.0:_ZN22wxGridCellChoiceEditor7EndEditEiiP6wxGrid
libwx_gtk2u_adv-2.8.so.0:_ZN22wxGridCellChoiceEditor9BeginEditEiiP6wxGrid
libwx_gtk2u_adv-2.8.so.0:_ZN22wxGridCellChoiceEditorC1ERK13wxArrayStringb
libwx_gtk2u_adv-2.8.so.0:_ZN22wxGridCellChoiceEditorC1EmPK8wxStringb
libwx_gtk2u_adv-2.8.so.0:_ZN22wxGridCellChoiceEditorC2ERK13wxArrayStringb
libwx_gtk2u_adv-2.8.so.0:_ZN22wxGridCellChoiceEditorC2EmPK8wxStringb
libwx_gtk2u_adv-2.8.so.0:_ZN22wxGridCellEnumRenderer11GetBestSizeER6wxGridR14wxGridCellAttrR4wxDCii
libwx_gtk2u_adv-2.8.so.0:_ZN22wxGridCellEnumRenderer13SetParametersERK8wxString
libwx_gtk2u_adv-2.8.so.0:_ZN22wxGridCellEnumRenderer4DrawER6wxGridR14wxGridCellAttrR4wxDCRK6wxRectiib
libwx_gtk2u_adv-2.8.so.0:_ZN22wxGridCellEnumRenderer9GetStringERK6wxGridii
libwx_gtk2u_adv-2.8.so.0:_ZN22wxGridCellEnumRendererC1ERK8wxString
libwx_gtk2u_adv-2.8.so.0:_ZN22wxGridCellEnumRendererC2ERK8wxString
libwx_gtk2u_adv-2.8.so.0:_ZN22wxGridCellNumberEditor11StartingKeyER10wxKeyEvent
libwx_gtk2u_adv-2.8.so.0:_ZN22wxGridCellNumberEditor13IsAcceptedKeyER10wxKeyEvent
libwx_gtk2u_adv-2.8.so.0:_ZN22wxGridCellNumberEditor13SetParametersERK8wxString
libwx_gtk2u_adv-2.8.so.0:_ZN22wxGridCellNumberEditor5ResetEv
libwx_gtk2u_adv-2.8.so.0:_ZN22wxGridCellNumberEditor6CreateEP8wxWindowiP12wxEvtHandler
libwx_gtk2u_adv-2.8.so.0:_ZN22wxGridCellNumberEditor7EndEditEiiP6wxGrid
libwx_gtk2u_adv-2.8.so.0:_ZN22wxGridCellNumberEditor9BeginEditEiiP6wxGrid
libwx_gtk2u_adv-2.8.so.0:_ZN22wxGridCellNumberEditorC1Eii
libwx_gtk2u_adv-2.8.so.0:_ZN22wxGridCellNumberEditorC2Eii
libwx_gtk2u_adv-2.8.so.0:_ZN22wxGridRangeSelectEvent14wxCreateObjectEv
libwx_gtk2u_adv-2.8.so.0:_ZN22wxGridRangeSelectEventC1EiiP8wxObjectRK16wxGridCellCoordsS4_bbbbb
libwx_gtk2u_adv-2.8.so.0:_ZN22wxGridRangeSelectEventC2EiiP8wxObjectRK16wxGridCellCoordsS4_bbbbb
libwx_gtk2u_adv-2.8.so.0:_ZN22wxGridRowOrColAttrData20UpdateAttrRowsOrColsEmi
libwx_gtk2u_adv-2.8.so.0:_ZN22wxGridRowOrColAttrData7SetAttrEP14wxGridCellAttri
libwx_gtk2u_adv-2.8.so.0:_ZN22wxGridRowOrColAttrDataD1Ev
libwx_gtk2u_adv-2.8.so.0:_ZN22wxGridRowOrColAttrDataD2Ev
libwx_gtk2u_adv-2.8.so.0:_ZN22wxQueryLayoutInfoEvent14wxCreateObjectEv
libwx_gtk2u_adv-2.8.so.0:_ZN22wxSoundSyncOnlyAdaptor4PlayEP11wxSoundDatajPV21wxSoundPlaybackStatus
libwx_gtk2u_adv-2.8.so.0:_ZN22wxSoundSyncOnlyAdaptor4StopEv
libwx_gtk2u_adv-2.8.so.0:_ZN23wxDatePickerCtrlGeneric12SetDateRangeERK10wxDateTimeS2_
libwx_gtk2u_adv-2.8.so.0:_ZN23wxDatePickerCtrlGeneric4InitEv
libwx_gtk2u_adv-2.8.so.0:_ZN23wxDatePickerCtrlGeneric6CreateEP8wxWindowiRK10wxDateTimeRK7wxPointRK6wxSizelRK11wxValidatorRK8wxString
libwx_gtk2u_adv-2.8.so.0:_ZN23wxDatePickerCtrlGeneric6OnSizeER11wxSizeEvent
libwx_gtk2u_adv-2.8.so.0:_ZN23wxDatePickerCtrlGeneric6OnTextER14wxCommandEvent
libwx_gtk2u_adv-2.8.so.0:_ZN23wxDatePickerCtrlGeneric7DestroyEv
libwx_gtk2u_adv-2.8.so.0:_ZN23wxDatePickerCtrlGeneric7OnFocusER12wxFocusEvent
libwx_gtk2u_adv-2.8.so.0:_ZN23wxDatePickerCtrlGeneric8SetRangeERK10wxDateTimeS2_
libwx_gtk2u_adv-2.8.so.0:_ZN23wxDatePickerCtrlGeneric8SetValueERK10wxDateTime
libwx_gtk2u_adv-2.8.so.0:_ZN23wxDatePickerCtrlGenericD0Ev
libwx_gtk2u_adv-2.8.so.0:_ZN23wxDatePickerCtrlGenericD1Ev
libwx_gtk2u_adv-2.8.so.0:_ZN23wxDatePickerCtrlGenericD2Ev
libwx_gtk2u_adv-2.8.so.0:_ZN23wxGridCellFloatRenderer11GetBestSizeER6wxGridR14wxGridCellAttrR4wxDCii
libwx_gtk2u_adv-2.8.so.0:_ZN23wxGridCellFloatRenderer13SetParametersERK8wxString
libwx_gtk2u_adv-2.8.so.0:_ZN23wxGridCellFloatRenderer4DrawER6wxGridR14wxGridCellAttrR4wxDCRK6wxRectiib
libwx_gtk2u_adv-2.8.so.0:_ZN23wxGridCellFloatRenderer9GetStringERK6wxGridii
libwx_gtk2u_adv-2.8.so.0:_ZN23wxGridCellFloatRendererC1Eii
libwx_gtk2u_adv-2.8.so.0:_ZN23wxGridCellFloatRendererC2Eii
libwx_gtk2u_adv-2.8.so.0:_ZN23wxGridCellWithAttrArray3AddERK18wxGridCellWithAttrm
libwx_gtk2u_adv-2.8.so.0:_ZN23wxGridCellWithAttrArray6DoCopyERKS_
libwx_gtk2u_adv-2.8.so.0:_ZN23wxGridCellWithAttrArray6InsertERK18wxGridCellWithAttrmm
libwx_gtk2u_adv-2.8.so.0:_ZN23wxGridCellWithAttrArray7DoEmptyEv
libwx_gtk2u_adv-2.8.so.0:_ZN23wxGridCellWithAttrArray8RemoveAtEmm
libwx_gtk2u_adv-2.8.so.0:_ZN23wxGridCellWithAttrArrayC1ERKS_
libwx_gtk2u_adv-2.8.so.0:_ZN23wxGridCellWithAttrArrayC2ERKS_
libwx_gtk2u_adv-2.8.so.0:_ZN23wxGridCellWithAttrArrayD1Ev
libwx_gtk2u_adv-2.8.so.0:_ZN23wxGridCellWithAttrArrayD2Ev
libwx_gtk2u_adv-2.8.so.0:_ZN23wxGridCellWithAttrArrayaSERKS_
libwx_gtk2u_adv-2.8.so.0:_ZN23wxGridCornerLabelWindow12OnMouseEventER12wxMouseEvent
libwx_gtk2u_adv-2.8.so.0:_ZN23wxGridCornerLabelWindow12OnMouseWheelER12wxMouseEvent
libwx_gtk2u_adv-2.8.so.0:_ZN23wxGridCornerLabelWindow14wxCreateObjectEv
libwx_gtk2u_adv-2.8.so.0:_ZN23wxGridCornerLabelWindow6OnCharER10wxKeyEvent
libwx_gtk2u_adv-2.8.so.0:_ZN23wxGridCornerLabelWindow7OnKeyUpER10wxKeyEvent
libwx_gtk2u_adv-2.8.so.0:_ZN23wxGridCornerLabelWindow7OnPaintER12wxPaintEvent
libwx_gtk2u_adv-2.8.so.0:_ZN23wxGridCornerLabelWindow9OnKeyDownER10wxKeyEvent
libwx_gtk2u_adv-2.8.so.0:_ZN23wxGridCornerLabelWindowC1EP6wxGridiRK7wxPointRK6wxSize
libwx_gtk2u_adv-2.8.so.0:_ZN23wxGridCornerLabelWindowC2EP6wxGridiRK7wxPointRK6wxSize
libwx_gtk2u_adv-2.8.so.0:_ZN24wxGridCellNumberRenderer11GetBestSizeER6wxGridR14wxGridCellAttrR4wxDCii
libwx_gtk2u_adv-2.8.so.0:_ZN24wxGridCellNumberRenderer4DrawER6wxGridR14wxGridCellAttrR4wxDCRK6wxRectiib
libwx_gtk2u_adv-2.8.so.0:_ZN24wxGridCellNumberRenderer9GetStringERK6wxGridii
libwx_gtk2u_adv-2.8.so.0:_ZN24wxGridCellStringRenderer11GetBestSizeER6wxGridR14wxGridCellAttrR4wxDCii
libwx_gtk2u_adv-2.8.so.0:_ZN24wxGridCellStringRenderer13DoGetBestSizeERK14wxGridCellAttrR4wxDCRK8wxString
libwx_gtk2u_adv-2.8.so.0:_ZN24wxGridCellStringRenderer21SetTextColoursAndFontERK6wxGridRK14wxGridCellAttrR4wxDCb
libwx_gtk2u_adv-2.8.so.0:_ZN24wxGridCellStringRenderer4DrawER6wxGridR14wxGridCellAttrR4wxDCRK6wxRectiib
libwx_gtk2u_adv-2.8.so.0:_ZN24wxGridEditorCreatedEvent14wxCreateObjectEv
libwx_gtk2u_adv-2.8.so.0:_ZN24wxGridEditorCreatedEventC1EiiP8wxObjectiiP9wxControl
libwx_gtk2u_adv-2.8.so.0:_ZN24wxGridEditorCreatedEventC2EiiP8wxObjectiiP9wxControl
libwx_gtk2u_adv-2.8.so.0:_ZN26wxGridCellDateTimeRenderer11GetBestSizeER6wxGridR14wxGridCellAttrR4wxDCii
libwx_gtk2u_adv-2.8.so.0:_ZN26wxGridCellDateTimeRenderer13SetParametersERK8wxString
libwx_gtk2u_adv-2.8.so.0:_ZN26wxGridCellDateTimeRenderer4DrawER6wxGridR14wxGridCellAttrR4wxDCRK6wxRectiib
libwx_gtk2u_adv-2.8.so.0:_ZN26wxGridCellDateTimeRenderer9GetStringERK6wxGridii
libwx_gtk2u_adv-2.8.so.0:_ZN26wxGridCellDateTimeRendererC1ERK8wxStringS2_
libwx_gtk2u_adv-2.8.so.0:_ZN26wxGridCellDateTimeRendererC2ERK8wxStringS2_
libwx_gtk2u_adv-2.8.so.0:_ZN26wxGridCellEditorEvtHandler11OnKillFocusER12wxFocusEvent
libwx_gtk2u_adv-2.8.so.0:_ZN26wxGridCellEditorEvtHandler6OnCharER10wxKeyEvent
libwx_gtk2u_adv-2.8.so.0:_ZN26wxGridCellEditorEvtHandler9OnKeyDownER10wxKeyEvent
libwx_gtk2u_adv-2.8.so.0:_ZN26wxSoundAsyncPlaybackThread5EntryEv
libwx_gtk2u_adv-2.8.so.0:_ZN29wxSoundBackendSDLNotification14wxCreateObjectEv
libwx_gtk2u_adv-2.8.so.0:_ZN29wxSoundBackendSDLNotificationC1Ev
libwx_gtk2u_adv-2.8.so.0:_ZN29wxSoundBackendSDLNotificationC2Ev
libwx_gtk2u_adv-2.8.so.0:_ZN30wxGridCellAutoWrapStringEditor6CreateEP8wxWindowiP12wxEvtHandler
libwx_gtk2u_adv-2.8.so.0:_ZN32wxGridCellAutoWrapStringRenderer11GetBestSizeER6wxGridR14wxGridCellAttrR4wxDCii
libwx_gtk2u_adv-2.8.so.0:_ZN32wxGridCellAutoWrapStringRenderer12GetTextLinesER6wxGridR4wxDCRK14wxGridCellAttrRK6wxRectii
libwx_gtk2u_adv-2.8.so.0:_ZN32wxGridCellAutoWrapStringRenderer4DrawER6wxGridR14wxGridCellAttrR4wxDCRK6wxRectiib
libwx_gtk2u_adv-2.8.so.0:_ZN6wxGrid10AppendColsEib
libwx_gtk2u_adv-2.8.so.0:_ZN6wxGrid10AppendRowsEib
libwx_gtk2u_adv-2.8.so.0:_ZN6wxGrid10CellToRectEii
libwx_gtk2u_adv-2.8.so.0:_ZN6wxGrid10CreateGridEiiNS_20wxGridSelectionModesE
libwx_gtk2u_adv-2.8.so.0:_ZN6wxGrid10DeleteColsEiib
libwx_gtk2u_adv-2.8.so.0:_ZN6wxGrid10DeleteRowsEiib
libwx_gtk2u_adv-2.8.so.0:_ZN6wxGrid10GetColSizeEi
libwx_gtk2u_adv-2.8.so.0:_ZN6wxGrid10GetRowSizeEi
libwx_gtk2u_adv-2.8.so.0:_ZN6wxGrid10InsertColsEiib
libwx_gtk2u_adv-2.8.so.0:_ZN6wxGrid10InsertRowsEiib
libwx_gtk2u_adv-2.8.so.0:_ZN6wxGrid10MovePageUpEv
libwx_gtk2u_adv-2.8.so.0:_ZN6wxGrid10SetColAttrEiP14wxGridCellAttr
libwx_gtk2u_adv-2.8.so.0:_ZN6wxGrid10SetColSizeEii
libwx_gtk2u_adv-2.8.so.0:_ZN6wxGrid10SetRowAttrEiP14wxGridCellAttr
libwx_gtk2u_adv-2.8.so.0:_ZN6wxGrid10SetRowSizeEii
libwx_gtk2u_adv-2.8.so.0:_ZN6wxGrid11DeselectColEi
libwx_gtk2u_adv-2.8.so.0:_ZN6wxGrid11DeselectRowEi
libwx_gtk2u_adv-2.8.so.0:_ZN6wxGrid11GetCellFontEii
libwx_gtk2u_adv-2.8.so.0:_ZN6wxGrid11GetCellSizeEiiPiS0_
libwx_gtk2u_adv-2.8.so.0:_ZN6wxGrid11IsSelectionEv
libwx_gtk2u_adv-2.8.so.0:_ZN6wxGrid11RedimensionER18wxGridTableMessage
libwx_gtk2u_adv-2.8.so.0:_ZN6wxGrid11SelectBlockEiiiib
libwx_gtk2u_adv-2.8.so.0:_ZN6wxGrid11SetCellFontEiiRK6wxFont
libwx_gtk2u_adv-2.8.so.0:_ZN6wxGrid11SetCellSizeEiiii
libwx_gtk2u_adv-2.8.so.0:_ZN6wxGrid11SetReadOnlyEiib
libwx_gtk2u_adv-2.8.so.0:_ZN6wxGrid12DeselectCellEii
libwx_gtk2u_adv-2.8.so.0:_ZN6wxGrid12DrawColLabelER4wxDCi
libwx_gtk2u_adv-2.8.so.0:_ZN6wxGrid12DrawRowLabelER4wxDCi
libwx_gtk2u_adv-2.8.so.0:_ZN6wxGrid12ForceRefreshEv
libwx_gtk2u_adv-2.8.so.0:_ZN6wxGrid12MoveCursorUpEb
libwx_gtk2u_adv-2.8.so.0:_ZN6wxGrid12MovePageDownEv
libwx_gtk2u_adv-2.8.so.0:_ZN6wxGrid12SetCellValueEiiRK8wxString
libwx_gtk2u_adv-2.8.so.0:_ZN6wxGrid12SetLabelFontERK6wxFont
libwx_gtk2u_adv-2.8.so.0:_ZN6wxGrid12XToEdgeOfColEi
libwx_gtk2u_adv-2.8.so.0:_ZN6wxGrid12YToEdgeOfRowEi
libwx_gtk2u_adv-2.8.so.0:_ZN6wxGrid13DrawColLabelsER4wxDCRK10wxArrayInt
libwx_gtk2u_adv-2.8.so.0:_ZN6wxGrid13DrawGridSpaceER4wxDC
libwx_gtk2u_adv-2.8.so.0:_ZN6wxGrid13DrawHighlightER4wxDCRK21wxGridCellCoordsArray
libwx_gtk2u_adv-2.8.so.0:_ZN6wxGrid13DrawRowLabelsER4wxDCRK10wxArrayInt
libwx_gtk2u_adv-2.8.so.0:_ZN6wxGrid13EnableEditingEb
libwx_gtk2u_adv-2.8.so.0:_ZN6wxGrid13GetCellEditorEii
libwx_gtk2u_adv-2.8.so.0:_ZN6wxGrid13InitColWidthsEv
libwx_gtk2u_adv-2.8.so.0:_ZN6wxGrid13SetCellEditorEiiP16wxGridCellEditor
libwx_gtk2u_adv-2.8.so.0:_ZN6wxGrid13StringToLinesERK8wxStringR13wxArrayString
libwx_gtk2u_adv-2.8.so.0:_ZN6wxGrid14CalcDimensionsEv
libwx_gtk2u_adv-2.8.so.0:_ZN6wxGrid14ClearAttrCacheEv
libwx_gtk2u_adv-2.8.so.0:_ZN6wxGrid14ClearSelectionEv
libwx_gtk2u_adv-2.8.so.0:_ZN6wxGrid14DrawCellBorderER4wxDCRK16wxGridCellCoords
libwx_gtk2u_adv-2.8.so.0:_ZN6wxGrid14EnableDragCellEb
libwx_gtk2u_adv-2.8.so.0:_ZN6wxGrid14GetModelValuesEv
libwx_gtk2u_adv-2.8.so.0:_ZN6wxGrid14GetTextBoxSizeERK4wxDCRK13wxArrayStringPlS6_
libwx_gtk2u_adv-2.8.so.0:_ZN6wxGrid14HighlightBlockEiiii
libwx_gtk2u_adv-2.8.so.0:_ZN6wxGrid14InitRowHeightsEv
libwx_gtk2u_adv-2.8.so.0:_ZN6wxGrid14MoveCursorDownEb
libwx_gtk2u_adv-2.8.so.0:_ZN6wxGrid14MoveCursorLeftEb
libwx_gtk2u_adv-2.8.so.0:_ZN6wxGrid14SetCurrentCellERK16wxGridCellCoords
libwx_gtk2u_adv-2.8.so.0:_ZN6wxGrid14SetModelValuesEv
libwx_gtk2u_adv-2.8.so.0:_ZN6wxGrid14wxCreateObjectEv
libwx_gtk2u_adv-2.8.so.0:_ZN6wxGrid15CalcWindowSizesEv
libwx_gtk2u_adv-2.8.so.0:_ZN6wxGrid15EnableGridLinesEb
libwx_gtk2u_adv-2.8.so.0:_ZN6wxGrid15GetCellOverflowEii
libwx_gtk2u_adv-2.8.so.0:_ZN6wxGrid15GetCellRendererEii
libwx_gtk2u_adv-2.8.so.0:_ZN6wxGrid15MakeCellVisibleEii
libwx_gtk2u_adv-2.8.so.0:_ZN6wxGrid15MoveCursorRightEb
libwx_gtk2u_adv-2.8.so.0:_ZN6wxGrid15SetCellOverflowEiib
libwx_gtk2u_adv-2.8.so.0:_ZN6wxGrid15SetCellRendererEiiP18wxGridCellRenderer
libwx_gtk2u_adv-2.8.so.0:_ZN6wxGrid15SetColLabelSizeEi
libwx_gtk2u_adv-2.8.so.0:_ZN6wxGrid15SetRowLabelSizeEi
libwx_gtk2u_adv-2.8.so.0:_ZN6wxGrid16AutoSizeColOrRowEibb
libwx_gtk2u_adv-2.8.so.0:_ZN6wxGrid16CalcCellsExposedERK8wxRegion
libwx_gtk2u_adv-2.8.so.0:_ZN6wxGrid16ChangeCursorModeENS_10CursorModeEP8wxWindowb
libwx_gtk2u_adv-2.8.so.0:_ZN6wxGrid16DoEndDragMoveColEv
libwx_gtk2u_adv-2.8.so.0:_ZN6wxGrid16DrawAllGridLinesER4wxDCRK8wxRegion
libwx_gtk2u_adv-2.8.so.0:_ZN6wxGrid16DrawGridCellAreaER4wxDCRK21wxGridCellCoordsArray
libwx_gtk2u_adv-2.8.so.0:_ZN6wxGrid16GetCellAlignmentEiiPiS0_
libwx_gtk2u_adv-2.8.so.0:_ZN6wxGrid16GetColLabelValueEi
libwx_gtk2u_adv-2.8.so.0:_ZN6wxGrid16GetRowLabelValueEi
libwx_gtk2u_adv-2.8.so.0:_ZN6wxGrid16RegisterDataTypeERK8wxStringP18wxGridCellRendererP16wxGridCellEditor
libwx_gtk2u_adv-2.8.so.0:_ZN6wxGrid16SetCellAlignmentEiiii
libwx_gtk2u_adv-2.8.so.0:_ZN6wxGrid16SetColFormatBoolEi
libwx_gtk2u_adv-2.8.so.0:_ZN6wxGrid16SetColLabelValueEiRK8wxString
libwx_gtk2u_adv-2.8.so.0:_ZN6wxGrid16SetDefaultEditorEP16wxGridCellEditor
libwx_gtk2u_adv-2.8.so.0:_ZN6wxGrid16SetRowLabelValueEiRK8wxString
libwx_gtk2u_adv-2.8.so.0:_ZN6wxGrid16SetSelectionModeENS_20wxGridSelectionModesE
libwx_gtk2u_adv-2.8.so.0:_ZN6wxGrid17BlockToDeviceRectERK16wxGridCellCoordsS2_
libwx_gtk2u_adv-2.8.so.0:_ZN6wxGrid17CanHaveAttributesEv
libwx_gtk2u_adv-2.8.so.0:_ZN6wxGrid17DrawCellHighlightER4wxDCPK14wxGridCellAttr
libwx_gtk2u_adv-2.8.so.0:_ZN6wxGrid17DrawTextRectangleER4wxDCRK13wxArrayStringRK6wxRectiii
libwx_gtk2u_adv-2.8.so.0:_ZN6wxGrid17DrawTextRectangleER4wxDCRK8wxStringRK6wxRectiii
libwx_gtk2u_adv-2.8.so.0:_ZN6wxGrid17EnableDragColMoveEb
libwx_gtk2u_adv-2.8.so.0:_ZN6wxGrid17EnableDragColSizeEb
libwx_gtk2u_adv-2.8.so.0:_ZN6wxGrid17EnableDragRowSizeEb
libwx_gtk2u_adv-2.8.so.0:_ZN6wxGrid17GetCellTextColourEii
libwx_gtk2u_adv-2.8.so.0:_ZN6wxGrid17GetColGridLinePenEi
libwx_gtk2u_adv-2.8.so.0:_ZN6wxGrid17GetDefaultColSizeEv
libwx_gtk2u_adv-2.8.so.0:_ZN6wxGrid17GetDefaultRowSizeEv
libwx_gtk2u_adv-2.8.so.0:_ZN6wxGrid17GetRowGridLinePenEi
libwx_gtk2u_adv-2.8.so.0:_ZN6wxGrid17MoveCursorUpBlockEb
libwx_gtk2u_adv-2.8.so.0:_ZN6wxGrid17OnEraseBackgroundER12wxEraseEvent
libwx_gtk2u_adv-2.8.so.0:_ZN6wxGrid17SetCellTextColourEiiRK8wxColour
libwx_gtk2u_adv-2.8.so.0:_ZN6wxGrid17SetColFormatFloatEiii
libwx_gtk2u_adv-2.8.so.0:_ZN6wxGrid17SetDefaultColSizeEib
libwx_gtk2u_adv-2.8.so.0:_ZN6wxGrid17SetDefaultRowSizeEib
libwx_gtk2u_adv-2.8.so.0:_ZN6wxGrid17SetGridLineColourERK8wxColour
libwx_gtk2u_adv-2.8.so.0:_ZN6wxGrid17SetOrCalcRowSizesEbb
libwx_gtk2u_adv-2.8.so.0:_ZN6wxGrid18CancelMouseCaptureEv
libwx_gtk2u_adv-2.8.so.0:_ZN6wxGrid18DoEndDragResizeColEv
libwx_gtk2u_adv-2.8.so.0:_ZN6wxGrid18DoEndDragResizeRowEv
libwx_gtk2u_adv-2.8.so.0:_ZN6wxGrid18EnableDragGridSizeEb
libwx_gtk2u_adv-2.8.so.0:_ZN6wxGrid18GetDefaultCellFontEv
libwx_gtk2u_adv-2.8.so.0:_ZN6wxGrid18SetColFormatCustomEiRK8wxString
libwx_gtk2u_adv-2.8.so.0:_ZN6wxGrid18SetColFormatNumberEi
libwx_gtk2u_adv-2.8.so.0:_ZN6wxGrid18SetColMinimalWidthEii
libwx_gtk2u_adv-2.8.so.0:_ZN6wxGrid18SetDefaultCellFontERK6wxFont
libwx_gtk2u_adv-2.8.so.0:_ZN6wxGrid18SetDefaultRendererEP18wxGridCellRenderer
libwx_gtk2u_adv-2.8.so.0:_ZN6wxGrid18SetLabelTextColourERK8wxColour
libwx_gtk2u_adv-2.8.so.0:_ZN6wxGrid19HideCellEditControlEv
libwx_gtk2u_adv-2.8.so.0:_ZN6wxGrid19MoveCursorDownBlockEb
libwx_gtk2u_adv-2.8.so.0:_ZN6wxGrid19MoveCursorLeftBlockEb
libwx_gtk2u_adv-2.8.so.0:_ZN6wxGrid19ProcessTableMessageER18wxGridTableMessage
libwx_gtk2u_adv-2.8.so.0:_ZN6wxGrid19SetRowMinimalHeightEii
libwx_gtk2u_adv-2.8.so.0:_ZN6wxGrid19ShowCellEditControlEv
libwx_gtk2u_adv-2.8.so.0:_ZN6wxGrid20AutoSizeColLabelSizeEi
libwx_gtk2u_adv-2.8.so.0:_ZN6wxGrid20AutoSizeRowLabelSizeEi
libwx_gtk2u_adv-2.8.so.0:_ZN6wxGrid20CalcColLabelsExposedERK8wxRegion
libwx_gtk2u_adv-2.8.so.0:_ZN6wxGrid20CalcRowLabelsExposedERK8wxRegion
libwx_gtk2u_adv-2.8.so.0:_ZN6wxGrid20GetColLabelAlignmentEPiS0_
libwx_gtk2u_adv-2.8.so.0:_ZN6wxGrid20GetRowLabelAlignmentEPiS0_
libwx_gtk2u_adv-2.8.so.0:_ZN6wxGrid20MoveCursorRightBlockEb
libwx_gtk2u_adv-2.8.so.0:_ZN6wxGrid20SaveEditControlValueEv
libwx_gtk2u_adv-2.8.so.0:_ZN6wxGrid20SetColLabelAlignmentEii
libwx_gtk2u_adv-2.8.so.0:_ZN6wxGrid20SetOrCalcColumnSizesEbb
libwx_gtk2u_adv-2.8.so.0:_ZN6wxGrid20SetRowLabelAlignmentEii
libwx_gtk2u_adv-2.8.so.0:_ZN6wxGrid21EnableCellEditControlEb
libwx_gtk2u_adv-2.8.so.0:_ZN6wxGrid21GetDefaultGridLinePenEv
libwx_gtk2u_adv-2.8.so.0:_ZN6wxGrid22GetDefaultCellOverflowEv
libwx_gtk2u_adv-2.8.so.0:_ZN6wxGrid22SetCellHighlightColourERK8wxColour
libwx_gtk2u_adv-2.8.so.0:_ZN6wxGrid22SetDefaultCellOverflowEb
libwx_gtk2u_adv-2.8.so.0:_ZN6wxGrid23GetCellBackgroundColourEii
libwx_gtk2u_adv-2.8.so.0:_ZN6wxGrid23GetDefaultCellAlignmentEPiS0_
libwx_gtk2u_adv-2.8.so.0:_ZN6wxGrid23SetCellBackgroundColourEiiRK8wxColour
libwx_gtk2u_adv-2.8.so.0:_ZN6wxGrid23SetDefaultCellAlignmentEii
libwx_gtk2u_adv-2.8.so.0:_ZN6wxGrid24GetDefaultCellTextColourEv
libwx_gtk2u_adv-2.8.so.0:_ZN6wxGrid24SetCellHighlightPenWidthEi
libwx_gtk2u_adv-2.8.so.0:_ZN6wxGrid24SetDefaultCellTextColourERK8wxColour
libwx_gtk2u_adv-2.8.so.0:_ZN6wxGrid24SetLabelBackgroundColourERK8wxColour
libwx_gtk2u_adv-2.8.so.0:_ZN6wxGrid25ProcessColLabelMouseEventER12wxMouseEvent
libwx_gtk2u_adv-2.8.so.0:_ZN6wxGrid25ProcessGridCellMouseEventER12wxMouseEvent
libwx_gtk2u_adv-2.8.so.0:_ZN6wxGrid25ProcessRowLabelMouseEventER12wxMouseEvent
libwx_gtk2u_adv-2.8.so.0:_ZN6wxGrid26GetColLabelTextOrientationEv
libwx_gtk2u_adv-2.8.so.0:_ZN6wxGrid26SetCellHighlightROPenWidthEi
libwx_gtk2u_adv-2.8.so.0:_ZN6wxGrid26SetColLabelTextOrientationEi
libwx_gtk2u_adv-2.8.so.0:_ZN6wxGrid28CalcColOrRowLabelAreaMinSizeEb
libwx_gtk2u_adv-2.8.so.0:_ZN6wxGrid28ProcessCornerLabelMouseEventER12wxMouseEvent
libwx_gtk2u_adv-2.8.so.0:_ZN6wxGrid28SetColMinimalAcceptableWidthEi
libwx_gtk2u_adv-2.8.so.0:_ZN6wxGrid29SetRowMinimalAcceptableHeightEi
libwx_gtk2u_adv-2.8.so.0:_ZN6wxGrid30GetDefaultCellBackgroundColourEv
libwx_gtk2u_adv-2.8.so.0:_ZN6wxGrid30SetDefaultCellBackgroundColourERK8wxColour
libwx_gtk2u_adv-2.8.so.0:_ZN6wxGrid3FitEv
libwx_gtk2u_adv-2.8.so.0:_ZN6wxGrid4InitEv
libwx_gtk2u_adv-2.8.so.0:_ZN6wxGrid6CreateEP8wxWindowiRK7wxPointRK6wxSizelRK8wxString
libwx_gtk2u_adv-2.8.so.0:_ZN6wxGrid6CreateEv
libwx_gtk2u_adv-2.8.so.0:_ZN6wxGrid6EnableEb
libwx_gtk2u_adv-2.8.so.0:_ZN6wxGrid6OnCharER10wxKeyEvent
libwx_gtk2u_adv-2.8.so.0:_ZN6wxGrid6OnSizeER11wxSizeEvent
libwx_gtk2u_adv-2.8.so.0:_ZN6wxGrid6XToColEib
libwx_gtk2u_adv-2.8.so.0:_ZN6wxGrid6YToRowEi
libwx_gtk2u_adv-2.8.so.0:_ZN6wxGrid7OnKeyUpER10wxKeyEvent
libwx_gtk2u_adv-2.8.so.0:_ZN6wxGrid7OnPaintER12wxPaintEvent
libwx_gtk2u_adv-2.8.so.0:_ZN6wxGrid7RefreshEbPK6wxRect
libwx_gtk2u_adv-2.8.so.0:_ZN6wxGrid7SetAttrEiiP14wxGridCellAttr
libwx_gtk2u_adv-2.8.so.0:_ZN6wxGrid8AutoSizeEv
libwx_gtk2u_adv-2.8.so.0:_ZN6wxGrid8DrawCellER4wxDCRK16wxGridCellCoords
libwx_gtk2u_adv-2.8.so.0:_ZN6wxGrid8EndBatchEv
libwx_gtk2u_adv-2.8.so.0:_ZN6wxGrid8SetTableEP15wxGridTableBasebNS_20wxGridSelectionModesE
libwx_gtk2u_adv-2.8.so.0:_ZN6wxGrid8XYToCellEiiR16wxGridCellCoords
libwx_gtk2u_adv-2.8.so.0:_ZN6wxGrid9ClearGridEv
libwx_gtk2u_adv-2.8.so.0:_ZN6wxGrid9IsVisibleEiib
libwx_gtk2u_adv-2.8.so.0:_ZN6wxGrid9OnKeyDownER10wxKeyEvent
libwx_gtk2u_adv-2.8.so.0:_ZN6wxGrid9SelectAllEv
libwx_gtk2u_adv-2.8.so.0:_ZN6wxGrid9SelectColEib
libwx_gtk2u_adv-2.8.so.0:_ZN6wxGrid9SelectRowEib
libwx_gtk2u_adv-2.8.so.0:_ZN6wxGrid9SendEventEiii
libwx_gtk2u_adv-2.8.so.0:_ZN6wxGrid9SendEventEiiiR12wxMouseEvent
libwx_gtk2u_adv-2.8.so.0:_ZN6wxGrid9SetColPosEii
libwx_gtk2u_adv-2.8.so.0:_ZN6wxGridC1EP8wxWindowiRK7wxPointRK6wxSizelRK8wxString
libwx_gtk2u_adv-2.8.so.0:_ZN6wxGridC1Ev
libwx_gtk2u_adv-2.8.so.0:_ZN6wxGridC2EP8wxWindowiRK7wxPointRK6wxSizelRK8wxString
libwx_gtk2u_adv-2.8.so.0:_ZN6wxGridC2Ev
libwx_gtk2u_adv-2.8.so.0:_ZN6wxGridD0Ev
libwx_gtk2u_adv-2.8.so.0:_ZN6wxGridD1Ev
libwx_gtk2u_adv-2.8.so.0:_ZN6wxGridD2Ev
libwx_gtk2u_adv-2.8.so.0:_ZN7wxSound13EnsureBackendEv
libwx_gtk2u_adv-2.8.so.0:_ZN7wxSound13UnloadBackendEv
libwx_gtk2u_adv-2.8.so.0:_ZN7wxSound4FreeEv
libwx_gtk2u_adv-2.8.so.0:_ZN7wxSound4StopEv
libwx_gtk2u_adv-2.8.so.0:_ZN7wxSound6CreateERK8wxStringb
libwx_gtk2u_adv-2.8.so.0:_ZN7wxSound6CreateEiPKh
libwx_gtk2u_adv-2.8.so.0:_ZN7wxSound7LoadWAVEPKhmb
libwx_gtk2u_adv-2.8.so.0:_ZN7wxSound9IsPlayingEv
libwx_gtk2u_adv-2.8.so.0:_ZN7wxSoundC1ERK8wxStringb
libwx_gtk2u_adv-2.8.so.0:_ZN7wxSoundC1EiPKh
libwx_gtk2u_adv-2.8.so.0:_ZN7wxSoundC1Ev
libwx_gtk2u_adv-2.8.so.0:_ZN7wxSoundC2ERK8wxStringb
libwx_gtk2u_adv-2.8.so.0:_ZN7wxSoundC2EiPKh
libwx_gtk2u_adv-2.8.so.0:_ZN7wxSoundC2Ev
libwx_gtk2u_adv-2.8.so.0:_ZN7wxSoundD0Ev
libwx_gtk2u_adv-2.8.so.0:_ZN7wxSoundD1Ev
libwx_gtk2u_adv-2.8.so.0:_ZN7wxSoundD2Ev
libwx_gtk2u_adv-2.8.so.0:_ZN8wxWizard10OnWizEventER13wxWizardEvent
libwx_gtk2u_adv-2.8.so.0:_ZN8wxWizard11SetPageSizeERK6wxSize
libwx_gtk2u_adv-2.8.so.0:_ZN8wxWizard12AddBitmapRowEP10wxBoxSizer
libwx_gtk2u_adv-2.8.so.0:_ZN8wxWizard12AddButtonRowEP10wxBoxSizer
libwx_gtk2u_adv-2.8.so.0:_ZN8wxWizard12OnBackOrNextER14wxCommandEvent
libwx_gtk2u_adv-2.8.so.0:_ZN8wxWizard13AddStaticLineEP10wxBoxSizer
libwx_gtk2u_adv-2.8.so.0:_ZN8wxWizard14wxCreateObjectEv
libwx_gtk2u_adv-2.8.so.0:_ZN8wxWizard15AddBackNextPairEP10wxBoxSizer
libwx_gtk2u_adv-2.8.so.0:_ZN8wxWizard16DoCreateControlsEv
libwx_gtk2u_adv-2.8.so.0:_ZN8wxWizard4InitEv
libwx_gtk2u_adv-2.8.so.0:_ZN8wxWizard6CreateEP8wxWindowiRK8wxStringRK8wxBitmapRK7wxPointl
libwx_gtk2u_adv-2.8.so.0:_ZN8wxWizard6OnHelpER14wxCommandEvent
libwx_gtk2u_adv-2.8.so.0:_ZN8wxWizard8OnCancelER14wxCommandEvent
libwx_gtk2u_adv-2.8.so.0:_ZN8wxWizard8ShowPageEP12wxWizardPageb
libwx_gtk2u_adv-2.8.so.0:_ZN8wxWizard9FitToPageEPK12wxWizardPage
libwx_gtk2u_adv-2.8.so.0:_ZN8wxWizard9RunWizardEP12wxWizardPage
libwx_gtk2u_adv-2.8.so.0:_ZN8wxWizard9SetBitmapERK8wxBitmap
libwx_gtk2u_adv-2.8.so.0:_ZN8wxWizard9SetBorderEi
libwx_gtk2u_adv-2.8.so.0:_ZN8wxWizardD0Ev
libwx_gtk2u_adv-2.8.so.0:_ZN8wxWizardD1Ev
libwx_gtk2u_adv-2.8.so.0:_ZN8wxWizardD2Ev
libwx_gtk2u_adv-2.8.so.0:_ZNK10wxJoystick10GetMaxAxesEv
libwx_gtk2u_adv-2.8.so.0:_ZNK10wxJoystick10HasPOV4DirEv
libwx_gtk2u_adv-2.8.so.0:_ZNK10wxJoystick11GetPositionEv
libwx_gtk2u_adv-2.8.so.0:_ZNK10wxJoystick12GetClassInfoEv
libwx_gtk2u_adv-2.8.so.0:_ZNK10wxJoystick12GetProductIdEv
libwx_gtk2u_adv-2.8.so.0:_ZNK10wxJoystick12GetRudderMaxEv
libwx_gtk2u_adv-2.8.so.0:_ZNK10wxJoystick12GetRudderMinEv
libwx_gtk2u_adv-2.8.so.0:_ZNK10wxJoystick12GetUPositionEv
libwx_gtk2u_adv-2.8.so.0:_ZNK10wxJoystick12GetVPositionEv
libwx_gtk2u_adv-2.8.so.0:_ZNK10wxJoystick12GetZPositionEv
libwx_gtk2u_adv-2.8.so.0:_ZNK10wxJoystick13GetMaxButtonsEv
libwx_gtk2u_adv-2.8.so.0:_ZNK10wxJoystick13GetNumberAxesEv
libwx_gtk2u_adv-2.8.so.0:_ZNK10wxJoystick13GetPollingMaxEv
libwx_gtk2u_adv-2.8.so.0:_ZNK10wxJoystick13GetPollingMinEv
libwx_gtk2u_adv-2.8.so.0:_ZNK10wxJoystick14GetButtonStateEv
libwx_gtk2u_adv-2.8.so.0:_ZNK10wxJoystick14GetPOVPositionEv
libwx_gtk2u_adv-2.8.so.0:_ZNK10wxJoystick14GetProductNameEv
libwx_gtk2u_adv-2.8.so.0:_ZNK10wxJoystick16GetNumberButtonsEv
libwx_gtk2u_adv-2.8.so.0:_ZNK10wxJoystick17GetManufacturerIdEv
libwx_gtk2u_adv-2.8.so.0:_ZNK10wxJoystick17GetPOVCTSPositionEv
libwx_gtk2u_adv-2.8.so.0:_ZNK10wxJoystick17GetRudderPositionEv
libwx_gtk2u_adv-2.8.so.0:_ZNK10wxJoystick20GetMovementThresholdEv
libwx_gtk2u_adv-2.8.so.0:_ZNK10wxJoystick4HasUEv
libwx_gtk2u_adv-2.8.so.0:_ZNK10wxJoystick4HasVEv
libwx_gtk2u_adv-2.8.so.0:_ZNK10wxJoystick4HasZEv
libwx_gtk2u_adv-2.8.so.0:_ZNK10wxJoystick4IsOkEv
libwx_gtk2u_adv-2.8.so.0:_ZNK10wxJoystick6HasPOVEv
libwx_gtk2u_adv-2.8.so.0:_ZNK10wxJoystick7GetUMaxEv
libwx_gtk2u_adv-2.8.so.0:_ZNK10wxJoystick7GetUMinEv
libwx_gtk2u_adv-2.8.so.0:_ZNK10wxJoystick7GetVMaxEv
libwx_gtk2u_adv-2.8.so.0:_ZNK10wxJoystick7GetVMinEv
libwx_gtk2u_adv-2.8.so.0:_ZNK10wxJoystick7GetXMaxEv
libwx_gtk2u_adv-2.8.so.0:_ZNK10wxJoystick7GetXMinEv
libwx_gtk2u_adv-2.8.so.0:_ZNK10wxJoystick7GetYMaxEv
libwx_gtk2u_adv-2.8.so.0:_ZNK10wxJoystick7GetYMinEv
libwx_gtk2u_adv-2.8.so.0:_ZNK10wxJoystick7GetZMaxEv
libwx_gtk2u_adv-2.8.so.0:_ZNK10wxJoystick7GetZMinEv
libwx_gtk2u_adv-2.8.so.0:_ZNK10wxJoystick9HasPOVCTSEv
libwx_gtk2u_adv-2.8.so.0:_ZNK10wxJoystick9HasRudderEv
libwx_gtk2u_adv-2.8.so.0:_ZNK11wxAnimation12GetClassInfoEv
libwx_gtk2u_adv-2.8.so.0:_ZNK11wxAnimation7GetSizeEv
libwx_gtk2u_adv-2.8.so.0:_ZNK11wxAnimation8GetFrameEj
libwx_gtk2u_adv-2.8.so.0:_ZNK11wxDateEvent12GetClassInfoEv
libwx_gtk2u_adv-2.8.so.0:_ZNK11wxGridEvent12GetClassInfoEv
libwx_gtk2u_adv-2.8.so.0:_ZNK11wxSashEvent12GetClassInfoEv
libwx_gtk2u_adv-2.8.so.0:_ZNK11wxTipDialog13GetEventTableEv
libwx_gtk2u_adv-2.8.so.0:_ZNK11wxTipDialog17GetEventHashTableEv
libwx_gtk2u_adv-2.8.so.0:_ZNK12wxGridWindow12GetClassInfoEv
libwx_gtk2u_adv-2.8.so.0:_ZNK12wxGridWindow13GetEventTableEv
libwx_gtk2u_adv-2.8.so.0:_ZNK12wxGridWindow17GetEventHashTableEv
libwx_gtk2u_adv-2.8.so.0:_ZNK12wxSashWindow12GetClassInfoEv
libwx_gtk2u_adv-2.8.so.0:_ZNK12wxSashWindow13GetEventTableEv
libwx_gtk2u_adv-2.8.so.0:_ZNK12wxSashWindow17GetEventHashTableEv
libwx_gtk2u_adv-2.8.so.0:_ZNK12wxWizardPage12GetClassInfoEv
libwx_gtk2u_adv-2.8.so.0:_ZNK13wxTaskBarIcon12GetClassInfoEv
libwx_gtk2u_adv-2.8.so.0:_ZNK13wxTaskBarIcon15IsIconInstalledEv
libwx_gtk2u_adv-2.8.so.0:_ZNK13wxTaskBarIcon4IsOkEv
libwx_gtk2u_adv-2.8.so.0:_ZNK13wxWizardEvent12GetClassInfoEv
libwx_gtk2u_adv-2.8.so.0:_ZNK13wxWizardSizer9GetBorderEv
libwx_gtk2u_adv-2.8.so.0:_ZNK14wxCalendarCtrl10ChangeYearEP10wxDateTime
libwx_gtk2u_adv-2.8.so.0:_ZNK14wxCalendarCtrl11ChangeMonthEP10wxDateTime
libwx_gtk2u_adv-2.8.so.0:_ZNK14wxCalendarCtrl11IsDateShownERK10wxDateTime
libwx_gtk2u_adv-2.8.so.0:_ZNK14wxCalendarCtrl12GetClassInfoEv
libwx_gtk2u_adv-2.8.so.0:_ZNK14wxCalendarCtrl12GetDateCoordERK10wxDateTimePiS3_
libwx_gtk2u_adv-2.8.so.0:_ZNK14wxCalendarCtrl12GetStartDateEv
libwx_gtk2u_adv-2.8.so.0:_ZNK14wxCalendarCtrl13DoGetBestSizeEv
libwx_gtk2u_adv-2.8.so.0:_ZNK14wxCalendarCtrl13DoGetPositionEPiS0_
libwx_gtk2u_adv-2.8.so.0:_ZNK14wxCalendarCtrl13GetEventTableEv
libwx_gtk2u_adv-2.8.so.0:_ZNK14wxCalendarCtrl13IsDateInRangeERK10wxDateTime
libwx_gtk2u_adv-2.8.so.0:_ZNK14wxCalendarCtrl14GetYearControlEv
libwx_gtk2u_adv-2.8.so.0:_ZNK14wxCalendarCtrl15GetMonthControlEv
libwx_gtk2u_adv-2.8.so.0:_ZNK14wxCalendarCtrl17GetEventHashTableEv
libwx_gtk2u_adv-2.8.so.0:_ZNK14wxCalendarCtrl7GetWeekERK10wxDateTime
libwx_gtk2u_adv-2.8.so.0:_ZNK14wxCalendarCtrl9DoGetSizeEPiS0_
libwx_gtk2u_adv-2.8.so.0:_ZNK14wxGridCellAttr11GetRendererEP6wxGridii
libwx_gtk2u_adv-2.8.so.0:_ZNK14wxGridCellAttr12GetAlignmentEPiS0_
libwx_gtk2u_adv-2.8.so.0:_ZNK14wxGridCellAttr13GetTextColourEv
libwx_gtk2u_adv-2.8.so.0:_ZNK14wxGridCellAttr19GetBackgroundColourEv
libwx_gtk2u_adv-2.8.so.0:_ZNK14wxGridCellAttr5CloneEv
libwx_gtk2u_adv-2.8.so.0:_ZNK14wxGridCellAttr7GetFontEv
libwx_gtk2u_adv-2.8.so.0:_ZNK14wxGridCellAttr7GetSizeEPiS0_
libwx_gtk2u_adv-2.8.so.0:_ZNK14wxGridCellAttr9GetEditorEP6wxGridii
libwx_gtk2u_adv-2.8.so.0:_ZNK14wxSplashScreen12GetClassInfoEv
libwx_gtk2u_adv-2.8.so.0:_ZNK14wxSplashScreen13GetEventTableEv
libwx_gtk2u_adv-2.8.so.0:_ZNK14wxSplashScreen17GetEventHashTableEv
libwx_gtk2u_adv-2.8.so.0:_ZNK15wxAnimationBase12GetClassInfoEv
libwx_gtk2u_adv-2.8.so.0:_ZNK15wxAnimationCtrl12GetClassInfoEv
libwx_gtk2u_adv-2.8.so.0:_ZNK15wxAnimationCtrl13DoGetBestSizeEv
libwx_gtk2u_adv-2.8.so.0:_ZNK15wxAnimationCtrl13GetEventTableEv
libwx_gtk2u_adv-2.8.so.0:_ZNK15wxAnimationCtrl17GetEventHashTableEv
libwx_gtk2u_adv-2.8.so.0:_ZNK15wxAnimationCtrl9IsPlayingEv
libwx_gtk2u_adv-2.8.so.0:_ZNK15wxCalendarEvent12GetClassInfoEv
libwx_gtk2u_adv-2.8.so.0:_ZNK15wxGridSizeEvent12GetClassInfoEv
libwx_gtk2u_adv-2.8.so.0:_ZNK15wxGridSubwindow13GetEventTableEv
libwx_gtk2u_adv-2.8.so.0:_ZNK15wxGridSubwindow17GetEventHashTableEv
libwx_gtk2u_adv-2.8.so.0:_ZNK15wxGridTableBase12GetClassInfoEv
libwx_gtk2u_adv-2.8.so.0:_ZNK15wxHyperlinkCtrl12GetClassInfoEv
libwx_gtk2u_adv-2.8.so.0:_ZNK15wxHyperlinkCtrl12GetLabelRectEv
libwx_gtk2u_adv-2.8.so.0:_ZNK15wxHyperlinkCtrl13DoGetBestSizeEv
libwx_gtk2u_adv-2.8.so.0:_ZNK15wxHyperlinkCtrl13GetEventTableEv
libwx_gtk2u_adv-2.8.so.0:_ZNK15wxHyperlinkCtrl17GetEventHashTableEv
libwx_gtk2u_adv-2.8.so.0:_ZNK16wxBitmapComboBox10OnDrawItemER4wxDCRK6wxRectii
libwx_gtk2u_adv-2.8.so.0:_ZNK16wxBitmapComboBox12GetClassInfoEv
libwx_gtk2u_adv-2.8.so.0:_ZNK16wxBitmapComboBox13DoGetBestSizeEv
libwx_gtk2u_adv-2.8.so.0:_ZNK16wxBitmapComboBox13GetEventTableEv
libwx_gtk2u_adv-2.8.so.0:_ZNK16wxBitmapComboBox13GetItemBitmapEj
libwx_gtk2u_adv-2.8.so.0:_ZNK16wxBitmapComboBox13OnMeasureItemEm
libwx_gtk2u_adv-2.8.so.0:_ZNK16wxBitmapComboBox16OnDrawBackgroundER4wxDCRK6wxRectii
libwx_gtk2u_adv-2.8.so.0:_ZNK16wxBitmapComboBox17GetEventHashTableEv
libwx_gtk2u_adv-2.8.so.0:_ZNK16wxBitmapComboBox18OnMeasureItemWidthEm
libwx_gtk2u_adv-2.8.so.0:_ZNK16wxDatePickerCtrl12GetClassInfoEv
libwx_gtk2u_adv-2.8.so.0:_ZNK16wxHyperlinkEvent12GetClassInfoEv
libwx_gtk2u_adv-2.8.so.0:_ZNK17wxAboutDialogInfo21GetCopyrightToDisplayEv
libwx_gtk2u_adv-2.8.so.0:_ZNK17wxAboutDialogInfo24GetDescriptionAndCreditsEv
libwx_gtk2u_adv-2.8.so.0:_ZNK17wxAboutDialogInfo7GetIconEv
libwx_gtk2u_adv-2.8.so.0:_ZNK17wxGridStringArray5IndexERK13wxArrayStringb
libwx_gtk2u_adv-2.8.so.0:_ZNK17wxGridStringTable12GetClassInfoEv
libwx_gtk2u_adv-2.8.so.0:_ZNK17wxSoundBackendOSS11IsAvailableEv
libwx_gtk2u_adv-2.8.so.0:_ZNK17wxSoundBackendSDL11IsAvailableEv
libwx_gtk2u_adv-2.8.so.0:_ZNK17wxTaskBarIconArea13GetEventTableEv
libwx_gtk2u_adv-2.8.so.0:_ZNK17wxTaskBarIconArea17GetEventHashTableEv
libwx_gtk2u_adv-2.8.so.0:_ZNK17wxTaskBarIconBase13GetEventTableEv
libwx_gtk2u_adv-2.8.so.0:_ZNK17wxTaskBarIconBase17GetEventHashTableEv
libwx_gtk2u_adv-2.8.so.0:_ZNK18wxGridCellAttrData7GetAttrEii
libwx_gtk2u_adv-2.8.so.0:_ZNK18wxGridCellAttrData9FindIndexEii
libwx_gtk2u_adv-2.8.so.0:_ZNK18wxSashLayoutWindow12GetClassInfoEv
libwx_gtk2u_adv-2.8.so.0:_ZNK18wxSashLayoutWindow13GetEventTableEv
libwx_gtk2u_adv-2.8.so.0:_ZNK18wxSashLayoutWindow17GetEventHashTableEv
libwx_gtk2u_adv-2.8.so.0:_ZNK18wxWizardPageSimple12GetClassInfoEv
libwx_gtk2u_adv-2.8.so.0:_ZNK18wxWizardPageSimple7GetNextEv
libwx_gtk2u_adv-2.8.so.0:_ZNK18wxWizardPageSimple7GetPrevEv
libwx_gtk2u_adv-2.8.so.0:_ZNK19wxAnimationCtrlBase12GetClassInfoEv
libwx_gtk2u_adv-2.8.so.0:_ZNK19wxExtHelpController12GetClassInfoEv
libwx_gtk2u_adv-2.8.so.0:_ZNK20wxCalendarComboPopup13GetEventTableEv
libwx_gtk2u_adv-2.8.so.0:_ZNK20wxCalendarComboPopup17GetEventHashTableEv
libwx_gtk2u_adv-2.8.so.0:_ZNK20wxGridCellBoolEditor8GetValueEv
libwx_gtk2u_adv-2.8.so.0:_ZNK20wxGridCellEnumEditor5CloneEv
libwx_gtk2u_adv-2.8.so.0:_ZNK20wxGridCellTextEditor8GetValueEv
libwx_gtk2u_adv-2.8.so.0:_ZNK20wxGridColLabelWindow12GetClassInfoEv
libwx_gtk2u_adv-2.8.so.0:_ZNK20wxGridColLabelWindow13GetEventTableEv
libwx_gtk2u_adv-2.8.so.0:_ZNK20wxGridColLabelWindow17GetEventHashTableEv
libwx_gtk2u_adv-2.8.so.0:_ZNK20wxGridRowLabelWindow12GetClassInfoEv
libwx_gtk2u_adv-2.8.so.0:_ZNK20wxGridRowLabelWindow13GetEventTableEv
libwx_gtk2u_adv-2.8.so.0:_ZNK20wxGridRowLabelWindow17GetEventHashTableEv
libwx_gtk2u_adv-2.8.so.0:_ZNK20wxOwnerDrawnComboBox10FindStringERK8wxStringb
libwx_gtk2u_adv-2.8.so.0:_ZNK20wxOwnerDrawnComboBox10OnDrawItemER4wxDCRK6wxRectii
libwx_gtk2u_adv-2.8.so.0:_ZNK20wxOwnerDrawnComboBox12GetClassInfoEv
libwx_gtk2u_adv-2.8.so.0:_ZNK20wxOwnerDrawnComboBox12GetSelectionEv
libwx_gtk2u_adv-2.8.so.0:_ZNK20wxOwnerDrawnComboBox13GetEventTableEv
libwx_gtk2u_adv-2.8.so.0:_ZNK20wxOwnerDrawnComboBox13OnMeasureItemEm
libwx_gtk2u_adv-2.8.so.0:_ZNK20wxOwnerDrawnComboBox16OnDrawBackgroundER4wxDCRK6wxRectii
libwx_gtk2u_adv-2.8.so.0:_ZNK20wxOwnerDrawnComboBox17GetEventHashTableEv
libwx_gtk2u_adv-2.8.so.0:_ZNK20wxOwnerDrawnComboBox18OnMeasureItemWidthEm
libwx_gtk2u_adv-2.8.so.0:_ZNK20wxOwnerDrawnComboBox19DoGetItemClientDataEj
libwx_gtk2u_adv-2.8.so.0:_ZNK20wxOwnerDrawnComboBox21DoGetItemClientObjectEj
libwx_gtk2u_adv-2.8.so.0:_ZNK20wxOwnerDrawnComboBox8GetCountEv
libwx_gtk2u_adv-2.8.so.0:_ZNK20wxOwnerDrawnComboBox9GetStringEj
libwx_gtk2u_adv-2.8.so.0:_ZNK20wxSoundCleanupModule12GetClassInfoEv
libwx_gtk2u_adv-2.8.so.0:_ZNK20wxSplashScreenWindow13GetEventTableEv
libwx_gtk2u_adv-2.8.so.0:_ZNK20wxSplashScreenWindow17GetEventHashTableEv
libwx_gtk2u_adv-2.8.so.0:_ZNK20wxVListBoxComboPopup10FindStringERK8wxStringb
libwx_gtk2u_adv-2.8.so.0:_ZNK20wxVListBoxComboPopup10OnDrawItemER4wxDCRK6wxRectii
libwx_gtk2u_adv-2.8.so.0:_ZNK20wxVListBoxComboPopup10OnDrawItemER4wxDCRK6wxRectm
libwx_gtk2u_adv-2.8.so.0:_ZNK20wxVListBoxComboPopup12GetSelectionEv
libwx_gtk2u_adv-2.8.so.0:_ZNK20wxVListBoxComboPopup13GetEventTableEv
libwx_gtk2u_adv-2.8.so.0:_ZNK20wxVListBoxComboPopup13OnMeasureItemEm
libwx_gtk2u_adv-2.8.so.0:_ZNK20wxVListBoxComboPopup14GetStringValueEv
libwx_gtk2u_adv-2.8.so.0:_ZNK20wxVListBoxComboPopup16OnDrawBackgroundER4wxDCRK6wxRectm
libwx_gtk2u_adv-2.8.so.0:_ZNK20wxVListBoxComboPopup17GetEventHashTableEv
libwx_gtk2u_adv-2.8.so.0:_ZNK20wxVListBoxComboPopup17GetItemClientDataEj
libwx_gtk2u_adv-2.8.so.0:_ZNK20wxVListBoxComboPopup18OnMeasureItemWidthEm
libwx_gtk2u_adv-2.8.so.0:_ZNK20wxVListBoxComboPopup8GetCountEv
libwx_gtk2u_adv-2.8.so.0:_ZNK20wxVListBoxComboPopup8OnDrawBgER4wxDCRK6wxRectii
libwx_gtk2u_adv-2.8.so.0:_ZNK20wxVListBoxComboPopup9GetStringEi
libwx_gtk2u_adv-2.8.so.0:_ZNK21wxGridCellCoordsArray5IndexERK16wxGridCellCoordsb
libwx_gtk2u_adv-2.8.so.0:_ZNK21wxGridCellFloatEditor9GetStringEv
libwx_gtk2u_adv-2.8.so.0:_ZNK21wxPropertySheetDialog12GetClassInfoEv
libwx_gtk2u_adv-2.8.so.0:_ZNK21wxPropertySheetDialog13GetEventTableEv
libwx_gtk2u_adv-2.8.so.0:_ZNK21wxPropertySheetDialog17GetEventHashTableEv
libwx_gtk2u_adv-2.8.so.0:_ZNK22wxCalculateLayoutEvent12GetClassInfoEv
libwx_gtk2u_adv-2.8.so.0:_ZNK22wxGridCellAttrProvider7GetAttrEiiN14wxGridCellAttr10wxAttrKindE
libwx_gtk2u_adv-2.8.so.0:_ZNK22wxGridCellChoiceEditor5CloneEv
libwx_gtk2u_adv-2.8.so.0:_ZNK22wxGridCellChoiceEditor8GetValueEv
libwx_gtk2u_adv-2.8.so.0:_ZNK22wxGridCellEnumRenderer5CloneEv
libwx_gtk2u_adv-2.8.so.0:_ZNK22wxGridCellNumberEditor8GetValueEv
libwx_gtk2u_adv-2.8.so.0:_ZNK22wxGridRangeSelectEvent12GetClassInfoEv
libwx_gtk2u_adv-2.8.so.0:_ZNK22wxGridRowOrColAttrData7GetAttrEi
libwx_gtk2u_adv-2.8.so.0:_ZNK22wxQueryLayoutInfoEvent12GetClassInfoEv
libwx_gtk2u_adv-2.8.so.0:_ZNK22wxSoundSyncOnlyAdaptor9IsPlayingEv
libwx_gtk2u_adv-2.8.so.0:_ZNK23wxDatePickerCtrlGeneric13DoGetBestSizeEv
libwx_gtk2u_adv-2.8.so.0:_ZNK23wxDatePickerCtrlGeneric13GetEventTableEv
libwx_gtk2u_adv-2.8.so.0:_ZNK23wxDatePickerCtrlGeneric17GetEventHashTableEv
libwx_gtk2u_adv-2.8.so.0:_ZNK23wxDatePickerCtrlGeneric8GetRangeEP10wxDateTimeS1_
libwx_gtk2u_adv-2.8.so.0:_ZNK23wxDatePickerCtrlGeneric8GetValueEv
libwx_gtk2u_adv-2.8.so.0:_ZNK23wxGridCellFloatRenderer5CloneEv
libwx_gtk2u_adv-2.8.so.0:_ZNK23wxGridCellWithAttrArray5IndexERK18wxGridCellWithAttrb
libwx_gtk2u_adv-2.8.so.0:_ZNK23wxGridCornerLabelWindow12GetClassInfoEv
libwx_gtk2u_adv-2.8.so.0:_ZNK23wxGridCornerLabelWindow13GetEventTableEv
libwx_gtk2u_adv-2.8.so.0:_ZNK23wxGridCornerLabelWindow17GetEventHashTableEv
libwx_gtk2u_adv-2.8.so.0:_ZNK24wxGridEditorCreatedEvent12GetClassInfoEv
libwx_gtk2u_adv-2.8.so.0:_ZNK26wxGridCellDateTimeRenderer5CloneEv
libwx_gtk2u_adv-2.8.so.0:_ZNK26wxGridCellEditorEvtHandler12GetClassInfoEv
libwx_gtk2u_adv-2.8.so.0:_ZNK26wxGridCellEditorEvtHandler13GetEventTableEv
libwx_gtk2u_adv-2.8.so.0:_ZNK26wxGridCellEditorEvtHandler17GetEventHashTableEv
libwx_gtk2u_adv-2.8.so.0:_ZNK27wxSoundBackendSDLEvtHandler13GetEventTableEv
libwx_gtk2u_adv-2.8.so.0:_ZNK27wxSoundBackendSDLEvtHandler17GetEventHashTableEv
libwx_gtk2u_adv-2.8.so.0:_ZNK29wxSoundBackendSDLNotification12GetClassInfoEv
libwx_gtk2u_adv-2.8.so.0:_ZNK6wxGrid10GetColLeftEi
libwx_gtk2u_adv-2.8.so.0:_ZNK6wxGrid10IsReadOnlyEii
libwx_gtk2u_adv-2.8.so.0:_ZNK6wxGrid10LookupAttrEiiPP14wxGridCellAttr
libwx_gtk2u_adv-2.8.so.0:_ZNK6wxGrid11GetCellAttrEii
libwx_gtk2u_adv-2.8.so.0:_ZNK6wxGrid11GetColRightEi
libwx_gtk2u_adv-2.8.so.0:_ZNK6wxGrid11GetColWidthEi
libwx_gtk2u_adv-2.8.so.0:_ZNK6wxGrid12GetClassInfoEv
libwx_gtk2u_adv-2.8.so.0:_ZNK6wxGrid12GetRowBottomEi
libwx_gtk2u_adv-2.8.so.0:_ZNK6wxGrid12GetRowHeightEi
libwx_gtk2u_adv-2.8.so.0:_ZNK6wxGrid13DoGetBestSizeEv
libwx_gtk2u_adv-2.8.so.0:_ZNK6wxGrid13GetDividerPenEv
libwx_gtk2u_adv-2.8.so.0:_ZNK6wxGrid13GetEventTableEv
libwx_gtk2u_adv-2.8.so.0:_ZNK6wxGrid13IsInSelectionEii
libwx_gtk2u_adv-2.8.so.0:_ZNK6wxGrid15GetSelectedColsEv
libwx_gtk2u_adv-2.8.so.0:_ZNK6wxGrid15GetSelectedRowsEv
libwx_gtk2u_adv-2.8.so.0:_ZNK6wxGrid16GetDefaultEditorEv
libwx_gtk2u_adv-2.8.so.0:_ZNK6wxGrid16GetSelectedCellsEv
libwx_gtk2u_adv-2.8.so.0:_ZNK6wxGrid16GetSelectionModeEv
libwx_gtk2u_adv-2.8.so.0:_ZNK6wxGrid17GetEventHashTableEv
libwx_gtk2u_adv-2.8.so.0:_ZNK6wxGrid18GetColMinimalWidthEi
libwx_gtk2u_adv-2.8.so.0:_ZNK6wxGrid18GetDefaultRendererEv
libwx_gtk2u_adv-2.8.so.0:_ZNK6wxGrid19GetOrCreateCellAttrEii
libwx_gtk2u_adv-2.8.so.0:_ZNK6wxGrid19GetRowMinimalHeightEi
libwx_gtk2u_adv-2.8.so.0:_ZNK6wxGrid20CanEnableCellControlEv
libwx_gtk2u_adv-2.8.so.0:_ZNK6wxGrid21IsCurrentCellReadOnlyEv
libwx_gtk2u_adv-2.8.so.0:_ZNK6wxGrid22IsCellEditControlShownEv
libwx_gtk2u_adv-2.8.so.0:_ZNK6wxGrid23GetDefaultEditorForCellEii
libwx_gtk2u_adv-2.8.so.0:_ZNK6wxGrid23GetDefaultEditorForTypeERK8wxString
libwx_gtk2u_adv-2.8.so.0:_ZNK6wxGrid24GetSelectionBlockTopLeftEv
libwx_gtk2u_adv-2.8.so.0:_ZNK6wxGrid24IsCellEditControlEnabledEv
libwx_gtk2u_adv-2.8.so.0:_ZNK6wxGrid25GetDefaultRendererForCellEii
libwx_gtk2u_adv-2.8.so.0:_ZNK6wxGrid25GetDefaultRendererForTypeERK8wxString
libwx_gtk2u_adv-2.8.so.0:_ZNK6wxGrid28GetColMinimalAcceptableWidthEv
libwx_gtk2u_adv-2.8.so.0:_ZNK6wxGrid28GetSelectionBlockBottomRightEv
libwx_gtk2u_adv-2.8.so.0:_ZNK6wxGrid29GetRowMinimalAcceptableHeightEv
libwx_gtk2u_adv-2.8.so.0:_ZNK6wxGrid9CacheAttrEiiP14wxGridCellAttr
libwx_gtk2u_adv-2.8.so.0:_ZNK6wxGrid9GetRowTopEi
libwx_gtk2u_adv-2.8.so.0:_ZNK7wxSound6DoPlayEj
libwx_gtk2u_adv-2.8.so.0:_ZNK8wxWizard11GetPageSizeEv
libwx_gtk2u_adv-2.8.so.0:_ZNK8wxWizard12GetClassInfoEv
libwx_gtk2u_adv-2.8.so.0:_ZNK8wxWizard13GetEventTableEv
libwx_gtk2u_adv-2.8.so.0:_ZNK8wxWizard14GetCurrentPageEv
libwx_gtk2u_adv-2.8.so.0:_ZNK8wxWizard16GetPageAreaSizerEv
libwx_gtk2u_adv-2.8.so.0:_ZNK8wxWizard17GetEventHashTableEv
libwx_gtk2u_adv-2.8.so.0:_ZThn16_N15wxGridTableBaseD0Ev
libwx_gtk2u_adv-2.8.so.0:_ZThn16_N15wxGridTableBaseD1Ev
libwx_gtk2u_adv-2.8.so.0:_ZThn16_N17wxGridStringTableD0Ev
libwx_gtk2u_adv-2.8.so.0:_ZThn16_N17wxGridStringTableD1Ev
libwx_gtk2u_adv-2.8.so.0:_ZThn592_N6wxGridD0Ev
libwx_gtk2u_adv-2.8.so.0:_ZThn592_N6wxGridD1Ev
libwx_gtk2u_adv-2.8.so.0:_ZThn672_N20wxVListBoxComboPopup10LazyCreateEv
libwx_gtk2u_adv-2.8.so.0:_ZThn672_N20wxVListBoxComboPopup14SetStringValueERK8wxString
libwx_gtk2u_adv-2.8.so.0:_ZThn672_N20wxVListBoxComboPopup15GetAdjustedSizeEiii
libwx_gtk2u_adv-2.8.so.0:_ZThn672_N20wxVListBoxComboPopup15OnComboKeyEventER10wxKeyEvent
libwx_gtk2u_adv-2.8.so.0:_ZThn672_N20wxVListBoxComboPopup17PaintComboControlER4wxDCRK6wxRect
libwx_gtk2u_adv-2.8.so.0:_ZThn672_N20wxVListBoxComboPopup18OnComboDoubleClickEv
libwx_gtk2u_adv-2.8.so.0:_ZThn672_N20wxVListBoxComboPopup4InitEv
libwx_gtk2u_adv-2.8.so.0:_ZThn672_N20wxVListBoxComboPopup6CreateEP8wxWindow
libwx_gtk2u_adv-2.8.so.0:_ZThn672_N20wxVListBoxComboPopup7OnPopupEv
libwx_gtk2u_adv-2.8.so.0:_ZThn672_N20wxVListBoxComboPopupD0Ev
libwx_gtk2u_adv-2.8.so.0:_ZThn672_N20wxVListBoxComboPopupD1Ev
libwx_gtk2u_adv-2.8.so.0:_ZThn672_NK20wxVListBoxComboPopup14GetStringValueEv
libwx_gtk2u_adv-2.8.so.0:_ZThn848_N16wxBitmapComboBox5ClearEv
libwx_gtk2u_adv-2.8.so.0:_ZThn848_N16wxBitmapComboBox6DeleteEj
libwx_gtk2u_adv-2.8.so.0:_ZThn848_N16wxBitmapComboBox8DoAppendERK8wxString
libwx_gtk2u_adv-2.8.so.0:_ZThn848_N16wxBitmapComboBox8DoInsertERK8wxStringj
libwx_gtk2u_adv-2.8.so.0:_ZThn848_N16wxBitmapComboBoxD0Ev
libwx_gtk2u_adv-2.8.so.0:_ZThn848_N16wxBitmapComboBoxD1Ev
libwx_gtk2u_adv-2.8.so.0:_ZThn848_N20wxOwnerDrawnComboBox19DoSetItemClientDataEjPv
libwx_gtk2u_adv-2.8.so.0:_ZThn848_N20wxOwnerDrawnComboBox21DoSetItemClientObjectEjP12wxClientData
libwx_gtk2u_adv-2.8.so.0:_ZThn848_N20wxOwnerDrawnComboBox5ClearEv
libwx_gtk2u_adv-2.8.so.0:_ZThn848_N20wxOwnerDrawnComboBox6DeleteEj
libwx_gtk2u_adv-2.8.so.0:_ZThn848_N20wxOwnerDrawnComboBox8DoAppendERK8wxString
libwx_gtk2u_adv-2.8.so.0:_ZThn848_N20wxOwnerDrawnComboBox8DoInsertERK8wxStringj
libwx_gtk2u_adv-2.8.so.0:_ZThn848_N20wxOwnerDrawnComboBox9SetStringEjRK8wxString
libwx_gtk2u_adv-2.8.so.0:_ZThn848_N20wxOwnerDrawnComboBoxD0Ev
libwx_gtk2u_adv-2.8.so.0:_ZThn848_N20wxOwnerDrawnComboBoxD1Ev
libwx_gtk2u_adv-2.8.so.0:_ZThn848_NK20wxOwnerDrawnComboBox10FindStringERK8wxStringb
libwx_gtk2u_adv-2.8.so.0:_ZThn848_NK20wxOwnerDrawnComboBox12GetSelectionEv
libwx_gtk2u_adv-2.8.so.0:_ZThn848_NK20wxOwnerDrawnComboBox19DoGetItemClientDataEj
libwx_gtk2u_adv-2.8.so.0:_ZThn848_NK20wxOwnerDrawnComboBox21DoGetItemClientObjectEj
libwx_gtk2u_adv-2.8.so.0:_ZThn848_NK20wxOwnerDrawnComboBox8GetCountEv
libwx_gtk2u_adv-2.8.so.0:_ZThn848_NK20wxOwnerDrawnComboBox9GetStringEj
libwx_gtk2u_adv-2.8.so.0:_ZThn896_N16wxBitmapComboBox13SetItemBitmapEjRK8wxBitmap
libwx_gtk2u_adv-2.8.so.0:_ZThn896_N16wxBitmapComboBoxD0Ev
libwx_gtk2u_adv-2.8.so.0:_ZThn896_N16wxBitmapComboBoxD1Ev
libwx_gtk2u_adv-2.8.so.0:_ZThn896_NK16wxBitmapComboBox13GetItemBitmapEj
libwx_gtk2u_adv-2.8.so.0:egg_tray_icon_cancel_message
libwx_gtk2u_adv-2.8.so.0:egg_tray_icon_get_orientation
libwx_gtk2u_adv-2.8.so.0:egg_tray_icon_get_type
libwx_gtk2u_adv-2.8.so.0:egg_tray_icon_new
libwx_gtk2u_adv-2.8.so.0:egg_tray_icon_new_for_screen
libwx_gtk2u_adv-2.8.so.0:egg_tray_icon_send_message
libwx_gtk2u_adv-2.8.so.0:wxCreateSoundBackendSDL
libwx_gtk2u_adv-2.8.so.0:wxGtkAboutDialogOnClose
libwx_gtk2u_adv-2.8.so.0:wxGtkAboutDialogOnLink
libwx_gtk2u_adv-2.8.so.0:wx_sdl_audio_callback
libwx_gtk2u_aui-2.8.so.0:WXU_2.8
libwx_gtk2u_aui-2.8.so.0:WXU_2.8.1
libwx_gtk2u_aui-2.8.so.0:WXU_2.8.10
libwx_gtk2u_aui-2.8.so.0:WXU_2.8.11
libwx_gtk2u_aui-2.8.so.0:WXU_2.8.12
libwx_gtk2u_aui-2.8.so.0:WXU_2.8.2
libwx_gtk2u_aui-2.8.so.0:WXU_2.8.4
libwx_gtk2u_aui-2.8.so.0:WXU_2.8.5
libwx_gtk2u_aui-2.8.so.0:WXU_2.8.7
libwx_gtk2u_aui-2.8.so.0:WXU_2.8.8
libwx_gtk2u_aui-2.8.so.0:WXU_2.8.9
libwx_gtk2u_aui-2.8.so.0:_Z13wxAuiChopTextR4wxDCRK8wxStringi
libwx_gtk2u_aui-2.8.so.0:_Z15wxAuiStepColourRK8wxColouri
libwx_gtk2u_aui-2.8.so.0:_Z16wxAuiBlendColourhhd
libwx_gtk2u_aui-2.8.so.0:_Z19wxAuiBitmapFromBitsPKhiiRK8wxColour
libwx_gtk2u_aui-2.8.so.0:_Z24wxAuiLightContrastColourRK8wxColour
libwx_gtk2u_aui-2.8.so.0:_Z26wxAuiManager_HasLiveResizeR12wxAuiManager
libwx_gtk2u_aui-2.8.so.0:_ZN12wxAuiManager10DetachPaneEP8wxWindow
libwx_gtk2u_aui-2.8.so.0:_ZN12wxAuiManager10GetManagerEP8wxWindow
libwx_gtk2u_aui-2.8.so.0:_ZN12wxAuiManager10InsertPaneEP8wxWindowRK13wxAuiPaneInfoi
libwx_gtk2u_aui-2.8.so.0:_ZN12wxAuiManager10OnLeftDownER12wxMouseEvent
libwx_gtk2u_aui-2.8.so.0:_ZN12wxAuiManager11GetAllPanesEv
libwx_gtk2u_aui-2.8.so.0:_ZN12wxAuiManager11GetPanePartEP8wxWindow
libwx_gtk2u_aui-2.8.so.0:_ZN12wxAuiManager11OnSetCursorER16wxSetCursorEvent
libwx_gtk2u_aui-2.8.so.0:_ZN12wxAuiManager11RestorePaneER13wxAuiPaneInfo
libwx_gtk2u_aui-2.8.so.0:_ZN12wxAuiManager12DrawHintRectEP8wxWindowRK7wxPointS4_
libwx_gtk2u_aui-2.8.so.0:_ZN12wxAuiManager12LoadPaneInfoE8wxStringR13wxAuiPaneInfo
libwx_gtk2u_aui-2.8.so.0:_ZN12wxAuiManager12MaximizePaneER13wxAuiPaneInfo
libwx_gtk2u_aui-2.8.so.0:_ZN12wxAuiManager12OnChildFocusER17wxChildFocusEvent
libwx_gtk2u_aui-2.8.so.0:_ZN12wxAuiManager12OnPaneButtonER17wxAuiManagerEvent
libwx_gtk2u_aui-2.8.so.0:_ZN12wxAuiManager12SavePaneInfoER13wxAuiPaneInfo
libwx_gtk2u_aui-2.8.so.0:_ZN12wxAuiManager13DoFrameLayoutEv
libwx_gtk2u_aui-2.8.so.0:_ZN12wxAuiManager13LayoutAddDockEP7wxSizerR13wxAuiDockInfoR20wxAuiDockUIPartArrayb
libwx_gtk2u_aui-2.8.so.0:_ZN12wxAuiManager13LayoutAddPaneEP7wxSizerR13wxAuiDockInfoR13wxAuiPaneInfoR20wxAuiDockUIPartArrayb
libwx_gtk2u_aui-2.8.so.0:_ZN12wxAuiManager13OnFindManagerER17wxAuiManagerEvent
libwx_gtk2u_aui-2.8.so.0:_ZN12wxAuiManager13OnLeaveWindowER12wxMouseEvent
libwx_gtk2u_aui-2.8.so.0:_ZN12wxAuiManager13StartPaneDragEP8wxWindowRK7wxPoint
libwx_gtk2u_aui-2.8.so.0:_ZN12wxAuiManager14SetArtProviderEP12wxAuiDockArt
libwx_gtk2u_aui-2.8.so.0:_ZN12wxAuiManager15LoadPerspectiveERK8wxStringb
libwx_gtk2u_aui-2.8.so.0:_ZN12wxAuiManager15OnHintFadeTimerER12wxTimerEvent
libwx_gtk2u_aui-2.8.so.0:_ZN12wxAuiManager15ProcessMgrEventER17wxAuiManagerEvent
libwx_gtk2u_aui-2.8.so.0:_ZN12wxAuiManager15SavePerspectiveEv
libwx_gtk2u_aui-2.8.so.0:_ZN12wxAuiManager16SetManagedWindowEP8wxWindow
libwx_gtk2u_aui-2.8.so.0:_ZN12wxAuiManager17CalculateHintRectEP8wxWindowRK7wxPointS4_
libwx_gtk2u_aui-2.8.so.0:_ZN12wxAuiManager17DoEndResizeActionER12wxMouseEvent
libwx_gtk2u_aui-2.8.so.0:_ZN12wxAuiManager17OnEraseBackgroundER12wxEraseEvent
libwx_gtk2u_aui-2.8.so.0:_ZN12wxAuiManager17ProcessDockResultER13wxAuiPaneInfoRKS0_
libwx_gtk2u_aui-2.8.so.0:_ZN12wxAuiManager18GetDockPixelOffsetER13wxAuiPaneInfo
libwx_gtk2u_aui-2.8.so.0:_ZN12wxAuiManager19CreateFloatingFrameEP8wxWindowRK13wxAuiPaneInfo
libwx_gtk2u_aui-2.8.so.0:_ZN12wxAuiManager19OnFloatingPaneMovedEP8wxWindow11wxDirection
libwx_gtk2u_aui-2.8.so.0:_ZN12wxAuiManager20OnFloatingPaneClosedEP8wxWindowR12wxCloseEvent
libwx_gtk2u_aui-2.8.so.0:_ZN12wxAuiManager20OnFloatingPaneMovingEP8wxWindow11wxDirection
libwx_gtk2u_aui-2.8.so.0:_ZN12wxAuiManager20RestoreMaximizedPaneEv
libwx_gtk2u_aui-2.8.so.0:_ZN12wxAuiManager20UpdateButtonOnScreenEP15wxAuiDockUIPartRK12wxMouseEvent
libwx_gtk2u_aui-2.8.so.0:_ZN12wxAuiManager21OnFloatingPaneResizedEP8wxWindowRK6wxSize
libwx_gtk2u_aui-2.8.so.0:_ZN12wxAuiManager21SetDockSizeConstraintEdd
libwx_gtk2u_aui-2.8.so.0:_ZN12wxAuiManager22UpdateHintWindowConfigEv
libwx_gtk2u_aui-2.8.so.0:_ZN12wxAuiManager23OnFloatingPaneActivatedEP8wxWindow
libwx_gtk2u_aui-2.8.so.0:_ZN12wxAuiManager23OnFloatingPaneMoveStartEP8wxWindow
libwx_gtk2u_aui-2.8.so.0:_ZN12wxAuiManager24GetPanePositionsAndSizesER13wxAuiDockInfoR10wxArrayIntS3_
libwx_gtk2u_aui-2.8.so.0:_ZN12wxAuiManager6DoDropER18wxAuiDockInfoArrayR18wxAuiPaneInfoArrayR13wxAuiPaneInfoRK7wxPointS8_
libwx_gtk2u_aui-2.8.so.0:_ZN12wxAuiManager6OnSizeER11wxSizeEvent
libwx_gtk2u_aui-2.8.so.0:_ZN12wxAuiManager6RenderEP4wxDC
libwx_gtk2u_aui-2.8.so.0:_ZN12wxAuiManager6UnInitEv
libwx_gtk2u_aui-2.8.so.0:_ZN12wxAuiManager6UpdateEv
libwx_gtk2u_aui-2.8.so.0:_ZN12wxAuiManager7AddPaneEP8wxWindowRK13wxAuiPaneInfo
libwx_gtk2u_aui-2.8.so.0:_ZN12wxAuiManager7AddPaneEP8wxWindowRK13wxAuiPaneInfoRK7wxPoint
libwx_gtk2u_aui-2.8.so.0:_ZN12wxAuiManager7AddPaneEP8wxWindowiRK8wxString
libwx_gtk2u_aui-2.8.so.0:_ZN12wxAuiManager7GetPaneEP8wxWindow
libwx_gtk2u_aui-2.8.so.0:_ZN12wxAuiManager7GetPaneERK8wxString
libwx_gtk2u_aui-2.8.so.0:_ZN12wxAuiManager7HitTestEii
libwx_gtk2u_aui-2.8.so.0:_ZN12wxAuiManager7OnPaintER12wxPaintEvent
libwx_gtk2u_aui-2.8.so.0:_ZN12wxAuiManager7RepaintEP4wxDC
libwx_gtk2u_aui-2.8.so.0:_ZN12wxAuiManager8HideHintEv
libwx_gtk2u_aui-2.8.so.0:_ZN12wxAuiManager8OnLeftUpER12wxMouseEvent
libwx_gtk2u_aui-2.8.so.0:_ZN12wxAuiManager8OnMotionER12wxMouseEvent
libwx_gtk2u_aui-2.8.so.0:_ZN12wxAuiManager8OnRenderER17wxAuiManagerEvent
libwx_gtk2u_aui-2.8.so.0:_ZN12wxAuiManager8SetFlagsEj
libwx_gtk2u_aui-2.8.so.0:_ZN12wxAuiManager8SetFrameEP7wxFrame
libwx_gtk2u_aui-2.8.so.0:_ZN12wxAuiManager8ShowHintERK6wxRect
libwx_gtk2u_aui-2.8.so.0:_ZN12wxAuiManager9ClosePaneER13wxAuiPaneInfo
libwx_gtk2u_aui-2.8.so.0:_ZN12wxAuiManager9LayoutAllER18wxAuiPaneInfoArrayR18wxAuiDockInfoArrayR20wxAuiDockUIPartArrayb
libwx_gtk2u_aui-2.8.so.0:_ZN12wxAuiManagerC1EP8wxWindowj
libwx_gtk2u_aui-2.8.so.0:_ZN12wxAuiManagerC2EP8wxWindowj
libwx_gtk2u_aui-2.8.so.0:_ZN12wxAuiManagerD0Ev
libwx_gtk2u_aui-2.8.so.0:_ZN12wxAuiManagerD1Ev
libwx_gtk2u_aui-2.8.so.0:_ZN12wxAuiManagerD2Ev
libwx_gtk2u_aui-2.8.so.0:_ZN12wxAuiTabCtrl10OnLeftDownER12wxMouseEvent
libwx_gtk2u_aui-2.8.so.0:_ZN12wxAuiTabCtrl10OnMiddleUpER12wxMouseEvent
libwx_gtk2u_aui-2.8.so.0:_ZN12wxAuiTabCtrl10OnSetFocusER12wxFocusEvent
libwx_gtk2u_aui-2.8.so.0:_ZN12wxAuiTabCtrl11OnKillFocusER12wxFocusEvent
libwx_gtk2u_aui-2.8.so.0:_ZN12wxAuiTabCtrl11OnRightDownER12wxMouseEvent
libwx_gtk2u_aui-2.8.so.0:_ZN12wxAuiTabCtrl12OnLeftDClickER12wxMouseEvent
libwx_gtk2u_aui-2.8.so.0:_ZN12wxAuiTabCtrl12OnMiddleDownER12wxMouseEvent
libwx_gtk2u_aui-2.8.so.0:_ZN12wxAuiTabCtrl13OnCaptureLostER23wxMouseCaptureLostEvent
libwx_gtk2u_aui-2.8.so.0:_ZN12wxAuiTabCtrl13OnLeaveWindowER12wxMouseEvent
libwx_gtk2u_aui-2.8.so.0:_ZN12wxAuiTabCtrl17OnEraseBackgroundER12wxEraseEvent
libwx_gtk2u_aui-2.8.so.0:_ZN12wxAuiTabCtrl6OnCharER10wxKeyEvent
libwx_gtk2u_aui-2.8.so.0:_ZN12wxAuiTabCtrl6OnSizeER11wxSizeEvent
libwx_gtk2u_aui-2.8.so.0:_ZN12wxAuiTabCtrl7OnPaintER12wxPaintEvent
libwx_gtk2u_aui-2.8.so.0:_ZN12wxAuiTabCtrl8OnButtonER18wxAuiNotebookEvent
libwx_gtk2u_aui-2.8.so.0:_ZN12wxAuiTabCtrl8OnLeftUpER12wxMouseEvent
libwx_gtk2u_aui-2.8.so.0:_ZN12wxAuiTabCtrl8OnMotionER12wxMouseEvent
libwx_gtk2u_aui-2.8.so.0:_ZN12wxAuiTabCtrl9OnRightUpER12wxMouseEvent
libwx_gtk2u_aui-2.8.so.0:_ZN12wxAuiTabCtrlC1EP8wxWindowiRK7wxPointRK6wxSizel
libwx_gtk2u_aui-2.8.so.0:_ZN12wxAuiTabCtrlC2EP8wxWindowiRK7wxPointRK6wxSizel
libwx_gtk2u_aui-2.8.so.0:_ZN12wxAuiTabCtrlD0Ev
libwx_gtk2u_aui-2.8.so.0:_ZN12wxAuiTabCtrlD1Ev
libwx_gtk2u_aui-2.8.so.0:_ZN12wxAuiTabCtrlD2Ev
libwx_gtk2u_aui-2.8.so.0:_ZN12wxAuiToolBar10AddControlEP9wxControlRK8wxString
libwx_gtk2u_aui-2.8.so.0:_ZN12wxAuiToolBar10DeleteToolEi
libwx_gtk2u_aui-2.8.so.0:_ZN12wxAuiToolBar10EnableToolEib
libwx_gtk2u_aui-2.8.so.0:_ZN12wxAuiToolBar10OnLeftDownER12wxMouseEvent
libwx_gtk2u_aui-2.8.so.0:_ZN12wxAuiToolBar10OnMiddleUpER12wxMouseEvent
libwx_gtk2u_aui-2.8.so.0:_ZN12wxAuiToolBar10SetMarginsEiiii
libwx_gtk2u_aui-2.8.so.0:_ZN12wxAuiToolBar10ToggleToolEib
libwx_gtk2u_aui-2.8.so.0:_ZN12wxAuiToolBar11FindControlEi
libwx_gtk2u_aui-2.8.so.0:_ZN12wxAuiToolBar11OnRightDownER12wxMouseEvent
libwx_gtk2u_aui-2.8.so.0:_ZN12wxAuiToolBar11OnSetCursorER16wxSetCursorEvent
libwx_gtk2u_aui-2.8.so.0:_ZN12wxAuiToolBar12AddSeparatorEv
libwx_gtk2u_aui-2.8.so.0:_ZN12wxAuiToolBar12DoIdleUpdateEv
libwx_gtk2u_aui-2.8.so.0:_ZN12wxAuiToolBar12GetLabelSizeERK8wxString
libwx_gtk2u_aui-2.8.so.0:_ZN12wxAuiToolBar12OnMiddleDownER12wxMouseEvent
libwx_gtk2u_aui-2.8.so.0:_ZN12wxAuiToolBar12SetHoverItemEP16wxAuiToolBarItem
libwx_gtk2u_aui-2.8.so.0:_ZN12wxAuiToolBar12SetToolLabelEiRK8wxString
libwx_gtk2u_aui-2.8.so.0:_ZN12wxAuiToolBar13DeleteByIndexEi
libwx_gtk2u_aui-2.8.so.0:_ZN12wxAuiToolBar13OnLeaveWindowER12wxMouseEvent
libwx_gtk2u_aui-2.8.so.0:_ZN12wxAuiToolBar13SetToolBitmapEiRK8wxBitmap
libwx_gtk2u_aui-2.8.so.0:_ZN12wxAuiToolBar13SetToolStickyEib
libwx_gtk2u_aui-2.8.so.0:_ZN12wxAuiToolBar14SetArtProviderEP15wxAuiToolBarArt
libwx_gtk2u_aui-2.8.so.0:_ZN12wxAuiToolBar14SetOrientationEi
libwx_gtk2u_aui-2.8.so.0:_ZN12wxAuiToolBar14SetPressedItemEP16wxAuiToolBarItem
libwx_gtk2u_aui-2.8.so.0:_ZN12wxAuiToolBar14SetToolPackingEi
libwx_gtk2u_aui-2.8.so.0:_ZN12wxAuiToolBar15SetToolDropDownEib
libwx_gtk2u_aui-2.8.so.0:_ZN12wxAuiToolBar15SetToolLongHelpEiRK8wxString
libwx_gtk2u_aui-2.8.so.0:_ZN12wxAuiToolBar16AddStretchSpacerEi
libwx_gtk2u_aui-2.8.so.0:_ZN12wxAuiToolBar16SetToolShortHelpEiRK8wxString
libwx_gtk2u_aui-2.8.so.0:_ZN12wxAuiToolBar17OnEraseBackgroundER12wxEraseEvent
libwx_gtk2u_aui-2.8.so.0:_ZN12wxAuiToolBar17SetGripperVisibleEb
libwx_gtk2u_aui-2.8.so.0:_ZN12wxAuiToolBar17SetToolBitmapSizeERK6wxSize
libwx_gtk2u_aui-2.8.so.0:_ZN12wxAuiToolBar17SetToolProportionEii
libwx_gtk2u_aui-2.8.so.0:_ZN12wxAuiToolBar17SetToolSeparationEi
libwx_gtk2u_aui-2.8.so.0:_ZN12wxAuiToolBar18SetOverflowVisibleEb
libwx_gtk2u_aui-2.8.so.0:_ZN12wxAuiToolBar18SetWindowStyleFlagEl
libwx_gtk2u_aui-2.8.so.0:_ZN12wxAuiToolBar20RefreshOverflowStateEv
libwx_gtk2u_aui-2.8.so.0:_ZN12wxAuiToolBar20SetToolBorderPaddingEi
libwx_gtk2u_aui-2.8.so.0:_ZN12wxAuiToolBar22SetCustomOverflowItemsERK21wxAuiToolBarItemArrayS2_
libwx_gtk2u_aui-2.8.so.0:_ZN12wxAuiToolBar22SetToolTextOrientationEi
libwx_gtk2u_aui-2.8.so.0:_ZN12wxAuiToolBar5ClearEv
libwx_gtk2u_aui-2.8.so.0:_ZN12wxAuiToolBar6OnIdleER11wxIdleEvent
libwx_gtk2u_aui-2.8.so.0:_ZN12wxAuiToolBar6OnSizeER11wxSizeEvent
libwx_gtk2u_aui-2.8.so.0:_ZN12wxAuiToolBar7AddToolEiRK8wxStringRK8wxBitmapS2_10wxItemKind
libwx_gtk2u_aui-2.8.so.0:_ZN12wxAuiToolBar7AddToolEiRK8wxStringRK8wxBitmapS5_10wxItemKindS2_S2_P8wxObject
libwx_gtk2u_aui-2.8.so.0:_ZN12wxAuiToolBar7OnPaintER12wxPaintEvent
libwx_gtk2u_aui-2.8.so.0:_ZN12wxAuiToolBar7RealizeEv
libwx_gtk2u_aui-2.8.so.0:_ZN12wxAuiToolBar7SetFontERK6wxFont
libwx_gtk2u_aui-2.8.so.0:_ZN12wxAuiToolBar8AddLabelEiRK8wxStringi
libwx_gtk2u_aui-2.8.so.0:_ZN12wxAuiToolBar8OnLeftUpER12wxMouseEvent
libwx_gtk2u_aui-2.8.so.0:_ZN12wxAuiToolBar8OnMotionER12wxMouseEvent
libwx_gtk2u_aui-2.8.so.0:_ZN12wxAuiToolBar9AddSpacerEi
libwx_gtk2u_aui-2.8.so.0:_ZN12wxAuiToolBar9DoSetSizeEiiiii
libwx_gtk2u_aui-2.8.so.0:_ZN12wxAuiToolBar9OnRightUpER12wxMouseEvent
libwx_gtk2u_aui-2.8.so.0:_ZN12wxAuiToolBarC1EP8wxWindowiRK7wxPointRK6wxSizel
libwx_gtk2u_aui-2.8.so.0:_ZN12wxAuiToolBarC2EP8wxWindowiRK7wxPointRK6wxSizel
libwx_gtk2u_aui-2.8.so.0:_ZN12wxAuiToolBarD0Ev
libwx_gtk2u_aui-2.8.so.0:_ZN12wxAuiToolBarD1Ev
libwx_gtk2u_aui-2.8.so.0:_ZN12wxAuiToolBarD2Ev
libwx_gtk2u_aui-2.8.so.0:_ZN13wxAuiNotebook10DeletePageEm
libwx_gtk2u_aui-2.8.so.0:_ZN13wxAuiNotebook10InsertPageEmP8wxWindowRK8wxStringbRK8wxBitmap
libwx_gtk2u_aui-2.8.so.0:_ZN13wxAuiNotebook10RemovePageEm
libwx_gtk2u_aui-2.8.so.0:_ZN13wxAuiNotebook11OnTabButtonER14wxCommandEvent
libwx_gtk2u_aui-2.8.so.0:_ZN13wxAuiNotebook11SetPageTextEmRK8wxString
libwx_gtk2u_aui-2.8.so.0:_ZN13wxAuiNotebook12InitNotebookEl
libwx_gtk2u_aui-2.8.so.0:_ZN13wxAuiNotebook12OnChildFocusER17wxChildFocusEvent
libwx_gtk2u_aui-2.8.so.0:_ZN13wxAuiNotebook12OnTabClickedER14wxCommandEvent
libwx_gtk2u_aui-2.8.so.0:_ZN13wxAuiNotebook12OnTabEndDragER14wxCommandEvent
libwx_gtk2u_aui-2.8.so.0:_ZN13wxAuiNotebook12OnTabRightUpER14wxCommandEvent
libwx_gtk2u_aui-2.8.so.0:_ZN13wxAuiNotebook12SetSelectionEm
libwx_gtk2u_aui-2.8.so.0:_ZN13wxAuiNotebook13OnTabBgDClickER14wxCommandEvent
libwx_gtk2u_aui-2.8.so.0:_ZN13wxAuiNotebook13OnTabMiddleUpER14wxCommandEvent
libwx_gtk2u_aui-2.8.so.0:_ZN13wxAuiNotebook13SetNormalFontERK6wxFont
libwx_gtk2u_aui-2.8.so.0:_ZN13wxAuiNotebook13SetPageBitmapEmRK8wxBitmap
libwx_gtk2u_aui-2.8.so.0:_ZN13wxAuiNotebook14OnTabBeginDragER14wxCommandEvent
libwx_gtk2u_aui-2.8.so.0:_ZN13wxAuiNotebook14OnTabRightDownER14wxCommandEvent
libwx_gtk2u_aui-2.8.so.0:_ZN13wxAuiNotebook14SetArtProviderEP11wxAuiTabArt
libwx_gtk2u_aui-2.8.so.0:_ZN13wxAuiNotebook14ShowWindowMenuEv
libwx_gtk2u_aui-2.8.so.0:_ZN13wxAuiNotebook15OnNavigationKeyER20wxNavigationKeyEvent
libwx_gtk2u_aui-2.8.so.0:_ZN13wxAuiNotebook15OnTabDragMotionER14wxCommandEvent
libwx_gtk2u_aui-2.8.so.0:_ZN13wxAuiNotebook15OnTabMiddleDownER14wxCommandEvent
libwx_gtk2u_aui-2.8.so.0:_ZN13wxAuiNotebook15SetSelectedFontERK6wxFont
libwx_gtk2u_aui-2.8.so.0:_ZN13wxAuiNotebook16AdvanceSelectionEb
libwx_gtk2u_aui-2.8.so.0:_ZN13wxAuiNotebook16GetActiveTabCtrlEv
libwx_gtk2u_aui-2.8.so.0:_ZN13wxAuiNotebook16SetMeasuringFontERK6wxFont
libwx_gtk2u_aui-2.8.so.0:_ZN13wxAuiNotebook16SetTabCtrlHeightEi
libwx_gtk2u_aui-2.8.so.0:_ZN13wxAuiNotebook18SetWindowStyleFlagEl
libwx_gtk2u_aui-2.8.so.0:_ZN13wxAuiNotebook19GetTabCtrlFromPointERK7wxPoint
libwx_gtk2u_aui-2.8.so.0:_ZN13wxAuiNotebook19UpdateTabCtrlHeightEv
libwx_gtk2u_aui-2.8.so.0:_ZN13wxAuiNotebook20RemoveEmptyTabFramesEv
libwx_gtk2u_aui-2.8.so.0:_ZN13wxAuiNotebook20SetUniformBitmapSizeERK6wxSize
libwx_gtk2u_aui-2.8.so.0:_ZN13wxAuiNotebook20UpdateHintWindowSizeEv
libwx_gtk2u_aui-2.8.so.0:_ZN13wxAuiNotebook21CalculateNewSplitSizeEv
libwx_gtk2u_aui-2.8.so.0:_ZN13wxAuiNotebook22CalculateTabCtrlHeightEv
libwx_gtk2u_aui-2.8.so.0:_ZN13wxAuiNotebook22GetHeightForPageHeightEi
libwx_gtk2u_aui-2.8.so.0:_ZN13wxAuiNotebook22GetTabFrameFromTabCtrlEP8wxWindow
libwx_gtk2u_aui-2.8.so.0:_ZN13wxAuiNotebook5SplitEmi
libwx_gtk2u_aui-2.8.so.0:_ZN13wxAuiNotebook6CreateEP8wxWindowiRK7wxPointRK6wxSizel
libwx_gtk2u_aui-2.8.so.0:_ZN13wxAuiNotebook6OnSizeER11wxSizeEvent
libwx_gtk2u_aui-2.8.so.0:_ZN13wxAuiNotebook7AddPageEP8wxWindowRK8wxStringbRK8wxBitmap
libwx_gtk2u_aui-2.8.so.0:_ZN13wxAuiNotebook7FindTabEP8wxWindowPP12wxAuiTabCtrlPi
libwx_gtk2u_aui-2.8.so.0:_ZN13wxAuiNotebook7SetFontERK6wxFont
libwx_gtk2u_aui-2.8.so.0:_ZN13wxAuiNotebook8DoSizingEv
libwx_gtk2u_aui-2.8.so.0:_ZN13wxAuiNotebookC1EP8wxWindowiRK7wxPointRK6wxSizel
libwx_gtk2u_aui-2.8.so.0:_ZN13wxAuiNotebookC1Ev
libwx_gtk2u_aui-2.8.so.0:_ZN13wxAuiNotebookC2EP8wxWindowiRK7wxPointRK6wxSizel
libwx_gtk2u_aui-2.8.so.0:_ZN13wxAuiNotebookC2Ev
libwx_gtk2u_aui-2.8.so.0:_ZN13wxAuiNotebookD0Ev
libwx_gtk2u_aui-2.8.so.0:_ZN13wxAuiNotebookD1Ev
libwx_gtk2u_aui-2.8.so.0:_ZN13wxAuiNotebookD2Ev
libwx_gtk2u_aui-2.8.so.0:_ZN14wxAuiRectArray3AddERK6wxRectm
libwx_gtk2u_aui-2.8.so.0:_ZN14wxAuiRectArray6DoCopyERKS_
libwx_gtk2u_aui-2.8.so.0:_ZN14wxAuiRectArray6InsertERK6wxRectmm
libwx_gtk2u_aui-2.8.so.0:_ZN14wxAuiRectArray7DoEmptyEv
libwx_gtk2u_aui-2.8.so.0:_ZN14wxAuiRectArray8RemoveAtEmm
libwx_gtk2u_aui-2.8.so.0:_ZN14wxAuiRectArrayC1ERKS_
libwx_gtk2u_aui-2.8.so.0:_ZN14wxAuiRectArrayC2ERKS_
libwx_gtk2u_aui-2.8.so.0:_ZN14wxAuiRectArrayD1Ev
libwx_gtk2u_aui-2.8.so.0:_ZN14wxAuiRectArrayD2Ev
libwx_gtk2u_aui-2.8.so.0:_ZN14wxAuiRectArrayaSERKS_
libwx_gtk2u_aui-2.8.so.0:_ZN17wxAuiManagerEvent14wxCreateObjectEv
libwx_gtk2u_aui-2.8.so.0:_ZN17wxAuiSimpleTabArt10DrawButtonER4wxDCP8wxWindowRK6wxRectiiiPS4_
libwx_gtk2u_aui-2.8.so.0:_ZN17wxAuiSimpleTabArt10GetTabSizeER4wxDCP8wxWindowRK8wxStringRK8wxBitmapbiPi
libwx_gtk2u_aui-2.8.so.0:_ZN17wxAuiSimpleTabArt12ShowDropDownEP8wxWindowRK22wxAuiNotebookPageArrayi
libwx_gtk2u_aui-2.8.so.0:_ZN17wxAuiSimpleTabArt13GetIndentSizeEv
libwx_gtk2u_aui-2.8.so.0:_ZN17wxAuiSimpleTabArt13SetNormalFontERK6wxFont
libwx_gtk2u_aui-2.8.so.0:_ZN17wxAuiSimpleTabArt13SetSizingInfoERK6wxSizem
libwx_gtk2u_aui-2.8.so.0:_ZN17wxAuiSimpleTabArt14DrawBackgroundER4wxDCP8wxWindowRK6wxRect
libwx_gtk2u_aui-2.8.so.0:_ZN17wxAuiSimpleTabArt15SetSelectedFontERK6wxFont
libwx_gtk2u_aui-2.8.so.0:_ZN17wxAuiSimpleTabArt16SetMeasuringFontERK6wxFont
libwx_gtk2u_aui-2.8.so.0:_ZN17wxAuiSimpleTabArt18GetBestTabCtrlSizeEP8wxWindowRK22wxAuiNotebookPageArrayRK6wxSize
libwx_gtk2u_aui-2.8.so.0:_ZN17wxAuiSimpleTabArt5CloneEv
libwx_gtk2u_aui-2.8.so.0:_ZN17wxAuiSimpleTabArt7DrawTabER4wxDCP8wxWindowRK17wxAuiNotebookPageRK6wxRectiPS7_SA_Pi
libwx_gtk2u_aui-2.8.so.0:_ZN17wxAuiSimpleTabArt8SetFlagsEj
libwx_gtk2u_aui-2.8.so.0:_ZN17wxAuiSimpleTabArtC1Ev
libwx_gtk2u_aui-2.8.so.0:_ZN17wxAuiSimpleTabArtC2Ev
libwx_gtk2u_aui-2.8.so.0:_ZN17wxAuiSimpleTabArtD0Ev
libwx_gtk2u_aui-2.8.so.0:_ZN17wxAuiSimpleTabArtD1Ev
libwx_gtk2u_aui-2.8.so.0:_ZN17wxAuiSimpleTabArtD2Ev
libwx_gtk2u_aui-2.8.so.0:_ZN17wxAuiTabContainer10DoShowHideEv
libwx_gtk2u_aui-2.8.so.0:_ZN17wxAuiTabContainer10InsertPageEP8wxWindowRK17wxAuiNotebookPagem
libwx_gtk2u_aui-2.8.so.0:_ZN17wxAuiTabContainer10RemovePageEP8wxWindow
libwx_gtk2u_aui-2.8.so.0:_ZN17wxAuiTabContainer12IsTabVisibleEiiP4wxDCP8wxWindow
libwx_gtk2u_aui-2.8.so.0:_ZN17wxAuiTabContainer12RemoveButtonEi
libwx_gtk2u_aui-2.8.so.0:_ZN17wxAuiTabContainer12SetTabOffsetEm
libwx_gtk2u_aui-2.8.so.0:_ZN17wxAuiTabContainer13SetActivePageEP8wxWindow
libwx_gtk2u_aui-2.8.so.0:_ZN17wxAuiTabContainer13SetActivePageEm
libwx_gtk2u_aui-2.8.so.0:_ZN17wxAuiTabContainer13SetNoneActiveEv
libwx_gtk2u_aui-2.8.so.0:_ZN17wxAuiTabContainer13SetNormalFontERK6wxFont
libwx_gtk2u_aui-2.8.so.0:_ZN17wxAuiTabContainer14MakeTabVisibleEiP8wxWindow
libwx_gtk2u_aui-2.8.so.0:_ZN17wxAuiTabContainer14SetArtProviderEP11wxAuiTabArt
libwx_gtk2u_aui-2.8.so.0:_ZN17wxAuiTabContainer15SetSelectedFontERK6wxFont
libwx_gtk2u_aui-2.8.so.0:_ZN17wxAuiTabContainer16SetMeasuringFontERK6wxFont
libwx_gtk2u_aui-2.8.so.0:_ZN17wxAuiTabContainer6RenderEP4wxDCP8wxWindow
libwx_gtk2u_aui-2.8.so.0:_ZN17wxAuiTabContainer7AddPageEP8wxWindowRK17wxAuiNotebookPage
libwx_gtk2u_aui-2.8.so.0:_ZN17wxAuiTabContainer7GetPageEm
libwx_gtk2u_aui-2.8.so.0:_ZN17wxAuiTabContainer7SetRectERK6wxRect
libwx_gtk2u_aui-2.8.so.0:_ZN17wxAuiTabContainer8GetPagesEv
libwx_gtk2u_aui-2.8.so.0:_ZN17wxAuiTabContainer8MovePageEP8wxWindowm
libwx_gtk2u_aui-2.8.so.0:_ZN17wxAuiTabContainer8SetFlagsEj
libwx_gtk2u_aui-2.8.so.0:_ZN17wxAuiTabContainer9AddButtonEiiRK8wxBitmapS2_
libwx_gtk2u_aui-2.8.so.0:_ZN17wxAuiTabContainerC1Ev
libwx_gtk2u_aui-2.8.so.0:_ZN17wxAuiTabContainerC2Ev
libwx_gtk2u_aui-2.8.so.0:_ZN17wxAuiTabContainerD0Ev
libwx_gtk2u_aui-2.8.so.0:_ZN17wxAuiTabContainerD1Ev
libwx_gtk2u_aui-2.8.so.0:_ZN17wxAuiTabContainerD2Ev
libwx_gtk2u_aui-2.8.so.0:_ZN17wxAuiToolBarEvent14wxCreateObjectEv
libwx_gtk2u_aui-2.8.so.0:_ZN18wxAuiDefaultTabArt10DrawButtonER4wxDCP8wxWindowRK6wxRectiiiPS4_
libwx_gtk2u_aui-2.8.so.0:_ZN18wxAuiDefaultTabArt10GetTabSizeER4wxDCP8wxWindowRK8wxStringRK8wxBitmapbiPi
libwx_gtk2u_aui-2.8.so.0:_ZN18wxAuiDefaultTabArt12ShowDropDownEP8wxWindowRK22wxAuiNotebookPageArrayi
libwx_gtk2u_aui-2.8.so.0:_ZN18wxAuiDefaultTabArt13GetIndentSizeEv
libwx_gtk2u_aui-2.8.so.0:_ZN18wxAuiDefaultTabArt13SetNormalFontERK6wxFont
libwx_gtk2u_aui-2.8.so.0:_ZN18wxAuiDefaultTabArt13SetSizingInfoERK6wxSizem
libwx_gtk2u_aui-2.8.so.0:_ZN18wxAuiDefaultTabArt14DrawBackgroundER4wxDCP8wxWindowRK6wxRect
libwx_gtk2u_aui-2.8.so.0:_ZN18wxAuiDefaultTabArt15SetSelectedFontERK6wxFont
libwx_gtk2u_aui-2.8.so.0:_ZN18wxAuiDefaultTabArt16SetMeasuringFontERK6wxFont
libwx_gtk2u_aui-2.8.so.0:_ZN18wxAuiDefaultTabArt18GetBestTabCtrlSizeEP8wxWindowRK22wxAuiNotebookPageArrayRK6wxSize
libwx_gtk2u_aui-2.8.so.0:_ZN18wxAuiDefaultTabArt5CloneEv
libwx_gtk2u_aui-2.8.so.0:_ZN18wxAuiDefaultTabArt7DrawTabER4wxDCP8wxWindowRK17wxAuiNotebookPageRK6wxRectiPS7_SA_Pi
libwx_gtk2u_aui-2.8.so.0:_ZN18wxAuiDefaultTabArt8SetFlagsEj
libwx_gtk2u_aui-2.8.so.0:_ZN18wxAuiDefaultTabArtC1Ev
libwx_gtk2u_aui-2.8.so.0:_ZN18wxAuiDefaultTabArtC2Ev
libwx_gtk2u_aui-2.8.so.0:_ZN18wxAuiDefaultTabArtD0Ev
libwx_gtk2u_aui-2.8.so.0:_ZN18wxAuiDefaultTabArtD1Ev
libwx_gtk2u_aui-2.8.so.0:_ZN18wxAuiDefaultTabArtD2Ev
libwx_gtk2u_aui-2.8.so.0:_ZN18wxAuiDockInfoArray3AddERK13wxAuiDockInfom
libwx_gtk2u_aui-2.8.so.0:_ZN18wxAuiDockInfoArray6DoCopyERKS_
libwx_gtk2u_aui-2.8.so.0:_ZN18wxAuiDockInfoArray6InsertERK13wxAuiDockInfomm
libwx_gtk2u_aui-2.8.so.0:_ZN18wxAuiDockInfoArray7DoEmptyEv
libwx_gtk2u_aui-2.8.so.0:_ZN18wxAuiDockInfoArray8RemoveAtEmm
libwx_gtk2u_aui-2.8.so.0:_ZN18wxAuiDockInfoArrayC1ERKS_
libwx_gtk2u_aui-2.8.so.0:_ZN18wxAuiDockInfoArrayC2ERKS_
libwx_gtk2u_aui-2.8.so.0:_ZN18wxAuiDockInfoArrayD1Ev
libwx_gtk2u_aui-2.8.so.0:_ZN18wxAuiDockInfoArrayD2Ev
libwx_gtk2u_aui-2.8.so.0:_ZN18wxAuiDockInfoArrayaSERKS_
libwx_gtk2u_aui-2.8.so.0:_ZN18wxAuiFloatingFrame10OnActivateER15wxActivateEvent
libwx_gtk2u_aui-2.8.so.0:_ZN18wxAuiFloatingFrame11OnMoveEventER11wxMoveEvent
libwx_gtk2u_aui-2.8.so.0:_ZN18wxAuiFloatingFrame11OnMoveStartEv
libwx_gtk2u_aui-2.8.so.0:_ZN18wxAuiFloatingFrame11isMouseDownEv
libwx_gtk2u_aui-2.8.so.0:_ZN18wxAuiFloatingFrame13SetPaneWindowERK13wxAuiPaneInfo
libwx_gtk2u_aui-2.8.so.0:_ZN18wxAuiFloatingFrame14OnMoveFinishedEv
libwx_gtk2u_aui-2.8.so.0:_ZN18wxAuiFloatingFrame6OnIdleER11wxIdleEvent
libwx_gtk2u_aui-2.8.so.0:_ZN18wxAuiFloatingFrame6OnSizeER11wxSizeEvent
libwx_gtk2u_aui-2.8.so.0:_ZN18wxAuiFloatingFrame7OnCloseER12wxCloseEvent
libwx_gtk2u_aui-2.8.so.0:_ZN18wxAuiFloatingFrame8OnMovingERK6wxRect11wxDirection
libwx_gtk2u_aui-2.8.so.0:_ZN18wxAuiFloatingFrameC1EP8wxWindowP12wxAuiManagerRK13wxAuiPaneInfoil
libwx_gtk2u_aui-2.8.so.0:_ZN18wxAuiFloatingFrameC2EP8wxWindowP12wxAuiManagerRK13wxAuiPaneInfoil
libwx_gtk2u_aui-2.8.so.0:_ZN18wxAuiFloatingFrameD0Ev
libwx_gtk2u_aui-2.8.so.0:_ZN18wxAuiFloatingFrameD1Ev
libwx_gtk2u_aui-2.8.so.0:_ZN18wxAuiFloatingFrameD2Ev
libwx_gtk2u_aui-2.8.so.0:_ZN18wxAuiMDIChildFrame10OnActivateER15wxActivateEvent
libwx_gtk2u_aui-2.8.so.0:_ZN18wxAuiMDIChildFrame10SetMenuBarEP9wxMenuBar
libwx_gtk2u_aui-2.8.so.0:_ZN18wxAuiMDIChildFrame12DoMoveWindowEiiii
libwx_gtk2u_aui-2.8.so.0:_ZN18wxAuiMDIChildFrame13OnCloseWindowER12wxCloseEvent
libwx_gtk2u_aui-2.8.so.0:_ZN18wxAuiMDIChildFrame14wxCreateObjectEv
libwx_gtk2u_aui-2.8.so.0:_ZN18wxAuiMDIChildFrame15OnMenuHighlightER11wxMenuEvent
libwx_gtk2u_aui-2.8.so.0:_ZN18wxAuiMDIChildFrame17SetMDIParentFrameEP19wxAuiMDIParentFrame
libwx_gtk2u_aui-2.8.so.0:_ZN18wxAuiMDIChildFrame22ApplyMDIChildFrameRectEv
libwx_gtk2u_aui-2.8.so.0:_ZN18wxAuiMDIChildFrame4InitEv
libwx_gtk2u_aui-2.8.so.0:_ZN18wxAuiMDIChildFrame4ShowEb
libwx_gtk2u_aui-2.8.so.0:_ZN18wxAuiMDIChildFrame6CreateEP19wxAuiMDIParentFrameiRK8wxStringRK7wxPointRK6wxSizelS4_
libwx_gtk2u_aui-2.8.so.0:_ZN18wxAuiMDIChildFrame6DoShowEb
libwx_gtk2u_aui-2.8.so.0:_ZN18wxAuiMDIChildFrame7DestroyEv
libwx_gtk2u_aui-2.8.so.0:_ZN18wxAuiMDIChildFrame7SetIconERK6wxIcon
libwx_gtk2u_aui-2.8.so.0:_ZN18wxAuiMDIChildFrame8ActivateEv
libwx_gtk2u_aui-2.8.so.0:_ZN18wxAuiMDIChildFrame8SetIconsERK12wxIconBundle
libwx_gtk2u_aui-2.8.so.0:_ZN18wxAuiMDIChildFrame8SetTitleERK8wxString
libwx_gtk2u_aui-2.8.so.0:_ZN18wxAuiMDIChildFrame9DoSetSizeEiiiii
libwx_gtk2u_aui-2.8.so.0:_ZN18wxAuiMDIChildFrameC1EP19wxAuiMDIParentFrameiRK8wxStringRK7wxPointRK6wxSizelS4_
libwx_gtk2u_aui-2.8.so.0:_ZN18wxAuiMDIChildFrameC1Ev
libwx_gtk2u_aui-2.8.so.0:_ZN18wxAuiMDIChildFrameC2EP19wxAuiMDIParentFrameiRK8wxStringRK7wxPointRK6wxSizelS4_
libwx_gtk2u_aui-2.8.so.0:_ZN18wxAuiMDIChildFrameC2Ev
libwx_gtk2u_aui-2.8.so.0:_ZN18wxAuiMDIChildFrameD0Ev
libwx_gtk2u_aui-2.8.so.0:_ZN18wxAuiMDIChildFrameD1Ev
libwx_gtk2u_aui-2.8.so.0:_ZN18wxAuiMDIChildFrameD2Ev
libwx_gtk2u_aui-2.8.so.0:_ZN18wxAuiNotebookEvent14wxCreateObjectEv
libwx_gtk2u_aui-2.8.so.0:_ZN18wxAuiPaneInfoArray3AddERK13wxAuiPaneInfom
libwx_gtk2u_aui-2.8.so.0:_ZN18wxAuiPaneInfoArray6DoCopyERKS_
libwx_gtk2u_aui-2.8.so.0:_ZN18wxAuiPaneInfoArray6InsertERK13wxAuiPaneInfomm
libwx_gtk2u_aui-2.8.so.0:_ZN18wxAuiPaneInfoArray7DoEmptyEv
libwx_gtk2u_aui-2.8.so.0:_ZN18wxAuiPaneInfoArray8RemoveAtEmm
libwx_gtk2u_aui-2.8.so.0:_ZN18wxAuiPaneInfoArrayC1ERKS_
libwx_gtk2u_aui-2.8.so.0:_ZN18wxAuiPaneInfoArrayC2ERKS_
libwx_gtk2u_aui-2.8.so.0:_ZN18wxAuiPaneInfoArrayD1Ev
libwx_gtk2u_aui-2.8.so.0:_ZN18wxAuiPaneInfoArrayD2Ev
libwx_gtk2u_aui-2.8.so.0:_ZN18wxAuiPaneInfoArrayaSERKS_
libwx_gtk2u_aui-2.8.so.0:_ZN19wxAuiDefaultDockArt10DrawBorderER4wxDCP8wxWindowRK6wxRectR13wxAuiPaneInfo
libwx_gtk2u_aui-2.8.so.0:_ZN19wxAuiDefaultDockArt11DrawCaptionER4wxDCP8wxWindowRK8wxStringRK6wxRectR13wxAuiPaneInfo
libwx_gtk2u_aui-2.8.so.0:_ZN19wxAuiDefaultDockArt11DrawGripperER4wxDCP8wxWindowRK6wxRectR13wxAuiPaneInfo
libwx_gtk2u_aui-2.8.so.0:_ZN19wxAuiDefaultDockArt14DrawBackgroundER4wxDCP8wxWindowiRK6wxRect
libwx_gtk2u_aui-2.8.so.0:_ZN19wxAuiDefaultDockArt14DrawPaneButtonER4wxDCP8wxWindowiiRK6wxRectR13wxAuiPaneInfo
libwx_gtk2u_aui-2.8.so.0:_ZN19wxAuiDefaultDockArt21DrawCaptionBackgroundER4wxDCRK6wxRectb
libwx_gtk2u_aui-2.8.so.0:_ZN19wxAuiDefaultDockArt7GetFontEi
libwx_gtk2u_aui-2.8.so.0:_ZN19wxAuiDefaultDockArt7SetFontEiRK6wxFont
libwx_gtk2u_aui-2.8.so.0:_ZN19wxAuiDefaultDockArt8DrawSashER4wxDCP8wxWindowiRK6wxRect
libwx_gtk2u_aui-2.8.so.0:_ZN19wxAuiDefaultDockArt9GetColourEi
libwx_gtk2u_aui-2.8.so.0:_ZN19wxAuiDefaultDockArt9GetMetricEi
libwx_gtk2u_aui-2.8.so.0:_ZN19wxAuiDefaultDockArt9SetColourEiRK8wxColour
libwx_gtk2u_aui-2.8.so.0:_ZN19wxAuiDefaultDockArt9SetMetricEii
libwx_gtk2u_aui-2.8.so.0:_ZN19wxAuiDefaultDockArtC1Ev
libwx_gtk2u_aui-2.8.so.0:_ZN19wxAuiDefaultDockArtC2Ev
libwx_gtk2u_aui-2.8.so.0:_ZN19wxAuiMDIParentFrame10SetMenuBarEP9wxMenuBar
libwx_gtk2u_aui-2.8.so.0:_ZN19wxAuiMDIParentFrame12ActivateNextEv
libwx_gtk2u_aui-2.8.so.0:_ZN19wxAuiMDIParentFrame12DoHandleMenuER14wxCommandEvent
libwx_gtk2u_aui-2.8.so.0:_ZN19wxAuiMDIParentFrame12ProcessEventER7wxEvent
libwx_gtk2u_aui-2.8.so.0:_ZN19wxAuiMDIParentFrame13AddWindowMenuEP9wxMenuBar
libwx_gtk2u_aui-2.8.so.0:_ZN19wxAuiMDIParentFrame13SetWindowMenuEP6wxMenu
libwx_gtk2u_aui-2.8.so.0:_ZN19wxAuiMDIParentFrame14GetArtProviderEv
libwx_gtk2u_aui-2.8.so.0:_ZN19wxAuiMDIParentFrame14OnCreateClientEv
libwx_gtk2u_aui-2.8.so.0:_ZN19wxAuiMDIParentFrame14SetActiveChildEP18wxAuiMDIChildFrame
libwx_gtk2u_aui-2.8.so.0:_ZN19wxAuiMDIParentFrame14SetArtProviderEP11wxAuiTabArt
libwx_gtk2u_aui-2.8.so.0:_ZN19wxAuiMDIParentFrame14wxCreateObjectEv
libwx_gtk2u_aui-2.8.so.0:_ZN19wxAuiMDIParentFrame15SetChildMenuBarEP18wxAuiMDIChildFrame
libwx_gtk2u_aui-2.8.so.0:_ZN19wxAuiMDIParentFrame16ActivatePreviousEv
libwx_gtk2u_aui-2.8.so.0:_ZN19wxAuiMDIParentFrame16RemoveWindowMenuEP9wxMenuBar
libwx_gtk2u_aui-2.8.so.0:_ZN19wxAuiMDIParentFrame4InitEv
libwx_gtk2u_aui-2.8.so.0:_ZN19wxAuiMDIParentFrame4TileE13wxOrientation
libwx_gtk2u_aui-2.8.so.0:_ZN19wxAuiMDIParentFrame6CreateEP8wxWindowiRK8wxStringRK7wxPointRK6wxSizelS4_
libwx_gtk2u_aui-2.8.so.0:_ZN19wxAuiMDIParentFrameC1EP8wxWindowiRK8wxStringRK7wxPointRK6wxSizelS4_
libwx_gtk2u_aui-2.8.so.0:_ZN19wxAuiMDIParentFrameC1Ev
libwx_gtk2u_aui-2.8.so.0:_ZN19wxAuiMDIParentFrameC2EP8wxWindowiRK8wxStringRK7wxPointRK6wxSizelS4_
libwx_gtk2u_aui-2.8.so.0:_ZN19wxAuiMDIParentFrameC2Ev
libwx_gtk2u_aui-2.8.so.0:_ZN19wxAuiMDIParentFrameD0Ev
libwx_gtk2u_aui-2.8.so.0:_ZN19wxAuiMDIParentFrameD1Ev
libwx_gtk2u_aui-2.8.so.0:_ZN19wxAuiMDIParentFrameD2Ev
libwx_gtk2u_aui-2.8.so.0:_ZN20wxAuiDockUIPartArray3AddERK15wxAuiDockUIPartm
libwx_gtk2u_aui-2.8.so.0:_ZN20wxAuiDockUIPartArray6DoCopyERKS_
libwx_gtk2u_aui-2.8.so.0:_ZN20wxAuiDockUIPartArray6InsertERK15wxAuiDockUIPartmm
libwx_gtk2u_aui-2.8.so.0:_ZN20wxAuiDockUIPartArray7DoEmptyEv
libwx_gtk2u_aui-2.8.so.0:_ZN20wxAuiDockUIPartArray8RemoveAtEmm
libwx_gtk2u_aui-2.8.so.0:_ZN20wxAuiDockUIPartArrayC1ERKS_
libwx_gtk2u_aui-2.8.so.0:_ZN20wxAuiDockUIPartArrayC2ERKS_
libwx_gtk2u_aui-2.8.so.0:_ZN20wxAuiDockUIPartArrayD1Ev
libwx_gtk2u_aui-2.8.so.0:_ZN20wxAuiDockUIPartArrayD2Ev
libwx_gtk2u_aui-2.8.so.0:_ZN20wxAuiDockUIPartArrayaSERKS_
libwx_gtk2u_aui-2.8.so.0:_ZN20wxAuiMDIClientWindow11OnPageCloseER18wxAuiNotebookEvent
libwx_gtk2u_aui-2.8.so.0:_ZN20wxAuiMDIClientWindow11PageChangedEii
libwx_gtk2u_aui-2.8.so.0:_ZN20wxAuiMDIClientWindow12CreateClientEP19wxAuiMDIParentFramel
libwx_gtk2u_aui-2.8.so.0:_ZN20wxAuiMDIClientWindow12SetSelectionEm
libwx_gtk2u_aui-2.8.so.0:_ZN20wxAuiMDIClientWindow13OnPageChangedER18wxAuiNotebookEvent
libwx_gtk2u_aui-2.8.so.0:_ZN20wxAuiMDIClientWindow14wxCreateObjectEv
libwx_gtk2u_aui-2.8.so.0:_ZN20wxAuiMDIClientWindow6OnSizeER11wxSizeEvent
libwx_gtk2u_aui-2.8.so.0:_ZN20wxAuiMDIClientWindowC1EP19wxAuiMDIParentFramel
libwx_gtk2u_aui-2.8.so.0:_ZN20wxAuiMDIClientWindowC1Ev
libwx_gtk2u_aui-2.8.so.0:_ZN20wxAuiMDIClientWindowC2EP19wxAuiMDIParentFramel
libwx_gtk2u_aui-2.8.so.0:_ZN20wxAuiMDIClientWindowC2Ev
libwx_gtk2u_aui-2.8.so.0:_ZN20wxAuiMDIClientWindowD0Ev
libwx_gtk2u_aui-2.8.so.0:_ZN20wxAuiMDIClientWindowD1Ev
libwx_gtk2u_aui-2.8.so.0:_ZN20wxAuiMDIClientWindowD2Ev
libwx_gtk2u_aui-2.8.so.0:_ZN20wxAuiPaneButtonArray3AddERK15wxAuiPaneButtonm
libwx_gtk2u_aui-2.8.so.0:_ZN20wxAuiPaneButtonArray6DoCopyERKS_
libwx_gtk2u_aui-2.8.so.0:_ZN20wxAuiPaneButtonArray6InsertERK15wxAuiPaneButtonmm
libwx_gtk2u_aui-2.8.so.0:_ZN20wxAuiPaneButtonArray7DoEmptyEv
libwx_gtk2u_aui-2.8.so.0:_ZN20wxAuiPaneButtonArray8RemoveAtEmm
libwx_gtk2u_aui-2.8.so.0:_ZN20wxAuiPaneButtonArrayC1ERKS_
libwx_gtk2u_aui-2.8.so.0:_ZN20wxAuiPaneButtonArrayC2ERKS_
libwx_gtk2u_aui-2.8.so.0:_ZN20wxAuiPaneButtonArrayD1Ev
libwx_gtk2u_aui-2.8.so.0:_ZN20wxAuiPaneButtonArrayD2Ev
libwx_gtk2u_aui-2.8.so.0:_ZN20wxAuiPaneButtonArrayaSERKS_
libwx_gtk2u_aui-2.8.so.0:_ZN21wxAuiToolBarItemArray3AddERK16wxAuiToolBarItemm
libwx_gtk2u_aui-2.8.so.0:_ZN21wxAuiToolBarItemArray6DoCopyERKS_
libwx_gtk2u_aui-2.8.so.0:_ZN21wxAuiToolBarItemArray6InsertERK16wxAuiToolBarItemmm
libwx_gtk2u_aui-2.8.so.0:_ZN21wxAuiToolBarItemArray7DoEmptyEv
libwx_gtk2u_aui-2.8.so.0:_ZN21wxAuiToolBarItemArray8RemoveAtEmm
libwx_gtk2u_aui-2.8.so.0:_ZN21wxAuiToolBarItemArrayC1ERKS_
libwx_gtk2u_aui-2.8.so.0:_ZN21wxAuiToolBarItemArrayC2ERKS_
libwx_gtk2u_aui-2.8.so.0:_ZN21wxAuiToolBarItemArrayD1Ev
libwx_gtk2u_aui-2.8.so.0:_ZN21wxAuiToolBarItemArrayD2Ev
libwx_gtk2u_aui-2.8.so.0:_ZN21wxAuiToolBarItemArrayaSERKS_
libwx_gtk2u_aui-2.8.so.0:_ZN22wxAuiDefaultToolBarArt10DrawButtonER4wxDCP8wxWindowRK16wxAuiToolBarItemRK6wxRect
libwx_gtk2u_aui-2.8.so.0:_ZN22wxAuiDefaultToolBarArt11DrawGripperER4wxDCP8wxWindowRK6wxRect
libwx_gtk2u_aui-2.8.so.0:_ZN22wxAuiDefaultToolBarArt11GetToolSizeER4wxDCP8wxWindowRK16wxAuiToolBarItem
libwx_gtk2u_aui-2.8.so.0:_ZN22wxAuiDefaultToolBarArt12GetLabelSizeER4wxDCP8wxWindowRK16wxAuiToolBarItem
libwx_gtk2u_aui-2.8.so.0:_ZN22wxAuiDefaultToolBarArt12ShowDropDownEP8wxWindowRK21wxAuiToolBarItemArray
libwx_gtk2u_aui-2.8.so.0:_ZN22wxAuiDefaultToolBarArt13DrawSeparatorER4wxDCP8wxWindowRK6wxRect
libwx_gtk2u_aui-2.8.so.0:_ZN22wxAuiDefaultToolBarArt14DrawBackgroundER4wxDCP8wxWindowRK6wxRect
libwx_gtk2u_aui-2.8.so.0:_ZN22wxAuiDefaultToolBarArt14GetElementSizeEi
libwx_gtk2u_aui-2.8.so.0:_ZN22wxAuiDefaultToolBarArt14SetElementSizeEii
libwx_gtk2u_aui-2.8.so.0:_ZN22wxAuiDefaultToolBarArt16DrawControlLabelER4wxDCP8wxWindowRK16wxAuiToolBarItemRK6wxRect
libwx_gtk2u_aui-2.8.so.0:_ZN22wxAuiDefaultToolBarArt18DrawDropDownButtonER4wxDCP8wxWindowRK16wxAuiToolBarItemRK6wxRect
libwx_gtk2u_aui-2.8.so.0:_ZN22wxAuiDefaultToolBarArt18DrawOverflowButtonER4wxDCP8wxWindowRK6wxRecti
libwx_gtk2u_aui-2.8.so.0:_ZN22wxAuiDefaultToolBarArt18SetTextOrientationEi
libwx_gtk2u_aui-2.8.so.0:_ZN22wxAuiDefaultToolBarArt5CloneEv
libwx_gtk2u_aui-2.8.so.0:_ZN22wxAuiDefaultToolBarArt7SetFontERK6wxFont
libwx_gtk2u_aui-2.8.so.0:_ZN22wxAuiDefaultToolBarArt8SetFlagsEj
libwx_gtk2u_aui-2.8.so.0:_ZN22wxAuiDefaultToolBarArt9DrawLabelER4wxDCP8wxWindowRK16wxAuiToolBarItemRK6wxRect
libwx_gtk2u_aui-2.8.so.0:_ZN22wxAuiDefaultToolBarArtC1Ev
libwx_gtk2u_aui-2.8.so.0:_ZN22wxAuiDefaultToolBarArtC2Ev
libwx_gtk2u_aui-2.8.so.0:_ZN22wxAuiDefaultToolBarArtD0Ev
libwx_gtk2u_aui-2.8.so.0:_ZN22wxAuiDefaultToolBarArtD1Ev
libwx_gtk2u_aui-2.8.so.0:_ZN22wxAuiDefaultToolBarArtD2Ev
libwx_gtk2u_aui-2.8.so.0:_ZN22wxAuiNotebookPageArray3AddERK17wxAuiNotebookPagem
libwx_gtk2u_aui-2.8.so.0:_ZN22wxAuiNotebookPageArray6DoCopyERKS_
libwx_gtk2u_aui-2.8.so.0:_ZN22wxAuiNotebookPageArray6InsertERK17wxAuiNotebookPagemm
libwx_gtk2u_aui-2.8.so.0:_ZN22wxAuiNotebookPageArray7DoEmptyEv
libwx_gtk2u_aui-2.8.so.0:_ZN22wxAuiNotebookPageArray8RemoveAtEmm
libwx_gtk2u_aui-2.8.so.0:_ZN22wxAuiNotebookPageArrayC1ERKS_
libwx_gtk2u_aui-2.8.so.0:_ZN22wxAuiNotebookPageArrayC2ERKS_
libwx_gtk2u_aui-2.8.so.0:_ZN22wxAuiNotebookPageArrayD1Ev
libwx_gtk2u_aui-2.8.so.0:_ZN22wxAuiNotebookPageArrayD2Ev
libwx_gtk2u_aui-2.8.so.0:_ZN22wxAuiNotebookPageArrayaSERKS_
libwx_gtk2u_aui-2.8.so.0:_ZN24wxPseudoTransparentFrame14wxCreateObjectEv
libwx_gtk2u_aui-2.8.so.0:_ZN28wxAuiTabContainerButtonArray3AddERK23wxAuiTabContainerButtonm
libwx_gtk2u_aui-2.8.so.0:_ZN28wxAuiTabContainerButtonArray6DoCopyERKS_
libwx_gtk2u_aui-2.8.so.0:_ZN28wxAuiTabContainerButtonArray6InsertERK23wxAuiTabContainerButtonmm
libwx_gtk2u_aui-2.8.so.0:_ZN28wxAuiTabContainerButtonArray7DoEmptyEv
libwx_gtk2u_aui-2.8.so.0:_ZN28wxAuiTabContainerButtonArray8RemoveAtEmm
libwx_gtk2u_aui-2.8.so.0:_ZN28wxAuiTabContainerButtonArrayC1ERKS_
libwx_gtk2u_aui-2.8.so.0:_ZN28wxAuiTabContainerButtonArrayC2ERKS_
libwx_gtk2u_aui-2.8.so.0:_ZN28wxAuiTabContainerButtonArrayD1Ev
libwx_gtk2u_aui-2.8.so.0:_ZN28wxAuiTabContainerButtonArrayD2Ev
libwx_gtk2u_aui-2.8.so.0:_ZN28wxAuiTabContainerButtonArrayaSERKS_
libwx_gtk2u_aui-2.8.so.0:_ZNK12wxAuiManager12GetClassInfoEv
libwx_gtk2u_aui-2.8.so.0:_ZNK12wxAuiManager13GetEventTableEv
libwx_gtk2u_aui-2.8.so.0:_ZNK12wxAuiManager14GetArtProviderEv
libwx_gtk2u_aui-2.8.so.0:_ZNK12wxAuiManager16GetManagedWindowEv
libwx_gtk2u_aui-2.8.so.0:_ZNK12wxAuiManager17GetEventHashTableEv
libwx_gtk2u_aui-2.8.so.0:_ZNK12wxAuiManager21GetDockSizeConstraintEPdS0_
libwx_gtk2u_aui-2.8.so.0:_ZNK12wxAuiManager8GetFlagsEv
libwx_gtk2u_aui-2.8.so.0:_ZNK12wxAuiManager8GetFrameEv
libwx_gtk2u_aui-2.8.so.0:_ZNK12wxAuiTabCtrl12GetClassInfoEv
libwx_gtk2u_aui-2.8.so.0:_ZNK12wxAuiTabCtrl13GetEventTableEv
libwx_gtk2u_aui-2.8.so.0:_ZNK12wxAuiTabCtrl17GetEventHashTableEv
libwx_gtk2u_aui-2.8.so.0:_ZNK12wxAuiToolBar11GetToolFitsEi
libwx_gtk2u_aui-2.8.so.0:_ZNK12wxAuiToolBar11GetToolRectEi
libwx_gtk2u_aui-2.8.so.0:_ZNK12wxAuiToolBar12GetClassInfoEv
libwx_gtk2u_aui-2.8.so.0:_ZNK12wxAuiToolBar12GetToolCountEv
libwx_gtk2u_aui-2.8.so.0:_ZNK12wxAuiToolBar12GetToolIndexEi
libwx_gtk2u_aui-2.8.so.0:_ZNK12wxAuiToolBar12GetToolLabelEi
libwx_gtk2u_aui-2.8.so.0:_ZNK12wxAuiToolBar13GetEventTableEv
libwx_gtk2u_aui-2.8.so.0:_ZNK12wxAuiToolBar13GetToolBitmapEi
libwx_gtk2u_aui-2.8.so.0:_ZNK12wxAuiToolBar13GetToolStickyEi
libwx_gtk2u_aui-2.8.so.0:_ZNK12wxAuiToolBar14GetArtProviderEv
libwx_gtk2u_aui-2.8.so.0:_ZNK12wxAuiToolBar14GetToolBarFitsEv
libwx_gtk2u_aui-2.8.so.0:_ZNK12wxAuiToolBar14GetToolEnabledEi
libwx_gtk2u_aui-2.8.so.0:_ZNK12wxAuiToolBar14GetToolPackingEv
libwx_gtk2u_aui-2.8.so.0:_ZNK12wxAuiToolBar14GetToolToggledEi
libwx_gtk2u_aui-2.8.so.0:_ZNK12wxAuiToolBar15FindToolByIndexEi
libwx_gtk2u_aui-2.8.so.0:_ZNK12wxAuiToolBar15GetOverflowRectEv
libwx_gtk2u_aui-2.8.so.0:_ZNK12wxAuiToolBar15GetToolDropDownEi
libwx_gtk2u_aui-2.8.so.0:_ZNK12wxAuiToolBar15GetToolLongHelpEi
libwx_gtk2u_aui-2.8.so.0:_ZNK12wxAuiToolBar16GetOverflowStateEv
libwx_gtk2u_aui-2.8.so.0:_ZNK12wxAuiToolBar16GetToolShortHelpEi
libwx_gtk2u_aui-2.8.so.0:_ZNK12wxAuiToolBar17GetEventHashTableEv
libwx_gtk2u_aui-2.8.so.0:_ZNK12wxAuiToolBar17GetGripperVisibleEv
libwx_gtk2u_aui-2.8.so.0:_ZNK12wxAuiToolBar17GetToolBitmapSizeEv
libwx_gtk2u_aui-2.8.so.0:_ZNK12wxAuiToolBar17GetToolProportionEi
libwx_gtk2u_aui-2.8.so.0:_ZNK12wxAuiToolBar17GetToolSeparationEv
libwx_gtk2u_aui-2.8.so.0:_ZNK12wxAuiToolBar18FindToolByPositionEii
libwx_gtk2u_aui-2.8.so.0:_ZNK12wxAuiToolBar18GetOverflowVisibleEv
libwx_gtk2u_aui-2.8.so.0:_ZNK12wxAuiToolBar18GetToolFitsByIndexEi
libwx_gtk2u_aui-2.8.so.0:_ZNK12wxAuiToolBar18GetWindowStyleFlagEv
libwx_gtk2u_aui-2.8.so.0:_ZNK12wxAuiToolBar20GetToolBorderPaddingEv
libwx_gtk2u_aui-2.8.so.0:_ZNK12wxAuiToolBar22GetToolTextOrientationEv
libwx_gtk2u_aui-2.8.so.0:_ZNK12wxAuiToolBar29FindToolByPositionWithPackingEii
libwx_gtk2u_aui-2.8.so.0:_ZNK12wxAuiToolBar8FindToolEi
libwx_gtk2u_aui-2.8.so.0:_ZNK13wxAuiNotebook11GetPageTextEm
libwx_gtk2u_aui-2.8.so.0:_ZNK13wxAuiNotebook12GetClassInfoEv
libwx_gtk2u_aui-2.8.so.0:_ZNK13wxAuiNotebook12GetPageCountEv
libwx_gtk2u_aui-2.8.so.0:_ZNK13wxAuiNotebook12GetPageIndexEP8wxWindow
libwx_gtk2u_aui-2.8.so.0:_ZNK13wxAuiNotebook12GetSelectionEv
libwx_gtk2u_aui-2.8.so.0:_ZNK13wxAuiNotebook13GetEventTableEv
libwx_gtk2u_aui-2.8.so.0:_ZNK13wxAuiNotebook13GetPageBitmapEm
libwx_gtk2u_aui-2.8.so.0:_ZNK13wxAuiNotebook14GetArtProviderEv
libwx_gtk2u_aui-2.8.so.0:_ZNK13wxAuiNotebook16GetTabCtrlHeightEv
libwx_gtk2u_aui-2.8.so.0:_ZNK13wxAuiNotebook17GetEventHashTableEv
libwx_gtk2u_aui-2.8.so.0:_ZNK13wxAuiNotebook7GetPageEm
libwx_gtk2u_aui-2.8.so.0:_ZNK14wxAuiRectArray5IndexERK6wxRectb
libwx_gtk2u_aui-2.8.so.0:_ZNK17wxAuiManagerEvent12GetClassInfoEv
libwx_gtk2u_aui-2.8.so.0:_ZNK17wxAuiTabContainer10TabHitTestEiiPP8wxWindow
libwx_gtk2u_aui-2.8.so.0:_ZNK17wxAuiTabContainer12GetPageCountEv
libwx_gtk2u_aui-2.8.so.0:_ZNK17wxAuiTabContainer12GetTabOffsetEv
libwx_gtk2u_aui-2.8.so.0:_ZNK17wxAuiTabContainer13ButtonHitTestEiiPP23wxAuiTabContainerButton
libwx_gtk2u_aui-2.8.so.0:_ZNK17wxAuiTabContainer13GetActivePageEv
libwx_gtk2u_aui-2.8.so.0:_ZNK17wxAuiTabContainer14GetArtProviderEv
libwx_gtk2u_aui-2.8.so.0:_ZNK17wxAuiTabContainer16GetIdxFromWindowEP8wxWindow
libwx_gtk2u_aui-2.8.so.0:_ZNK17wxAuiTabContainer16GetWindowFromIdxEm
libwx_gtk2u_aui-2.8.so.0:_ZNK17wxAuiTabContainer7GetPageEm
libwx_gtk2u_aui-2.8.so.0:_ZNK17wxAuiTabContainer8GetFlagsEv
libwx_gtk2u_aui-2.8.so.0:_ZNK17wxAuiToolBarEvent12GetClassInfoEv
libwx_gtk2u_aui-2.8.so.0:_ZNK18wxAuiDockInfoArray5IndexERK13wxAuiDockInfob
libwx_gtk2u_aui-2.8.so.0:_ZNK18wxAuiFloatingFrame12GetClassInfoEv
libwx_gtk2u_aui-2.8.so.0:_ZNK18wxAuiFloatingFrame13GetEventTableEv
libwx_gtk2u_aui-2.8.so.0:_ZNK18wxAuiFloatingFrame15GetOwnerManagerEv
libwx_gtk2u_aui-2.8.so.0:_ZNK18wxAuiFloatingFrame17GetEventHashTableEv
libwx_gtk2u_aui-2.8.so.0:_ZNK18wxAuiMDIChildFrame10GetMenuBarEv
libwx_gtk2u_aui-2.8.so.0:_ZNK18wxAuiMDIChildFrame12GetClassInfoEv
libwx_gtk2u_aui-2.8.so.0:_ZNK18wxAuiMDIChildFrame13GetEventTableEv
libwx_gtk2u_aui-2.8.so.0:_ZNK18wxAuiMDIChildFrame17GetEventHashTableEv
libwx_gtk2u_aui-2.8.so.0:_ZNK18wxAuiMDIChildFrame17GetMDIParentFrameEv
libwx_gtk2u_aui-2.8.so.0:_ZNK18wxAuiMDIChildFrame7GetIconEv
libwx_gtk2u_aui-2.8.so.0:_ZNK18wxAuiMDIChildFrame8GetIconsEv
libwx_gtk2u_aui-2.8.so.0:_ZNK18wxAuiMDIChildFrame8GetTitleEv
libwx_gtk2u_aui-2.8.so.0:_ZNK18wxAuiNotebookEvent12GetClassInfoEv
libwx_gtk2u_aui-2.8.so.0:_ZNK18wxAuiPaneInfoArray5IndexERK13wxAuiPaneInfob
libwx_gtk2u_aui-2.8.so.0:_ZNK19wxAuiMDIParentFrame11GetNotebookEv
libwx_gtk2u_aui-2.8.so.0:_ZNK19wxAuiMDIParentFrame12GetClassInfoEv
libwx_gtk2u_aui-2.8.so.0:_ZNK19wxAuiMDIParentFrame13GetEventTableEv
libwx_gtk2u_aui-2.8.so.0:_ZNK19wxAuiMDIParentFrame14GetActiveChildEv
libwx_gtk2u_aui-2.8.so.0:_ZNK19wxAuiMDIParentFrame15DoGetClientSizeEPiS0_
libwx_gtk2u_aui-2.8.so.0:_ZNK19wxAuiMDIParentFrame15GetClientWindowEv
libwx_gtk2u_aui-2.8.so.0:_ZNK19wxAuiMDIParentFrame17GetEventHashTableEv
libwx_gtk2u_aui-2.8.so.0:_ZNK20wxAuiDockUIPartArray5IndexERK15wxAuiDockUIPartb
libwx_gtk2u_aui-2.8.so.0:_ZNK20wxAuiMDIClientWindow12GetClassInfoEv
libwx_gtk2u_aui-2.8.so.0:_ZNK20wxAuiMDIClientWindow13GetEventTableEv
libwx_gtk2u_aui-2.8.so.0:_ZNK20wxAuiMDIClientWindow17GetEventHashTableEv
libwx_gtk2u_aui-2.8.so.0:_ZNK20wxAuiPaneButtonArray5IndexERK15wxAuiPaneButtonb
libwx_gtk2u_aui-2.8.so.0:_ZNK21wxAuiToolBarItemArray5IndexERK16wxAuiToolBarItemb
libwx_gtk2u_aui-2.8.so.0:_ZNK22wxAuiNotebookPageArray5IndexERK17wxAuiNotebookPageb
libwx_gtk2u_aui-2.8.so.0:_ZNK24wxPseudoTransparentFrame12GetClassInfoEv
libwx_gtk2u_aui-2.8.so.0:_ZNK28wxAuiTabContainerButtonArray5IndexERK23wxAuiTabContainerButtonb
libwx_gtk2u_aui-2.8.so.0:_ZThn576_N12wxAuiTabCtrlD0Ev
libwx_gtk2u_aui-2.8.so.0:_ZThn576_N12wxAuiTabCtrlD1Ev
libwx_gtk2u_core-2.8.so.0:WXU_2.8
libwx_gtk2u_core-2.8.so.0:WXU_2.8.1
libwx_gtk2u_core-2.8.so.0:WXU_2.8.10
libwx_gtk2u_core-2.8.so.0:WXU_2.8.11
libwx_gtk2u_core-2.8.so.0:WXU_2.8.12
libwx_gtk2u_core-2.8.so.0:WXU_2.8.2
libwx_gtk2u_core-2.8.so.0:WXU_2.8.4
libwx_gtk2u_core-2.8.so.0:WXU_2.8.5
libwx_gtk2u_core-2.8.so.0:WXU_2.8.7
libwx_gtk2u_core-2.8.so.0:WXU_2.8.8
libwx_gtk2u_core-2.8.so.0:WXU_2.8.9
libwx_gtk2u_core-2.8.so.0:_Z10TIFFwxOpenR13wxInputStreamPKcS2_
libwx_gtk2u_core-2.8.so.0:_Z10TIFFwxOpenR14wxOutputStreamPKcS2_
libwx_gtk2u_core-2.8.so.0:_Z10median_cutP12j_decompressP3boxii
libwx_gtk2u_core-2.8.so.0:_Z10update_boxP12j_decompressP3box
libwx_gtk2u_core-2.8.so.0:_Z11wxContextIdi
libwx_gtk2u_core-2.8.so.0:_Z11wxIsStockIDi
libwx_gtk2u_core-2.8.so.0:_Z11wxLogStatusP7wxFramePKwz
libwx_gtk2u_core-2.8.so.0:_Z11wxSafeYieldP8wxWindowb
libwx_gtk2u_core-2.8.so.0:_Z11wxSetCursorRK8wxCursor
libwx_gtk2u_core-2.8.so.0:_Z12Skip_CommentR13wxInputStream
libwx_gtk2u_core-2.8.so.0:_Z12finish_pass1P12j_decompress
libwx_gtk2u_core-2.8.so.0:_Z12finish_pass2P12j_decompress
libwx_gtk2u_core-2.8.so.0:_Z12wxGetDisplayv
libwx_gtk2u_core-2.8.so.0:_Z12wxMessageBoxRK8wxStringS1_lP8wxWindowii
libwx_gtk2u_core-2.8.so.0:_Z12wxRegisterIdl
libwx_gtk2u_core-2.8.so.0:_Z12wxRemoveGrabP8wxWindow
libwx_gtk2u_core-2.8.so.0:_Z12wxVLogStatusP7wxFramePKwP13__va_list_tag
libwx_gtk2u_core-2.8.so.0:_Z13compute_colorP12j_decompressP3boxi
libwx_gtk2u_core-2.8.so.0:_Z13wxDirSelectorRK8wxStringS1_lRK7wxPointP8wxWindow
libwx_gtk2u_core-2.8.so.0:_Z13wxDisplaySizePiS_
libwx_gtk2u_core-2.8.so.0:_Z13wxDoFloodFillP4wxDCiiRK8wxColouri
libwx_gtk2u_core-2.8.so.0:_Z13wxGetKeyState9wxKeyCode
libwx_gtk2u_core-2.8.so.0:_Z13wxGetResourceRK8wxStringS1_PPwS1_
libwx_gtk2u_core-2.8.so.0:_Z13wxGetResourceRK8wxStringS1_PfS1_
libwx_gtk2u_core-2.8.so.0:_Z13wxGetResourceRK8wxStringS1_PiS1_
libwx_gtk2u_core-2.8.so.0:_Z13wxGetResourceRK8wxStringS1_PlS1_
libwx_gtk2u_core-2.8.so.0:_Z13wxSetIconsX11PvS_RK12wxIconBundle
libwx_gtk2u_core-2.8.so.0:_Z13wx_spline_popPdS_S_S_S_S_S_S_
libwx_gtk2u_core-2.8.so.0:_Z14wxDisplayDepthv
libwx_gtk2u_core-2.8.so.0:_Z14wxFileSelectorPKwS0_S0_S0_S0_iP8wxWindowii
libwx_gtk2u_core-2.8.so.0:_Z14wxGetCurrentIdv
libwx_gtk2u_core-2.8.so.0:_Z14wxIsStockLabeliRK8wxString
libwx_gtk2u_core-2.8.so.0:_Z14wx_clear_stackv
libwx_gtk2u_core-2.8.so.0:_Z14wx_jpeg_io_srcP22jpeg_decompress_structR13wxInputStream
libwx_gtk2u_core-2.8.so.0:_Z14wx_spline_pushdddddddd
libwx_gtk2u_core-2.8.so.0:_Z15pass2_fs_ditherP12j_decompressPPhS2_i
libwx_gtk2u_core-2.8.so.0:_Z15pass2_no_ditherP12j_decompressPPhS2_i
libwx_gtk2u_core-2.8.so.0:_Z15wxCharCodeWXToXi
libwx_gtk2u_core-2.8.so.0:_Z15wxCharCodeXToWXm
libwx_gtk2u_core-2.8.so.0:_Z15wxColourDisplayv
libwx_gtk2u_core-2.8.so.0:_Z15wxDisplaySizeMMPiS_
libwx_gtk2u_core-2.8.so.0:_Z15wxEndBusyCursorv
libwx_gtk2u_core-2.8.so.0:_Z15wxGetMouseStatev
libwx_gtk2u_core-2.8.so.0:_Z15wxGetRootWindowv
libwx_gtk2u_core-2.8.so.0:_Z15wxGetStockGtkIDi
libwx_gtk2u_core-2.8.so.0:_Z15wxGetStockLabelil
libwx_gtk2u_core-2.8.so.0:_Z15wxWriteResourceRK8wxStringS1_S1_S1_
libwx_gtk2u_core-2.8.so.0:_Z15wxWriteResourceRK8wxStringS1_fS1_
libwx_gtk2u_core-2.8.so.0:_Z15wxWriteResourceRK8wxStringS1_iS1_
libwx_gtk2u_core-2.8.so.0:_Z15wxWriteResourceRK8wxStringS1_lS1_
libwx_gtk2u_core-2.8.so.0:_Z15wx_jpeg_io_destP20jpeg_compress_structR14wxOutputStream
libwx_gtk2u_core-2.8.so.0:_Z16prescan_quantizeP12j_decompressPPhS2_i
libwx_gtk2u_core-2.8.so.0:_Z16wxFileSelectorExPKwS0_S0_PiS0_iP8wxWindowii
libwx_gtk2u_core-2.8.so.0:_Z16wxFindMenuItemIdP7wxFrameRK8wxStringS3_
libwx_gtk2u_core-2.8.so.0:_Z16wxGetDisplaySizev
libwx_gtk2u_core-2.8.so.0:_Z16wxIsDragResultOk12wxDragResult
libwx_gtk2u_core-2.8.so.0:_Z16wxStripMenuCodesPKwPw
libwx_gtk2u_core-2.8.so.0:_Z16wxStripMenuCodesRK8wxStringi
libwx_gtk2u_core-2.8.so.0:_Z17SetInvokingWindowP6wxMenuP8wxWindow
libwx_gtk2u_core-2.8.so.0:_Z17wxBeginBusyCursorPK8wxCursor
libwx_gtk2u_core-2.8.so.0:_Z17wxConnectStyleSetP8wxWindow
libwx_gtk2u_core-2.8.so.0:_Z17wxGetActiveWindowv
libwx_gtk2u_core-2.8.so.0:_Z17wxGetFontFromUserP8wxWindowRK6wxFontRK8wxString
libwx_gtk2u_core-2.8.so.0:_Z17wxGetSingleChoiceRK8wxStringS1_RK13wxArrayStringP8wxWindowiibii
libwx_gtk2u_core-2.8.so.0:_Z17wxGetSingleChoiceRK8wxStringS1_iPS0_P8wxWindowiibii
libwx_gtk2u_core-2.8.so.0:_Z17wxGetTextFromUserRK8wxStringS1_S1_P8wxWindowiib
libwx_gtk2u_core-2.8.so.0:_Z17wxSetFocusToChildP8wxWindowPS0_
libwx_gtk2u_core-2.8.so.0:_Z18start_pass_2_quantP12j_decompressb
libwx_gtk2u_core-2.8.so.0:_Z18wxDeleteStockListsv
libwx_gtk2u_core-2.8.so.0:_Z18wxFindFocusedChildP8wxWindow
libwx_gtk2u_core-2.8.so.0:_Z18wxFindWindowByNameRK8wxStringP8wxWindow
libwx_gtk2u_core-2.8.so.0:_Z18wxGetDisplaySizeMMv
libwx_gtk2u_core-2.8.so.0:_Z18wxGetMousePositionPiS_
libwx_gtk2u_core-2.8.so.0:_Z18wxGetMousePositionv
libwx_gtk2u_core-2.8.so.0:_Z18wxLoadFileSelectorPKwS0_S0_P8wxWindow
libwx_gtk2u_core-2.8.so.0:_Z18wxSaveFileSelectorPKwS0_S0_P8wxWindow
libwx_gtk2u_core-2.8.so.0:_Z18wxTestFontEncodingRK20wxNativeEncodingInfo
libwx_gtk2u_core-2.8.so.0:_Z19find_biggest_volumeP3boxi
libwx_gtk2u_core-2.8.so.0:_Z19wxClientDisplayRectPiS_S_S_
libwx_gtk2u_core-2.8.so.0:_Z19wxCreateGreyedImageRK7wxImageRS_
libwx_gtk2u_core-2.8.so.0:_Z19wxFindWindowAtPointP8wxWindowRK7wxPoint
libwx_gtk2u_core-2.8.so.0:_Z19wxFindWindowAtPointRK7wxPoint
libwx_gtk2u_core-2.8.so.0:_Z19wxFindWindowByLabelRK8wxStringP8wxWindow
libwx_gtk2u_core-2.8.so.0:_Z19wxGetColourFromUserP8wxWindowRK8wxColourRK8wxString
libwx_gtk2u_core-2.8.so.0:_Z19wxGetGdkWindowForDCP8wxWindowR4wxDC
libwx_gtk2u_core-2.8.so.0:_Z19wxGetNumberFromUserRK8wxStringS1_S1_lllP8wxWindowRK7wxPoint
libwx_gtk2u_core-2.8.so.0:_Z19wxGetTopLevelParentP8wxWindow
libwx_gtk2u_core-2.8.so.0:_Z19wxGtkFixSensitivityP8wxWindow
libwx_gtk2u_core-2.8.so.0:_Z19wx_quadratic_splinedddddddd
libwx_gtk2u_core-2.8.so.0:_Z20wxAddProcessCallbackP16wxEndProcessDatai
libwx_gtk2u_core-2.8.so.0:_Z20wxDisconnectStyleSetP8wxWindow
libwx_gtk2u_core-2.8.so.0:_Z20wxGetAccelFromStringRK8wxString
libwx_gtk2u_core-2.8.so.0:_Z20wxGetAvailableDrivesR13wxArrayStringS0_R10wxArrayInt
libwx_gtk2u_core-2.8.so.0:_Z20wxGetMultipleChoicesR10wxArrayIntRK8wxStringS3_RK13wxArrayStringP8wxWindowiibii
libwx_gtk2u_core-2.8.so.0:_Z20wxGetMultipleChoicesR10wxArrayIntRK8wxStringS3_iPS2_P8wxWindowiibii
libwx_gtk2u_core-2.8.so.0:_Z20wxGetStockHelpStringi23wxStockHelpStringClient
libwx_gtk2u_core-2.8.so.0:_Z21jinit_2pass_quantizerP12j_decompress
libwx_gtk2u_core-2.8.so.0:_Z21new_color_map_2_quantP12j_decompress
libwx_gtk2u_core-2.8.so.0:_Z21wxArtClientToIconSizeRK8wxString
libwx_gtk2u_core-2.8.so.0:_Z21wxFindFocusDescendantP8wxWindow
libwx_gtk2u_core-2.8.so.0:_Z21wxFindWindowAtPointerR7wxPoint
libwx_gtk2u_core-2.8.so.0:_Z21wxGetPasswordFromUserRK8wxStringS1_S1_P8wxWindowiib
libwx_gtk2u_core-2.8.so.0:_Z21wxGetSingleChoiceDataRK8wxStringS1_RK13wxArrayStringPPvP8wxWindowiibii
libwx_gtk2u_core-2.8.so.0:_Z21wxGetSingleChoiceDataRK8wxStringS1_iPS0_PPvP8wxWindowiibii
libwx_gtk2u_core-2.8.so.0:_Z21wxGetStockAcceleratori
libwx_gtk2u_core-2.8.so.0:_Z21wxRenderer_DrawChoiceP8wxWindowR4wxDCRK6wxRecti
libwx_gtk2u_core-2.8.so.0:_Z22find_biggest_color_popP3boxi
libwx_gtk2u_core-2.8.so.0:_Z22wxGetClientDisplayRectv
libwx_gtk2u_core-2.8.so.0:_Z22wxGetSingleChoiceIndexRK8wxStringS1_RK13wxArrayStringP8wxWindowiibii
libwx_gtk2u_core-2.8.so.0:_Z22wxGetSingleChoiceIndexRK8wxStringS1_iPS0_P8wxWindowiibii
libwx_gtk2u_core-2.8.so.0:_Z22wxInitAllImageHandlersv
libwx_gtk2u_core-2.8.so.0:_Z22wxInitializeStockListsv
libwx_gtk2u_core-2.8.so.0:_Z22wxTransferFileToStreamRK8wxStringRSo
libwx_gtk2u_core-2.8.so.0:_Z22wxTransferStreamToFileRSiRK8wxString
libwx_gtk2u_core-2.8.so.0:_Z23gdk_window_warp_pointerP12_GdkDrawableii
libwx_gtk2u_core-2.8.so.0:_Z23wxClearGtkSystemObjectsv
libwx_gtk2u_core-2.8.so.0:_Z23wxEnableTopLevelWindowsb
libwx_gtk2u_core-2.8.so.0:_Z23wxGetNativeFontEncoding14wxFontEncodingP20wxNativeEncodingInfo
libwx_gtk2u_core-2.8.so.0:_Z23wxRenderer_DrawComboBoxP8wxWindowR4wxDCRK6wxRecti
libwx_gtk2u_core-2.8.so.0:_Z23wxRenderer_DrawTextCtrlP8wxWindowR4wxDCRK6wxRecti
libwx_gtk2u_core-2.8.so.0:_Z23wxSetFullScreenStateX11PvS_S_bP6wxRect21wxX11FullScreenMethod
libwx_gtk2u_core-2.8.so.0:_Z24list_ctrl_compare_func_1PP14wxListLineDataS1_
libwx_gtk2u_core-2.8.so.0:_Z24wxGetFullScreenMethodX11PvS_
libwx_gtk2u_core-2.8.so.0:_Z24wxGetStockGtkAcceleratorPKcP15GdkModifierTypePj
libwx_gtk2u_core-2.8.so.0:_Z25prepare_range_limit_tableP12j_decompress
libwx_gtk2u_core-2.8.so.0:_Z25wxSetDetectableAutoRepeatb
libwx_gtk2u_core-2.8.so.0:_Z26wxGenericFindWindowAtPointRK7wxPoint
libwx_gtk2u_core-2.8.so.0:_Z26wxRenderer_DrawRadioButtonP8wxWindowR4wxDCRK6wxRecti
libwx_gtk2u_core-2.8.so.0:_Z26wxapp_install_idle_handlerv
libwx_gtk2u_core-2.8.so.0:_Z28wxEscapeStringForPangoMarkupRK8wxString
libwx_gtk2u_core-2.8.so.0:_Z33wxDefaultArtProvider_CreateBitmapRK8wxString
libwx_gtk2u_core-2.8.so.0:_Z6wxBellv
libwx_gtk2u_core-2.8.so.0:_Z7ReadPCXP7wxImageR13wxInputStream
libwx_gtk2u_core-2.8.so.0:_Z7SavePCXP7wxImageR14wxOutputStream
libwx_gtk2u_core-2.8.so.0:_Z7wxNewIdv
libwx_gtk2u_core-2.8.so.0:_Z8wxIsBusyv
libwx_gtk2u_core-2.8.so.0:_Z9RLEdecodePhjR13wxInputStream
libwx_gtk2u_core-2.8.so.0:_Z9RLEencodePhjR14wxOutputStream
libwx_gtk2u_core-2.8.so.0:_Z9wxAddGrabP8wxWindow
libwx_gtk2u_core-2.8.so.0:_ZN10wxBoxSizer11RecalcSizesEv
libwx_gtk2u_core-2.8.so.0:_ZN10wxBoxSizer7CalcMinEv
libwx_gtk2u_core-2.8.so.0:_ZN10wxBoxSizerC1Ei
libwx_gtk2u_core-2.8.so.0:_ZN10wxBoxSizerC2Ei
libwx_gtk2u_core-2.8.so.0:_ZN10wxBusyInfoC1ERK8wxStringP8wxWindow
libwx_gtk2u_core-2.8.so.0:_ZN10wxBusyInfoC2ERK8wxStringP8wxWindow
libwx_gtk2u_core-2.8.so.0:_ZN10wxBusyInfoD0Ev
libwx_gtk2u_core-2.8.so.0:_ZN10wxBusyInfoD1Ev
libwx_gtk2u_core-2.8.so.0:_ZN10wxBusyInfoD2Ev
libwx_gtk2u_core-2.8.so.0:_ZN10wxCheckBox14wxCreateObjectEv
libwx_gtk2u_core-2.8.so.0:_ZN10wxCheckBox16DoSet3StateValueE15wxCheckBoxState
libwx_gtk2u_core-2.8.so.0:_ZN10wxCheckBox18DoApplyWidgetStyleEP11_GtkRcStyle
libwx_gtk2u_core-2.8.so.0:_ZN10wxCheckBox25GetClassDefaultAttributesE15wxWindowVariant
libwx_gtk2u_core-2.8.so.0:_ZN10wxCheckBox6CreateEP8wxWindowiRK8wxStringRK7wxPointRK6wxSizelRK11wxValidatorS4_
libwx_gtk2u_core-2.8.so.0:_ZN10wxCheckBox6EnableEb
libwx_gtk2u_core-2.8.so.0:_ZN10wxCheckBox8SetLabelERK8wxString
libwx_gtk2u_core-2.8.so.0:_ZN10wxCheckBox8SetValueEb
libwx_gtk2u_core-2.8.so.0:_ZN10wxCheckBoxC1Ev
libwx_gtk2u_core-2.8.so.0:_ZN10wxCheckBoxC2Ev
libwx_gtk2u_core-2.8.so.0:_ZN10wxClientDC14wxCreateObjectEv
libwx_gtk2u_core-2.8.so.0:_ZN10wxClientDCC1EP8wxWindow
libwx_gtk2u_core-2.8.so.0:_ZN10wxClientDCC2EP8wxWindow
libwx_gtk2u_core-2.8.so.0:_ZN10wxComboBox11OnSelectAllER14wxCommandEvent
libwx_gtk2u_core-2.8.so.0:_ZN10wxComboBox11OnUpdateCutER15wxUpdateUIEvent
libwx_gtk2u_core-2.8.so.0:_ZN10wxComboBox11SetEditableEb
libwx_gtk2u_core-2.8.so.0:_ZN10wxComboBox12EnableEventsEv
libwx_gtk2u_core-2.8.so.0:_ZN10wxComboBox12OnUpdateCopyER15wxUpdateUIEvent
libwx_gtk2u_core-2.8.so.0:_ZN10wxComboBox12OnUpdateRedoER15wxUpdateUIEvent
libwx_gtk2u_core-2.8.so.0:_ZN10wxComboBox12OnUpdateUndoER15wxUpdateUIEvent
libwx_gtk2u_core-2.8.so.0:_ZN10wxComboBox12SetSelectionEi
libwx_gtk2u_core-2.8.so.0:_ZN10wxComboBox12SetSelectionEll
libwx_gtk2u_core-2.8.so.0:_ZN10wxComboBox13DisableEventsEv
libwx_gtk2u_core-2.8.so.0:_ZN10wxComboBox13OnUpdatePasteER15wxUpdateUIEvent
libwx_gtk2u_core-2.8.so.0:_ZN10wxComboBox14OnUpdateDeleteER15wxUpdateUIEvent
libwx_gtk2u_core-2.8.so.0:_ZN10wxComboBox14wxCreateObjectEv
libwx_gtk2u_core-2.8.so.0:_ZN10wxComboBox16GetConnectWidgetEv
libwx_gtk2u_core-2.8.so.0:_ZN10wxComboBox17OnUpdateSelectAllER15wxUpdateUIEvent
libwx_gtk2u_core-2.8.so.0:_ZN10wxComboBox17SetInsertionPointEl
libwx_gtk2u_core-2.8.so.0:_ZN10wxComboBox18DoApplyWidgetStyleEP11_GtkRcStyle
libwx_gtk2u_core-2.8.so.0:_ZN10wxComboBox19DoSetItemClientDataEjPv
libwx_gtk2u_core-2.8.so.0:_ZN10wxComboBox21DoSetItemClientObjectEjP12wxClientData
libwx_gtk2u_core-2.8.so.0:_ZN10wxComboBox25GetClassDefaultAttributesE15wxWindowVariant
libwx_gtk2u_core-2.8.so.0:_ZN10wxComboBox3CutEv
libwx_gtk2u_core-2.8.so.0:_ZN10wxComboBox4CopyEv
libwx_gtk2u_core-2.8.so.0:_ZN10wxComboBox4RedoEv
libwx_gtk2u_core-2.8.so.0:_ZN10wxComboBox4UndoEv
libwx_gtk2u_core-2.8.so.0:_ZN10wxComboBox5ClearEv
libwx_gtk2u_core-2.8.so.0:_ZN10wxComboBox5OnCutER14wxCommandEvent
libwx_gtk2u_core-2.8.so.0:_ZN10wxComboBox5PasteEv
libwx_gtk2u_core-2.8.so.0:_ZN10wxComboBox6CreateEP8wxWindowiRK8wxStringRK7wxPointRK6wxSizeRK13wxArrayStringlRK11wxValidatorS4_
libwx_gtk2u_core-2.8.so.0:_ZN10wxComboBox6CreateEP8wxWindowiRK8wxStringRK7wxPointRK6wxSizeiPS3_lRK11wxValidatorS4_
libwx_gtk2u_core-2.8.so.0:_ZN10wxComboBox6DeleteEj
libwx_gtk2u_core-2.8.so.0:_ZN10wxComboBox6OnCharER10wxKeyEvent
libwx_gtk2u_core-2.8.so.0:_ZN10wxComboBox6OnCopyER14wxCommandEvent
libwx_gtk2u_core-2.8.so.0:_ZN10wxComboBox6OnRedoER14wxCommandEvent
libwx_gtk2u_core-2.8.so.0:_ZN10wxComboBox6OnSizeER11wxSizeEvent
libwx_gtk2u_core-2.8.so.0:_ZN10wxComboBox6OnUndoER14wxCommandEvent
libwx_gtk2u_core-2.8.so.0:_ZN10wxComboBox7OnPasteER14wxCommandEvent
libwx_gtk2u_core-2.8.so.0:_ZN10wxComboBox7ReplaceEllRK8wxString
libwx_gtk2u_core-2.8.so.0:_ZN10wxComboBox8DoAppendERK8wxString
libwx_gtk2u_core-2.8.so.0:_ZN10wxComboBox8DoInsertERK8wxStringj
libwx_gtk2u_core-2.8.so.0:_ZN10wxComboBox8OnDeleteER14wxCommandEvent
libwx_gtk2u_core-2.8.so.0:_ZN10wxComboBox8SetFocusEv
libwx_gtk2u_core-2.8.so.0:_ZN10wxComboBox8SetValueERK8wxString
libwx_gtk2u_core-2.8.so.0:_ZN10wxComboBox9SelectAllEv
libwx_gtk2u_core-2.8.so.0:_ZN10wxComboBox9SetStringEjRK8wxString
libwx_gtk2u_core-2.8.so.0:_ZN10wxComboBoxD0Ev
libwx_gtk2u_core-2.8.so.0:_ZN10wxComboBoxD1Ev
libwx_gtk2u_core-2.8.so.0:_ZN10wxComboBoxD2Ev
libwx_gtk2u_core-2.8.so.0:_ZN10wxDCModule14wxCreateObjectEv
libwx_gtk2u_core-2.8.so.0:_ZN10wxDCModule6OnExitEv
libwx_gtk2u_core-2.8.so.0:_ZN10wxDCModule6OnInitEv
libwx_gtk2u_core-2.8.so.0:_ZN10wxDocument10LoadObjectERSi
libwx_gtk2u_core-2.8.so.0:_ZN10wxDocument10RemoveViewEP6wxView
libwx_gtk2u_core-2.8.so.0:_ZN10wxDocument10SaveObjectERSo
libwx_gtk2u_core-2.8.so.0:_ZN10wxDocument11SetFilenameERK8wxStringb
libwx_gtk2u_core-2.8.so.0:_ZN10wxDocument13NotifyClosingEv
libwx_gtk2u_core-2.8.so.0:_ZN10wxDocument13OnNewDocumentEv
libwx_gtk2u_core-2.8.so.0:_ZN10wxDocument14DeleteAllViewsEv
libwx_gtk2u_core-2.8.so.0:_ZN10wxDocument14DeleteContentsEv
libwx_gtk2u_core-2.8.so.0:_ZN10wxDocument14DoOpenDocumentERK8wxString
libwx_gtk2u_core-2.8.so.0:_ZN10wxDocument14DoSaveDocumentERK8wxString
libwx_gtk2u_core-2.8.so.0:_ZN10wxDocument14OnOpenDocumentERK8wxString
libwx_gtk2u_core-2.8.so.0:_ZN10wxDocument14OnSaveDocumentERK8wxString
libwx_gtk2u_core-2.8.so.0:_ZN10wxDocument14OnSaveModifiedEv
libwx_gtk2u_core-2.8.so.0:_ZN10wxDocument14UpdateAllViewsEP6wxViewP8wxObject
libwx_gtk2u_core-2.8.so.0:_ZN10wxDocument15OnCloseDocumentEv
libwx_gtk2u_core-2.8.so.0:_ZN10wxDocument17OnChangedViewListEv
libwx_gtk2u_core-2.8.so.0:_ZN10wxDocument24OnCreateCommandProcessorEv
libwx_gtk2u_core-2.8.so.0:_ZN10wxDocument4DrawER4wxDC
libwx_gtk2u_core-2.8.so.0:_ZN10wxDocument4SaveEv
libwx_gtk2u_core-2.8.so.0:_ZN10wxDocument5CloseEv
libwx_gtk2u_core-2.8.so.0:_ZN10wxDocument6RevertEv
libwx_gtk2u_core-2.8.so.0:_ZN10wxDocument6SaveAsEv
libwx_gtk2u_core-2.8.so.0:_ZN10wxDocument7AddViewEP6wxView
libwx_gtk2u_core-2.8.so.0:_ZN10wxDocument8OnCreateERK8wxStringl
libwx_gtk2u_core-2.8.so.0:_ZN10wxDocumentC1EPS_
libwx_gtk2u_core-2.8.so.0:_ZN10wxDocumentC2EPS_
libwx_gtk2u_core-2.8.so.0:_ZN10wxDocumentD0Ev
libwx_gtk2u_core-2.8.so.0:_ZN10wxDocumentD1Ev
libwx_gtk2u_core-2.8.so.0:_ZN10wxDocumentD2Ev
libwx_gtk2u_core-2.8.so.0:_ZN10wxFileCtrl10ShowHiddenEb
libwx_gtk2u_core-2.8.so.0:_ZN10wxFileCtrl10UpdateItemERK10wxListItem
libwx_gtk2u_core-2.8.so.0:_ZN10wxFileCtrl11GoToHomeDirEv
libwx_gtk2u_core-2.8.so.0:_ZN10wxFileCtrl11UpdateFilesEv
libwx_gtk2u_core-2.8.so.0:_ZN10wxFileCtrl12FreeItemDataER10wxListItem
libwx_gtk2u_core-2.8.so.0:_ZN10wxFileCtrl13GoToParentDirEv
libwx_gtk2u_core-2.8.so.0:_ZN10wxFileCtrl14OnListColClickER11wxListEvent
libwx_gtk2u_core-2.8.so.0:_ZN10wxFileCtrl14wxCreateObjectEv
libwx_gtk2u_core-2.8.so.0:_ZN10wxFileCtrl16ChangeToListModeEv
libwx_gtk2u_core-2.8.so.0:_ZN10wxFileCtrl16FreeAllItemsDataEv
libwx_gtk2u_core-2.8.so.0:_ZN10wxFileCtrl16OnListDeleteItemER11wxListEvent
libwx_gtk2u_core-2.8.so.0:_ZN10wxFileCtrl18ChangeToReportModeEv
libwx_gtk2u_core-2.8.so.0:_ZN10wxFileCtrl18OnListEndLabelEditER11wxListEvent
libwx_gtk2u_core-2.8.so.0:_ZN10wxFileCtrl20OnListDeleteAllItemsER11wxListEvent
libwx_gtk2u_core-2.8.so.0:_ZN10wxFileCtrl21ChangeToSmallIconModeEv
libwx_gtk2u_core-2.8.so.0:_ZN10wxFileCtrl3AddEP10wxFileDataR10wxListItem
libwx_gtk2u_core-2.8.so.0:_ZN10wxFileCtrl7GoToDirERK8wxString
libwx_gtk2u_core-2.8.so.0:_ZN10wxFileCtrl7MakeDirEv
libwx_gtk2u_core-2.8.so.0:_ZN10wxFileCtrl7SetWildERK8wxString
libwx_gtk2u_core-2.8.so.0:_ZN10wxFileCtrl9SortItemsEN10wxFileData17fileListFieldTypeEb
libwx_gtk2u_core-2.8.so.0:_ZN10wxFileCtrlC1EP8wxWindowiRK8wxStringbRK7wxPointRK6wxSizelRK11wxValidatorS4_
libwx_gtk2u_core-2.8.so.0:_ZN10wxFileCtrlC1Ev
libwx_gtk2u_core-2.8.so.0:_ZN10wxFileCtrlC2EP8wxWindowiRK8wxStringbRK7wxPointRK6wxSizelRK11wxValidatorS4_
libwx_gtk2u_core-2.8.so.0:_ZN10wxFileCtrlC2Ev
libwx_gtk2u_core-2.8.so.0:_ZN10wxFileCtrlD0Ev
libwx_gtk2u_core-2.8.so.0:_ZN10wxFileCtrlD1Ev
libwx_gtk2u_core-2.8.so.0:_ZN10wxFileCtrlD2Ev
libwx_gtk2u_core-2.8.so.0:_ZN10wxFileData10SetNewNameERK8wxStringS2_
libwx_gtk2u_core-2.8.so.0:_ZN10wxFileData4CopyERKS_
libwx_gtk2u_core-2.8.so.0:_ZN10wxFileData4InitEv
libwx_gtk2u_core-2.8.so.0:_ZN10wxFileData8MakeItemER10wxListItem
libwx_gtk2u_core-2.8.so.0:_ZN10wxFileData8ReadDataEv
libwx_gtk2u_core-2.8.so.0:_ZN10wxFileDataC1ERK8wxStringS2_NS_8fileTypeEi
libwx_gtk2u_core-2.8.so.0:_ZN10wxFileDataC2ERK8wxStringS2_NS_8fileTypeEi
libwx_gtk2u_core-2.8.so.0:_ZN10wxFontBase11SetFaceNameERK8wxString
libwx_gtk2u_core-2.8.so.0:_ZN10wxFontBase12SetPixelSizeERK6wxSize
libwx_gtk2u_core-2.8.so.0:_ZN10wxFontBase17SetNativeFontInfoERK8wxString
libwx_gtk2u_core-2.8.so.0:_ZN10wxFontBase18SetDefaultEncodingE14wxFontEncoding
libwx_gtk2u_core-2.8.so.0:_ZN10wxFontBase19DoSetNativeFontInfoERK16wxNativeFontInfo
libwx_gtk2u_core-2.8.so.0:_ZN10wxFontBase25SetNativeFontInfoUserDescERK8wxString
libwx_gtk2u_core-2.8.so.0:_ZN10wxFontBase3NewERK16wxNativeFontInfo
libwx_gtk2u_core-2.8.so.0:_ZN10wxFontBase3NewERK6wxSize12wxFontFamilyiRK8wxString14wxFontEncoding
libwx_gtk2u_core-2.8.so.0:_ZN10wxFontBase3NewERK6wxSizeiiibRK8wxString14wxFontEncoding
libwx_gtk2u_core-2.8.so.0:_ZN10wxFontBase3NewERK8wxString
libwx_gtk2u_core-2.8.so.0:_ZN10wxFontBase3NewEi12wxFontFamilyiRK8wxString14wxFontEncoding
libwx_gtk2u_core-2.8.so.0:_ZN10wxFontBase3NewEiiiibRK8wxString14wxFontEncoding
libwx_gtk2u_core-2.8.so.0:_ZN10wxFontBaseD0Ev
libwx_gtk2u_core-2.8.so.0:_ZN10wxFontBaseD1Ev
libwx_gtk2u_core-2.8.so.0:_ZN10wxFontBaseD2Ev
libwx_gtk2u_core-2.8.so.0:_ZN10wxFontData14wxCreateObjectEv
libwx_gtk2u_core-2.8.so.0:_ZN10wxFontDataC1Ev
libwx_gtk2u_core-2.8.so.0:_ZN10wxFontDataC2Ev
libwx_gtk2u_core-2.8.so.0:_ZN10wxFontDataD0Ev
libwx_gtk2u_core-2.8.so.0:_ZN10wxFontDataD1Ev
libwx_gtk2u_core-2.8.so.0:_ZN10wxFontDataD2Ev
libwx_gtk2u_core-2.8.so.0:_ZN10wxFontList10RemoveFontEP6wxFont
libwx_gtk2u_core-2.8.so.0:_ZN10wxFontList16FindOrCreateFontEiiiibRK8wxString14wxFontEncoding
libwx_gtk2u_core-2.8.so.0:_ZN10wxFontList7AddFontEP6wxFont
libwx_gtk2u_core-2.8.so.0:_ZN10wxKeyEvent14wxCreateObjectEv
libwx_gtk2u_core-2.8.so.0:_ZN10wxKeyEventC1ERKS_
libwx_gtk2u_core-2.8.so.0:_ZN10wxKeyEventC1Ei
libwx_gtk2u_core-2.8.so.0:_ZN10wxKeyEventC2ERKS_
libwx_gtk2u_core-2.8.so.0:_ZN10wxKeyEventC2Ei
libwx_gtk2u_core-2.8.so.0:_ZN10wxListCtrl14wxCreateObjectEv
libwx_gtk2u_core-2.8.so.0:_ZN10wxListItem14wxCreateObjectEv
libwx_gtk2u_core-2.8.so.0:_ZN10wxListView14wxCreateObjectEv
libwx_gtk2u_core-2.8.so.0:_ZN10wxListbook10InsertPageEmP8wxWindowRK8wxStringbi
libwx_gtk2u_core-2.8.so.0:_ZN10wxListbook11SetPageTextEmRK8wxString
libwx_gtk2u_core-2.8.so.0:_ZN10wxListbook12DoRemovePageEm
libwx_gtk2u_core-2.8.so.0:_ZN10wxListbook12SetImageListEP11wxImageList
libwx_gtk2u_core-2.8.so.0:_ZN10wxListbook12SetPageImageEmi
libwx_gtk2u_core-2.8.so.0:_ZN10wxListbook14DeleteAllPagesEv
libwx_gtk2u_core-2.8.so.0:_ZN10wxListbook14OnListSelectedER11wxListEvent
libwx_gtk2u_core-2.8.so.0:_ZN10wxListbook14wxCreateObjectEv
libwx_gtk2u_core-2.8.so.0:_ZN10wxListbook16MakeChangedEventER19wxBookCtrlBaseEvent
libwx_gtk2u_core-2.8.so.0:_ZN10wxListbook18UpdateSelectedPageEm
libwx_gtk2u_core-2.8.so.0:_ZN10wxListbook4InitEv
libwx_gtk2u_core-2.8.so.0:_ZN10wxListbook6CreateEP8wxWindowiRK7wxPointRK6wxSizelRK8wxString
libwx_gtk2u_core-2.8.so.0:_ZN10wxListbook6OnSizeER11wxSizeEvent
libwx_gtk2u_core-2.8.so.0:_ZN10wxLogFrame13OnCloseWindowER12wxCloseEvent
libwx_gtk2u_core-2.8.so.0:_ZN10wxLogFrame6OnSaveER14wxCommandEvent
libwx_gtk2u_core-2.8.so.0:_ZN10wxLogFrame7DoCloseEv
libwx_gtk2u_core-2.8.so.0:_ZN10wxLogFrame7OnClearER14wxCommandEvent
libwx_gtk2u_core-2.8.so.0:_ZN10wxLogFrame7OnCloseER14wxCommandEvent
libwx_gtk2u_core-2.8.so.0:_ZN10wxLogFrameC1EP8wxWindowP11wxLogWindowPKw
libwx_gtk2u_core-2.8.so.0:_ZN10wxLogFrameC2EP8wxWindowP11wxLogWindowPKw
libwx_gtk2u_core-2.8.so.0:_ZN10wxLogFrameD0Ev
libwx_gtk2u_core-2.8.so.0:_ZN10wxLogFrameD1Ev
libwx_gtk2u_core-2.8.so.0:_ZN10wxLogFrameD2Ev
libwx_gtk2u_core-2.8.so.0:_ZN10wxMaskBase6CreateERK8wxBitmap
libwx_gtk2u_core-2.8.so.0:_ZN10wxMaskBase6CreateERK8wxBitmapRK8wxColour
libwx_gtk2u_core-2.8.so.0:_ZN10wxMaskBase6CreateERK8wxBitmapi
libwx_gtk2u_core-2.8.so.0:_ZN10wxMemoryDC13SetBackgroundERK7wxBrush
libwx_gtk2u_core-2.8.so.0:_ZN10wxMemoryDC14wxCreateObjectEv
libwx_gtk2u_core-2.8.so.0:_ZN10wxMemoryDC17SetTextBackgroundERK8wxColour
libwx_gtk2u_core-2.8.so.0:_ZN10wxMemoryDC17SetTextForegroundERK8wxColour
libwx_gtk2u_core-2.8.so.0:_ZN10wxMemoryDC4InitEv
libwx_gtk2u_core-2.8.so.0:_ZN10wxMemoryDC6SetPenERK5wxPen
libwx_gtk2u_core-2.8.so.0:_ZN10wxMemoryDC8DoSelectERK8wxBitmap
libwx_gtk2u_core-2.8.so.0:_ZN10wxMemoryDC8SetBrushERK7wxBrush
libwx_gtk2u_core-2.8.so.0:_ZN10wxMemoryDCC1EP4wxDC
libwx_gtk2u_core-2.8.so.0:_ZN10wxMemoryDCC2EP4wxDC
libwx_gtk2u_core-2.8.so.0:_ZN10wxMemoryDCD0Ev
libwx_gtk2u_core-2.8.so.0:_ZN10wxMemoryDCD1Ev
libwx_gtk2u_core-2.8.so.0:_ZN10wxMemoryDCD2Ev
libwx_gtk2u_core-2.8.so.0:_ZN10wxMenuBase10AddSubMenuEP6wxMenu
libwx_gtk2u_core-2.8.so.0:_ZN10wxMenuBase13SetHelpStringEiRK8wxString
libwx_gtk2u_core-2.8.so.0:_ZN10wxMenuBase4InitEl
libwx_gtk2u_core-2.8.so.0:_ZN10wxMenuBase5CheckEib
libwx_gtk2u_core-2.8.so.0:_ZN10wxMenuBase6AttachEP13wxMenuBarBase
libwx_gtk2u_core-2.8.so.0:_ZN10wxMenuBase6DeleteEP10wxMenuItem
libwx_gtk2u_core-2.8.so.0:_ZN10wxMenuBase6DetachEv
libwx_gtk2u_core-2.8.so.0:_ZN10wxMenuBase6EnableEib
libwx_gtk2u_core-2.8.so.0:_ZN10wxMenuBase6InsertEmP10wxMenuItem
libwx_gtk2u_core-2.8.so.0:_ZN10wxMenuBase6RemoveEP10wxMenuItem
libwx_gtk2u_core-2.8.so.0:_ZN10wxMenuBase7DestroyEP10wxMenuItem
libwx_gtk2u_core-2.8.so.0:_ZN10wxMenuBase8DoAppendEP10wxMenuItem
libwx_gtk2u_core-2.8.so.0:_ZN10wxMenuBase8DoDeleteEP10wxMenuItem
libwx_gtk2u_core-2.8.so.0:_ZN10wxMenuBase8DoInsertEmP10wxMenuItem
libwx_gtk2u_core-2.8.so.0:_ZN10wxMenuBase8DoRemoveEP10wxMenuItem
libwx_gtk2u_core-2.8.so.0:_ZN10wxMenuBase8SetLabelEiRK8wxString
libwx_gtk2u_core-2.8.so.0:_ZN10wxMenuBase8UpdateUIEP12wxEvtHandler
libwx_gtk2u_core-2.8.so.0:_ZN10wxMenuBase9DoDestroyEP10wxMenuItem
libwx_gtk2u_core-2.8.so.0:_ZN10wxMenuBase9SendEventEii
libwx_gtk2u_core-2.8.so.0:_ZN10wxMenuBaseD0Ev
libwx_gtk2u_core-2.8.so.0:_ZN10wxMenuBaseD1Ev
libwx_gtk2u_core-2.8.so.0:_ZN10wxMenuBaseD2Ev
libwx_gtk2u_core-2.8.so.0:_ZN10wxMenuItem14wxCreateObjectEv
libwx_gtk2u_core-2.8.so.0:_ZN10wxMenuItem23GTKProcessMenuItemLabelERK8wxStringPS0_
libwx_gtk2u_core-2.8.so.0:_ZN10wxMenuItem4InitERK8wxString
libwx_gtk2u_core-2.8.so.0:_ZN10wxMenuItem5CheckEb
libwx_gtk2u_core-2.8.so.0:_ZN10wxMenuItem6EnableEb
libwx_gtk2u_core-2.8.so.0:_ZN10wxMenuItem7SetTextERK8wxString
libwx_gtk2u_core-2.8.so.0:_ZN10wxMenuItem9DoSetTextERK8wxString
libwx_gtk2u_core-2.8.so.0:_ZN10wxMenuItemC1EP6wxMenuiRK8wxStringS4_10wxItemKindS1_
libwx_gtk2u_core-2.8.so.0:_ZN10wxMenuItemC1EP6wxMenuiRK8wxStringS4_bS1_
libwx_gtk2u_core-2.8.so.0:_ZN10wxMenuItemC2EP6wxMenuiRK8wxStringS4_10wxItemKindS1_
libwx_gtk2u_core-2.8.so.0:_ZN10wxMenuItemC2EP6wxMenuiRK8wxStringS4_bS1_
libwx_gtk2u_core-2.8.so.0:_ZN10wxMenuItemD0Ev
libwx_gtk2u_core-2.8.so.0:_ZN10wxMenuItemD1Ev
libwx_gtk2u_core-2.8.so.0:_ZN10wxMenuItemD2Ev
libwx_gtk2u_core-2.8.so.0:_ZN10wxNotebook10InsertPageEmP8wxWindowRK8wxStringbi
libwx_gtk2u_core-2.8.so.0:_ZN10wxNotebook10SetPaddingERK6wxSize
libwx_gtk2u_core-2.8.so.0:_ZN10wxNotebook10SetTabSizeERK6wxSize
libwx_gtk2u_core-2.8.so.0:_ZN10wxNotebook11SetPageSizeERK6wxSize
libwx_gtk2u_core-2.8.so.0:_ZN10wxNotebook11SetPageTextEmRK8wxString
libwx_gtk2u_core-2.8.so.0:_ZN10wxNotebook12DoRemovePageEm
libwx_gtk2u_core-2.8.so.0:_ZN10wxNotebook12SetPageImageEmi
libwx_gtk2u_core-2.8.so.0:_ZN10wxNotebook14DeleteAllPagesEv
libwx_gtk2u_core-2.8.so.0:_ZN10wxNotebook14DoSetSelectionEmi
libwx_gtk2u_core-2.8.so.0:_ZN10wxNotebook14wxCreateObjectEv
libwx_gtk2u_core-2.8.so.0:_ZN10wxNotebook15OnNavigationKeyER20wxNavigationKeyEvent
libwx_gtk2u_core-2.8.so.0:_ZN10wxNotebook18DoApplyWidgetStyleEP11_GtkRcStyle
libwx_gtk2u_core-2.8.so.0:_ZN10wxNotebook18SetConstraintSizesEb
libwx_gtk2u_core-2.8.so.0:_ZN10wxNotebook25GetClassDefaultAttributesE15wxWindowVariant
libwx_gtk2u_core-2.8.so.0:_ZN10wxNotebook4InitEv
libwx_gtk2u_core-2.8.so.0:_ZN10wxNotebook6CreateEP8wxWindowiRK7wxPointRK6wxSizelRK8wxString
libwx_gtk2u_core-2.8.so.0:_ZN10wxNotebook7DoPhaseEi
libwx_gtk2u_core-2.8.so.0:_ZN10wxNotebookC1EP8wxWindowiRK7wxPointRK6wxSizelRK8wxString
libwx_gtk2u_core-2.8.so.0:_ZN10wxNotebookC1Ev
libwx_gtk2u_core-2.8.so.0:_ZN10wxNotebookC2EP8wxWindowiRK7wxPointRK6wxSizelRK8wxString
libwx_gtk2u_core-2.8.so.0:_ZN10wxNotebookC2Ev
libwx_gtk2u_core-2.8.so.0:_ZN10wxNotebookD0Ev
libwx_gtk2u_core-2.8.so.0:_ZN10wxNotebookD1Ev
libwx_gtk2u_core-2.8.so.0:_ZN10wxNotebookD2Ev
libwx_gtk2u_core-2.8.so.0:_ZN10wxPrintout11GetPageInfoEPiS0_S0_S0_
libwx_gtk2u_core-2.8.so.0:_ZN10wxPrintout13OnEndDocumentEv
libwx_gtk2u_core-2.8.so.0:_ZN10wxPrintout13OnEndPrintingEv
libwx_gtk2u_core-2.8.so.0:_ZN10wxPrintout15OnBeginDocumentEii
libwx_gtk2u_core-2.8.so.0:_ZN10wxPrintout15OnBeginPrintingEv
libwx_gtk2u_core-2.8.so.0:_ZN10wxPrintout16SetLogicalOriginEii
libwx_gtk2u_core-2.8.so.0:_ZN10wxPrintout17FitThisSizeToPageERK6wxSize
libwx_gtk2u_core-2.8.so.0:_ZN10wxPrintout18FitThisSizeToPaperERK6wxSize
libwx_gtk2u_core-2.8.so.0:_ZN10wxPrintout19MapScreenSizeToPageEv
libwx_gtk2u_core-2.8.so.0:_ZN10wxPrintout19OffsetLogicalOriginEii
libwx_gtk2u_core-2.8.so.0:_ZN10wxPrintout20MapScreenSizeToPaperEv
libwx_gtk2u_core-2.8.so.0:_ZN10wxPrintout21MapScreenSizeToDeviceEv
libwx_gtk2u_core-2.8.so.0:_ZN10wxPrintout24FitThisSizeToPageMarginsERK6wxSizeRK21wxPageSetupDialogData
libwx_gtk2u_core-2.8.so.0:_ZN10wxPrintout26MapScreenSizeToPageMarginsERK21wxPageSetupDialogData
libwx_gtk2u_core-2.8.so.0:_ZN10wxPrintout7HasPageEi
libwx_gtk2u_core-2.8.so.0:_ZN10wxPrintoutC1ERK8wxString
libwx_gtk2u_core-2.8.so.0:_ZN10wxPrintoutC2ERK8wxString
libwx_gtk2u_core-2.8.so.0:_ZN10wxPrintoutD0Ev
libwx_gtk2u_core-2.8.so.0:_ZN10wxPrintoutD1Ev
libwx_gtk2u_core-2.8.so.0:_ZN10wxPrintoutD2Ev
libwx_gtk2u_core-2.8.so.0:_ZN10wxQuantize10DoQuantizeEjjPPhS1_S0_i
libwx_gtk2u_core-2.8.so.0:_ZN10wxQuantize14wxCreateObjectEv
libwx_gtk2u_core-2.8.so.0:_ZN10wxQuantize8QuantizeERK7wxImageRS0_PP9wxPaletteiPPhi
libwx_gtk2u_core-2.8.so.0:_ZN10wxQuantize8QuantizeERK7wxImageRS0_iPPhi
libwx_gtk2u_core-2.8.so.0:_ZN10wxRadioBox12ApplyToolTipEP12_GtkTooltipsPKw
libwx_gtk2u_core-2.8.so.0:_ZN10wxRadioBox12SetSelectionEi
libwx_gtk2u_core-2.8.so.0:_ZN10wxRadioBox14OnInternalIdleEv
libwx_gtk2u_core-2.8.so.0:_ZN10wxRadioBox14wxCreateObjectEv
libwx_gtk2u_core-2.8.so.0:_ZN10wxRadioBox15GtkEnableEventsEv
libwx_gtk2u_core-2.8.so.0:_ZN10wxRadioBox16DoSetItemToolTipEjP9wxToolTip
libwx_gtk2u_core-2.8.so.0:_ZN10wxRadioBox16GtkDisableEventsEv
libwx_gtk2u_core-2.8.so.0:_ZN10wxRadioBox18DoApplyWidgetStyleEP11_GtkRcStyle
libwx_gtk2u_core-2.8.so.0:_ZN10wxRadioBox22GTKWidgetDoSetMnemonicEP10_GtkWidget
libwx_gtk2u_core-2.8.so.0:_ZN10wxRadioBox25GetClassDefaultAttributesE15wxWindowVariant
libwx_gtk2u_core-2.8.so.0:_ZN10wxRadioBox4InitEv
libwx_gtk2u_core-2.8.so.0:_ZN10wxRadioBox4ShowEb
libwx_gtk2u_core-2.8.so.0:_ZN10wxRadioBox4ShowEjb
libwx_gtk2u_core-2.8.so.0:_ZN10wxRadioBox6CreateEP8wxWindowiRK8wxStringRK7wxPointRK6wxSizeRK13wxArrayStringilRK11wxValidatorS4_
libwx_gtk2u_core-2.8.so.0:_ZN10wxRadioBox6CreateEP8wxWindowiRK8wxStringRK7wxPointRK6wxSizeiPS3_ilRK11wxValidatorS4_
libwx_gtk2u_core-2.8.so.0:_ZN10wxRadioBox6EnableEb
libwx_gtk2u_core-2.8.so.0:_ZN10wxRadioBox6EnableEjb
libwx_gtk2u_core-2.8.so.0:_ZN10wxRadioBox8SetFocusEv
libwx_gtk2u_core-2.8.so.0:_ZN10wxRadioBox8SetLabelERK8wxString
libwx_gtk2u_core-2.8.so.0:_ZN10wxRadioBox9SetStringEjRK8wxString
libwx_gtk2u_core-2.8.so.0:_ZN10wxRadioBoxD0Ev
libwx_gtk2u_core-2.8.so.0:_ZN10wxRadioBoxD1Ev
libwx_gtk2u_core-2.8.so.0:_ZN10wxRadioBoxD2Ev
libwx_gtk2u_core-2.8.so.0:_ZN10wxScreenDC14wxCreateObjectEv
libwx_gtk2u_core-2.8.so.0:_ZN10wxScreenDC15EndDrawingOnTopEv
libwx_gtk2u_core-2.8.so.0:_ZN10wxScreenDC17StartDrawingOnTopEP6wxRect
libwx_gtk2u_core-2.8.so.0:_ZN10wxScreenDC17StartDrawingOnTopEP8wxWindow
libwx_gtk2u_core-2.8.so.0:_ZN10wxScreenDCC1Ev
libwx_gtk2u_core-2.8.so.0:_ZN10wxScreenDCC2Ev
libwx_gtk2u_core-2.8.so.0:_ZN10wxScreenDCD0Ev
libwx_gtk2u_core-2.8.so.0:_ZN10wxScreenDCD1Ev
libwx_gtk2u_core-2.8.so.0:_ZN10wxScreenDCD2Ev
libwx_gtk2u_core-2.8.so.0:_ZN10wxSpinCtrl12SetSelectionEll
libwx_gtk2u_core-2.8.so.0:_ZN10wxSpinCtrl14wxCreateObjectEv
libwx_gtk2u_core-2.8.so.0:_ZN10wxSpinCtrl25GetClassDefaultAttributesE15wxWindowVariant
libwx_gtk2u_core-2.8.so.0:_ZN10wxSpinCtrl6CreateEP8wxWindowiRK8wxStringRK7wxPointRK6wxSizeliiiS4_
libwx_gtk2u_core-2.8.so.0:_ZN10wxSpinCtrl6OnCharER10wxKeyEvent
libwx_gtk2u_core-2.8.so.0:_ZN10wxSpinCtrl8SetRangeEii
libwx_gtk2u_core-2.8.so.0:_ZN10wxSpinCtrl8SetValueERK8wxString
libwx_gtk2u_core-2.8.so.0:_ZN10wxSpinCtrl8SetValueEi
libwx_gtk2u_core-2.8.so.0:_ZN10wxSpinCtrlC1Ev
libwx_gtk2u_core-2.8.so.0:_ZN10wxSpinCtrlC2Ev
libwx_gtk2u_core-2.8.so.0:_ZN10wxStockGDI6GetPenENS_4ItemE
libwx_gtk2u_core-2.8.so.0:_ZN10wxStockGDI7GetFontENS_4ItemE
libwx_gtk2u_core-2.8.so.0:_ZN10wxStockGDI8GetBrushENS_4ItemE
libwx_gtk2u_core-2.8.so.0:_ZN10wxStockGDI9DeleteAllEv
libwx_gtk2u_core-2.8.so.0:_ZN10wxStockGDI9GetColourENS_4ItemE
libwx_gtk2u_core-2.8.so.0:_ZN10wxStockGDI9GetCursorENS_4ItemE
libwx_gtk2u_core-2.8.so.0:_ZN10wxStockGDIC1Ev
libwx_gtk2u_core-2.8.so.0:_ZN10wxStockGDIC2Ev
libwx_gtk2u_core-2.8.so.0:_ZN10wxStockGDID0Ev
libwx_gtk2u_core-2.8.so.0:_ZN10wxStockGDID1Ev
libwx_gtk2u_core-2.8.so.0:_ZN10wxStockGDID2Ev
libwx_gtk2u_core-2.8.so.0:_ZN10wxTextAttr4InitEv
libwx_gtk2u_core-2.8.so.0:_ZN10wxTextAttr7CombineERKS_S1_PK14wxTextCtrlBase
libwx_gtk2u_core-2.8.so.0:_ZN10wxTextAttrC1ERK8wxColourS2_RK6wxFont19wxTextAttrAlignment
libwx_gtk2u_core-2.8.so.0:_ZN10wxTextAttrC2ERK8wxColourS2_RK6wxFont19wxTextAttrAlignment
libwx_gtk2u_core-2.8.so.0:_ZN10wxTextAttraSERKS_
libwx_gtk2u_core-2.8.so.0:_ZN10wxTextCtrl10AppendTextERK8wxString
libwx_gtk2u_core-2.8.so.0:_ZN10wxTextCtrl10DoSetValueERK8wxStringi
libwx_gtk2u_core-2.8.so.0:_ZN10wxTextCtrl11OnDropFilesER16wxDropFilesEvent
libwx_gtk2u_core-2.8.so.0:_ZN10wxTextCtrl11OnUpdateCutER15wxUpdateUIEvent
libwx_gtk2u_core-2.8.so.0:_ZN10wxTextCtrl11SetEditableEb
libwx_gtk2u_core-2.8.so.0:_ZN10wxTextCtrl12DiscardEditsEv
libwx_gtk2u_core-2.8.so.0:_ZN10wxTextCtrl12OnUpdateCopyER15wxUpdateUIEvent
libwx_gtk2u_core-2.8.so.0:_ZN10wxTextCtrl12OnUpdateRedoER15wxUpdateUIEvent
libwx_gtk2u_core-2.8.so.0:_ZN10wxTextCtrl12OnUpdateUndoER15wxUpdateUIEvent
libwx_gtk2u_core-2.8.so.0:_ZN10wxTextCtrl12SetMaxLengthEm
libwx_gtk2u_core-2.8.so.0:_ZN10wxTextCtrl12SetSelectionEll
libwx_gtk2u_core-2.8.so.0:_ZN10wxTextCtrl12ShowPositionEl
libwx_gtk2u_core-2.8.so.0:_ZN10wxTextCtrl13OnUpdatePasteER15wxUpdateUIEvent
libwx_gtk2u_core-2.8.so.0:_ZN10wxTextCtrl14GTKSetEditableEv
libwx_gtk2u_core-2.8.so.0:_ZN10wxTextCtrl14GTKSetWrapModeEv
libwx_gtk2u_core-2.8.so.0:_ZN10wxTextCtrl14OnParentEnableEb
libwx_gtk2u_core-2.8.so.0:_ZN10wxTextCtrl14wxCreateObjectEv
libwx_gtk2u_core-2.8.so.0:_ZN10wxTextCtrl15OnUrlMouseEventER12wxMouseEvent
libwx_gtk2u_core-2.8.so.0:_ZN10wxTextCtrl16GTKSetVisibilityEv
libwx_gtk2u_core-2.8.so.0:_ZN10wxTextCtrl16GetConnectWidgetEv
libwx_gtk2u_core-2.8.so.0:_ZN10wxTextCtrl16IgnoreTextUpdateEv
libwx_gtk2u_core-2.8.so.0:_ZN10wxTextCtrl17MarkDirtyOnChangeEv
libwx_gtk2u_core-2.8.so.0:_ZN10wxTextCtrl17SetInsertionPointEl
libwx_gtk2u_core-2.8.so.0:_ZN10wxTextCtrl18ChangeFontGloballyEv
libwx_gtk2u_core-2.8.so.0:_ZN10wxTextCtrl18DoApplyWidgetStyleEP11_GtkRcStyle
libwx_gtk2u_core-2.8.so.0:_ZN10wxTextCtrl18SetWindowStyleFlagEl
libwx_gtk2u_core-2.8.so.0:_ZN10wxTextCtrl19GTKSetJustificationEv
libwx_gtk2u_core-2.8.so.0:_ZN10wxTextCtrl19SetBackgroundColourERK8wxColour
libwx_gtk2u_core-2.8.so.0:_ZN10wxTextCtrl19SetForegroundColourERK8wxColour
libwx_gtk2u_core-2.8.so.0:_ZN10wxTextCtrl20SetInsertionPointEndEv
libwx_gtk2u_core-2.8.so.0:_ZN10wxTextCtrl25GetClassDefaultAttributesE15wxWindowVariant
libwx_gtk2u_core-2.8.so.0:_ZN10wxTextCtrl3CutEv
libwx_gtk2u_core-2.8.so.0:_ZN10wxTextCtrl4CopyEv
libwx_gtk2u_core-2.8.so.0:_ZN10wxTextCtrl4InitEv
libwx_gtk2u_core-2.8.so.0:_ZN10wxTextCtrl4RedoEv
libwx_gtk2u_core-2.8.so.0:_ZN10wxTextCtrl4ThawEv
libwx_gtk2u_core-2.8.so.0:_ZN10wxTextCtrl4UndoEv
libwx_gtk2u_core-2.8.so.0:_ZN10wxTextCtrl5ClearEv
libwx_gtk2u_core-2.8.so.0:_ZN10wxTextCtrl5OnCutER14wxCommandEvent
libwx_gtk2u_core-2.8.so.0:_ZN10wxTextCtrl5PasteEv
libwx_gtk2u_core-2.8.so.0:_ZN10wxTextCtrl6CreateEP8wxWindowiRK8wxStringRK7wxPointRK6wxSizelRK11wxValidatorS4_
libwx_gtk2u_core-2.8.so.0:_ZN10wxTextCtrl6EnableEb
libwx_gtk2u_core-2.8.so.0:_ZN10wxTextCtrl6FreezeEv
libwx_gtk2u_core-2.8.so.0:_ZN10wxTextCtrl6OnCharER10wxKeyEvent
libwx_gtk2u_core-2.8.so.0:_ZN10wxTextCtrl6OnCopyER14wxCommandEvent
libwx_gtk2u_core-2.8.so.0:_ZN10wxTextCtrl6OnRedoER14wxCommandEvent
libwx_gtk2u_core-2.8.so.0:_ZN10wxTextCtrl6OnUndoER14wxCommandEvent
libwx_gtk2u_core-2.8.so.0:_ZN10wxTextCtrl6RemoveEll
libwx_gtk2u_core-2.8.so.0:_ZN10wxTextCtrl7OnPasteER14wxCommandEvent
libwx_gtk2u_core-2.8.so.0:_ZN10wxTextCtrl7ReplaceEllRK8wxString
libwx_gtk2u_core-2.8.so.0:_ZN10wxTextCtrl7SetFontERK6wxFont
libwx_gtk2u_core-2.8.so.0:_ZN10wxTextCtrl8SetStyleEllRK10wxTextAttr
libwx_gtk2u_core-2.8.so.0:_ZN10wxTextCtrl9MarkDirtyEv
libwx_gtk2u_core-2.8.so.0:_ZN10wxTextCtrl9WriteTextERK8wxString
libwx_gtk2u_core-2.8.so.0:_ZN10wxTextCtrlC1EP8wxWindowiRK8wxStringRK7wxPointRK6wxSizelRK11wxValidatorS4_
libwx_gtk2u_core-2.8.so.0:_ZN10wxTextCtrlC2EP8wxWindowiRK8wxStringRK7wxPointRK6wxSizelRK11wxValidatorS4_
libwx_gtk2u_core-2.8.so.0:_ZN10wxTextCtrlD0Ev
libwx_gtk2u_core-2.8.so.0:_ZN10wxTextCtrlD1Ev
libwx_gtk2u_core-2.8.so.0:_ZN10wxTextCtrlD2Ev
libwx_gtk2u_core-2.8.so.0:_ZN10wxToolbook10InsertPageEmP8wxWindowRK8wxStringbi
libwx_gtk2u_core-2.8.so.0:_ZN10wxToolbook11SetPageTextEmRK8wxString
libwx_gtk2u_core-2.8.so.0:_ZN10wxToolbook12DoRemovePageEm
libwx_gtk2u_core-2.8.so.0:_ZN10wxToolbook12SetImageListEP11wxImageList
libwx_gtk2u_core-2.8.so.0:_ZN10wxToolbook12SetPageImageEmi
libwx_gtk2u_core-2.8.so.0:_ZN10wxToolbook14DeleteAllPagesEv
libwx_gtk2u_core-2.8.so.0:_ZN10wxToolbook14OnToolSelectedER14wxCommandEvent
libwx_gtk2u_core-2.8.so.0:_ZN10wxToolbook14wxCreateObjectEv
libwx_gtk2u_core-2.8.so.0:_ZN10wxToolbook16MakeChangedEventER19wxBookCtrlBaseEvent
libwx_gtk2u_core-2.8.so.0:_ZN10wxToolbook18UpdateSelectedPageEm
libwx_gtk2u_core-2.8.so.0:_ZN10wxToolbook4InitEv
libwx_gtk2u_core-2.8.so.0:_ZN10wxToolbook6CreateEP8wxWindowiRK7wxPointRK6wxSizelRK8wxString
libwx_gtk2u_core-2.8.so.0:_ZN10wxToolbook6OnIdleER11wxIdleEvent
libwx_gtk2u_core-2.8.so.0:_ZN10wxToolbook6OnSizeER11wxSizeEvent
libwx_gtk2u_core-2.8.so.0:_ZN10wxToolbook7RealizeEv
libwx_gtk2u_core-2.8.so.0:_ZN10wxTreeCtrl14wxCreateObjectEv
libwx_gtk2u_core-2.8.so.0:_ZN10wxTreebook10AddSubPageEP8wxWindowRK8wxStringbi
libwx_gtk2u_core-2.8.so.0:_ZN10wxTreebook10DeletePageEm
libwx_gtk2u_core-2.8.so.0:_ZN10wxTreebook10ExpandNodeEmb
libwx_gtk2u_core-2.8.so.0:_ZN10wxTreebook10InsertPageEmP8wxWindowRK8wxStringbi
libwx_gtk2u_core-2.8.so.0:_ZN10wxTreebook11RemoveChildEP12wxWindowBase
libwx_gtk2u_core-2.8.so.0:_ZN10wxTreebook11SetPageTextEmRK8wxString
libwx_gtk2u_core-2.8.so.0:_ZN10wxTreebook12DoAddSubPageEP8wxWindowRK8wxStringbi
libwx_gtk2u_core-2.8.so.0:_ZN10wxTreebook12DoInsertPageEmP8wxWindowRK8wxStringbi
libwx_gtk2u_core-2.8.so.0:_ZN10wxTreebook12DoRemovePageEm
libwx_gtk2u_core-2.8.so.0:_ZN10wxTreebook12OnChildFocusER17wxChildFocusEvent
libwx_gtk2u_core-2.8.so.0:_ZN10wxTreebook12SetImageListEP11wxImageList
libwx_gtk2u_core-2.8.so.0:_ZN10wxTreebook12SetPageImageEmi
libwx_gtk2u_core-2.8.so.0:_ZN10wxTreebook13InsertSubPageEmP8wxWindowRK8wxStringbi
libwx_gtk2u_core-2.8.so.0:_ZN10wxTreebook14DeleteAllPagesEv
libwx_gtk2u_core-2.8.so.0:_ZN10wxTreebook14DoSetSelectionEmi
libwx_gtk2u_core-2.8.so.0:_ZN10wxTreebook14wxCreateObjectEv
libwx_gtk2u_core-2.8.so.0:_ZN10wxTreebook15AssignImageListEP11wxImageList
libwx_gtk2u_core-2.8.so.0:_ZN10wxTreebook15DoInsertSubPageEmP8wxWindowRK8wxStringbi
libwx_gtk2u_core-2.8.so.0:_ZN10wxTreebook15OnNavigationKeyER20wxNavigationKeyEvent
libwx_gtk2u_core-2.8.so.0:_ZN10wxTreebook17DoInternalAddPageEmP8wxWindow12wxTreeItemId
libwx_gtk2u_core-2.8.so.0:_ZN10wxTreebook17DoUpdateSelectionEbi
libwx_gtk2u_core-2.8.so.0:_ZN10wxTreebook21OnTreeSelectionChangeER11wxTreeEvent
libwx_gtk2u_core-2.8.so.0:_ZN10wxTreebook24SetFocusIgnoringChildrenEv
libwx_gtk2u_core-2.8.so.0:_ZN10wxTreebook25DoInternalRemovePageRangeEmm
libwx_gtk2u_core-2.8.so.0:_ZN10wxTreebook27OnTreeNodeExpandedCollapsedER11wxTreeEvent
libwx_gtk2u_core-2.8.so.0:_ZN10wxTreebook4InitEv
libwx_gtk2u_core-2.8.so.0:_ZN10wxTreebook6CreateEP8wxWindowiRK7wxPointRK6wxSizelRK8wxString
libwx_gtk2u_core-2.8.so.0:_ZN10wxTreebook7AddPageEP8wxWindowRK8wxStringbi
libwx_gtk2u_core-2.8.so.0:_ZN10wxTreebook7OnFocusER12wxFocusEvent
libwx_gtk2u_core-2.8.so.0:_ZN10wxTreebook8SetFocusEv
libwx_gtk2u_core-2.8.so.0:_ZN10wxVListBox10OnLeftDownER12wxMouseEvent
libwx_gtk2u_core-2.8.so.0:_ZN10wxVListBox10SetMarginsERK7wxPoint
libwx_gtk2u_core-2.8.so.0:_ZN10wxVListBox11DoSelectAllEb
libwx_gtk2u_core-2.8.so.0:_ZN10wxVListBox11SelectRangeEmm
libwx_gtk2u_core-2.8.so.0:_ZN10wxVListBox12DoSetCurrentEi
libwx_gtk2u_core-2.8.so.0:_ZN10wxVListBox12OnLeftDClickER12wxMouseEvent
libwx_gtk2u_core-2.8.so.0:_ZN10wxVListBox12SetItemCountEm
libwx_gtk2u_core-2.8.so.0:_ZN10wxVListBox12SetSelectionEi
libwx_gtk2u_core-2.8.so.0:_ZN10wxVListBox17DoHandleItemClickEii
libwx_gtk2u_core-2.8.so.0:_ZN10wxVListBox17SendSelectedEventEv
libwx_gtk2u_core-2.8.so.0:_ZN10wxVListBox22SetSelectionBackgroundERK8wxColour
libwx_gtk2u_core-2.8.so.0:_ZN10wxVListBox25GetClassDefaultAttributesE15wxWindowVariant
libwx_gtk2u_core-2.8.so.0:_ZN10wxVListBox4InitEv
libwx_gtk2u_core-2.8.so.0:_ZN10wxVListBox6CreateEP8wxWindowiRK7wxPointRK6wxSizelRK8wxString
libwx_gtk2u_core-2.8.so.0:_ZN10wxVListBox6SelectEmb
libwx_gtk2u_core-2.8.so.0:_ZN10wxVListBox7OnPaintER12wxPaintEvent
libwx_gtk2u_core-2.8.so.0:_ZN10wxVListBox9OnKeyDownER10wxKeyEvent
libwx_gtk2u_core-2.8.so.0:_ZN10wxVListBoxD0Ev
libwx_gtk2u_core-2.8.so.0:_ZN10wxVListBoxD1Ev
libwx_gtk2u_core-2.8.so.0:_ZN10wxVListBoxD2Ev
libwx_gtk2u_core-2.8.so.0:_ZN10wxWindowDC10DoDrawIconERK6wxIconii
libwx_gtk2u_core-2.8.so.0:_ZN10wxWindowDC10DoDrawLineEiiii
libwx_gtk2u_core-2.8.so.0:_ZN10wxWindowDC10DoDrawTextERK8wxStringii
libwx_gtk2u_core-2.8.so.0:_ZN10wxWindowDC10SetPaletteERK9wxPalette
libwx_gtk2u_core-2.8.so.0:_ZN10wxWindowDC11DoCrossHairEii
libwx_gtk2u_core-2.8.so.0:_ZN10wxWindowDC11DoDrawLinesEiP7wxPointii
libwx_gtk2u_core-2.8.so.0:_ZN10wxWindowDC11DoDrawPointEii
libwx_gtk2u_core-2.8.so.0:_ZN10wxWindowDC11DoFloodFillEiiRK8wxColouri
libwx_gtk2u_core-2.8.so.0:_ZN10wxWindowDC12DoDrawBitmapERK8wxBitmapiib
libwx_gtk2u_core-2.8.so.0:_ZN10wxWindowDC13DoDrawEllipseEiiii
libwx_gtk2u_core-2.8.so.0:_ZN10wxWindowDC13DoDrawPolygonEiP7wxPointiii
libwx_gtk2u_core-2.8.so.0:_ZN10wxWindowDC13SetBackgroundERK7wxBrush
libwx_gtk2u_core-2.8.so.0:_ZN10wxWindowDC14wxCreateObjectEv
libwx_gtk2u_core-2.8.so.0:_ZN10wxWindowDC15DoDrawRectangleEiiii
libwx_gtk2u_core-2.8.so.0:_ZN10wxWindowDC15SetDeviceOriginEii
libwx_gtk2u_core-2.8.so.0:_ZN10wxWindowDC17DoDrawEllipticArcEiiiidd
libwx_gtk2u_core-2.8.so.0:_ZN10wxWindowDC17DoDrawRotatedTextERK8wxStringiid
libwx_gtk2u_core-2.8.so.0:_ZN10wxWindowDC17SetBackgroundModeEi
libwx_gtk2u_core-2.8.so.0:_ZN10wxWindowDC17SetTextBackgroundERK8wxColour
libwx_gtk2u_core-2.8.so.0:_ZN10wxWindowDC17SetTextForegroundERK8wxColour
libwx_gtk2u_core-2.8.so.0:_ZN10wxWindowDC18SetAxisOrientationEbb
libwx_gtk2u_core-2.8.so.0:_ZN10wxWindowDC18SetLogicalFunctionEi
libwx_gtk2u_core-2.8.so.0:_ZN10wxWindowDC19DoSetClippingRegionEiiii
libwx_gtk2u_core-2.8.so.0:_ZN10wxWindowDC21ComputeScaleAndOriginEv
libwx_gtk2u_core-2.8.so.0:_ZN10wxWindowDC21DestroyClippingRegionEv
libwx_gtk2u_core-2.8.so.0:_ZN10wxWindowDC22DoDrawRoundedRectangleEiiiid
libwx_gtk2u_core-2.8.so.0:_ZN10wxWindowDC27DoSetClippingRegionAsRegionERK8wxRegion
libwx_gtk2u_core-2.8.so.0:_ZN10wxWindowDC5ClearEv
libwx_gtk2u_core-2.8.so.0:_ZN10wxWindowDC6DoBlitEiiiiP4wxDCiiibii
libwx_gtk2u_core-2.8.so.0:_ZN10wxWindowDC6SetPenERK5wxPen
libwx_gtk2u_core-2.8.so.0:_ZN10wxWindowDC7DestroyEv
libwx_gtk2u_core-2.8.so.0:_ZN10wxWindowDC7SetFontERK6wxFont
libwx_gtk2u_core-2.8.so.0:_ZN10wxWindowDC7SetUpDCEv
libwx_gtk2u_core-2.8.so.0:_ZN10wxWindowDC8SetBrushERK7wxBrush
libwx_gtk2u_core-2.8.so.0:_ZN10wxWindowDC9DoDrawArcEiiiiii
libwx_gtk2u_core-2.8.so.0:_ZN10wxWindowDCC1EP8wxWindow
libwx_gtk2u_core-2.8.so.0:_ZN10wxWindowDCC1Ev
libwx_gtk2u_core-2.8.so.0:_ZN10wxWindowDCC2EP8wxWindow
libwx_gtk2u_core-2.8.so.0:_ZN10wxWindowDCC2Ev
libwx_gtk2u_core-2.8.so.0:_ZN10wxWindowDCD0Ev
libwx_gtk2u_core-2.8.so.0:_ZN10wxWindowDCD1Ev
libwx_gtk2u_core-2.8.so.0:_ZN10wxWindowDCD2Ev
libwx_gtk2u_core-2.8.so.0:_ZN11wxBrushList11RemoveBrushEP7wxBrush
libwx_gtk2u_core-2.8.so.0:_ZN11wxBrushList17FindOrCreateBrushERK8wxColouri
libwx_gtk2u_core-2.8.so.0:_ZN11wxBrushList8AddBrushEP7wxBrush
libwx_gtk2u_core-2.8.so.0:_ZN11wxCaretBase12GetBlinkTimeEv
libwx_gtk2u_core-2.8.so.0:_ZN11wxCaretBase12SetBlinkTimeEi
libwx_gtk2u_core-2.8.so.0:_ZN11wxClipboard11IsSupportedERK12wxDataFormat
libwx_gtk2u_core-2.8.so.0:_ZN11wxClipboard14wxCreateObjectEv
libwx_gtk2u_core-2.8.so.0:_ZN11wxClipboard4OpenEv
libwx_gtk2u_core-2.8.so.0:_ZN11wxClipboard5ClearEv
libwx_gtk2u_core-2.8.so.0:_ZN11wxClipboard5CloseEv
libwx_gtk2u_core-2.8.so.0:_ZN11wxClipboard7AddDataEP12wxDataObject
libwx_gtk2u_core-2.8.so.0:_ZN11wxClipboard7GetDataER12wxDataObject
libwx_gtk2u_core-2.8.so.0:_ZN11wxClipboard7SetDataEP12wxDataObject
libwx_gtk2u_core-2.8.so.0:_ZN11wxClipboardC1Ev
libwx_gtk2u_core-2.8.so.0:_ZN11wxClipboardC2Ev
libwx_gtk2u_core-2.8.so.0:_ZN11wxClipboardD0Ev
libwx_gtk2u_core-2.8.so.0:_ZN11wxClipboardD1Ev
libwx_gtk2u_core-2.8.so.0:_ZN11wxClipboardD2Ev
libwx_gtk2u_core-2.8.so.0:_ZN11wxComboCtrl14wxCreateObjectEv
libwx_gtk2u_core-2.8.so.0:_ZN11wxDCOverlay4InitEP10wxWindowDCiiii
libwx_gtk2u_core-2.8.so.0:_ZN11wxDCOverlay5ClearEv
libwx_gtk2u_core-2.8.so.0:_ZN11wxDCOverlayC1ER9wxOverlayP10wxWindowDC
libwx_gtk2u_core-2.8.so.0:_ZN11wxDCOverlayC1ER9wxOverlayP10wxWindowDCiiii
libwx_gtk2u_core-2.8.so.0:_ZN11wxDCOverlayC2ER9wxOverlayP10wxWindowDC
libwx_gtk2u_core-2.8.so.0:_ZN11wxDCOverlayC2ER9wxOverlayP10wxWindowDCiiii
libwx_gtk2u_core-2.8.so.0:_ZN11wxDCOverlayD0Ev
libwx_gtk2u_core-2.8.so.0:_ZN11wxDCOverlayD1Ev
libwx_gtk2u_core-2.8.so.0:_ZN11wxDCOverlayD2Ev
libwx_gtk2u_core-2.8.so.0:_ZN11wxDirButton14wxCreateObjectEv
libwx_gtk2u_core-2.8.so.0:_ZN11wxDirButton6CreateEP8wxWindowiRK8wxStringS4_S4_S4_RK7wxPointRK6wxSizelRK11wxValidatorS4_
libwx_gtk2u_core-2.8.so.0:_ZN11wxDirButton7SetPathERK8wxString
libwx_gtk2u_core-2.8.so.0:_ZN11wxDirButtonD0Ev
libwx_gtk2u_core-2.8.so.0:_ZN11wxDirButtonD1Ev
libwx_gtk2u_core-2.8.so.0:_ZN11wxDirButtonD2Ev
libwx_gtk2u_core-2.8.so.0:_ZN11wxDirDialog14wxCreateObjectEv
libwx_gtk2u_core-2.8.so.0:_ZN11wxDirDialog4ShowEb
libwx_gtk2u_core-2.8.so.0:_ZN11wxDirDialog7SetPathERK8wxString
libwx_gtk2u_core-2.8.so.0:_ZN11wxDirDialog8OnFakeOkER14wxCommandEvent
libwx_gtk2u_core-2.8.so.0:_ZN11wxDirDialog9DoSetSizeEiiiii
libwx_gtk2u_core-2.8.so.0:_ZN11wxDirDialog9ShowModalEv
libwx_gtk2u_core-2.8.so.0:_ZN11wxDirDialogC1EP8wxWindowRK8wxStringS4_lRK7wxPointRK6wxSizeS4_
libwx_gtk2u_core-2.8.so.0:_ZN11wxDirDialogC2EP8wxWindowRK8wxStringS4_lRK7wxPointRK6wxSizeS4_
libwx_gtk2u_core-2.8.so.0:_ZN11wxEventLoop3RunEv
libwx_gtk2u_core-2.8.so.0:_ZN11wxEventLoop4ExitEi
libwx_gtk2u_core-2.8.so.0:_ZN11wxEventLoop8DispatchEv
libwx_gtk2u_core-2.8.so.0:_ZN11wxEventLoopD0Ev
libwx_gtk2u_core-2.8.so.0:_ZN11wxEventLoopD1Ev
libwx_gtk2u_core-2.8.so.0:_ZN11wxEventLoopD2Ev
libwx_gtk2u_core-2.8.so.0:_ZN11wxFrameBase10DoGiveHelpERK8wxStringb
libwx_gtk2u_core-2.8.so.0:_ZN11wxFrameBase10OnMenuOpenER11wxMenuEvent
libwx_gtk2u_core-2.8.so.0:_ZN11wxFrameBase10SetMenuBarEP9wxMenuBar
libwx_gtk2u_core-2.8.so.0:_ZN11wxFrameBase10SetToolBarEP9wxToolBar
libwx_gtk2u_core-2.8.so.0:_ZN11wxFrameBase11OnMenuCloseER11wxMenuEvent
libwx_gtk2u_core-2.8.so.0:_ZN11wxFrameBase12SetStatusBarEP11wxStatusBar
libwx_gtk2u_core-2.8.so.0:_ZN11wxFrameBase12ShowMenuHelpEP11wxStatusBari
libwx_gtk2u_core-2.8.so.0:_ZN11wxFrameBase13AttachMenuBarEP9wxMenuBar
libwx_gtk2u_core-2.8.so.0:_ZN11wxFrameBase13CreateToolBarEliRK8wxString
libwx_gtk2u_core-2.8.so.0:_ZN11wxFrameBase13DeleteAllBarsEv
libwx_gtk2u_core-2.8.so.0:_ZN11wxFrameBase13DetachMenuBarEv
libwx_gtk2u_core-2.8.so.0:_ZN11wxFrameBase13DoMenuUpdatesEP6wxMenu
libwx_gtk2u_core-2.8.so.0:_ZN11wxFrameBase13PopStatusTextEi
libwx_gtk2u_core-2.8.so.0:_ZN11wxFrameBase13SendSizeEventEv
libwx_gtk2u_core-2.8.so.0:_ZN11wxFrameBase13SetStatusTextERK8wxStringi
libwx_gtk2u_core-2.8.so.0:_ZN11wxFrameBase14OnInternalIdleEv
libwx_gtk2u_core-2.8.so.0:_ZN11wxFrameBase14ProcessCommandEi
libwx_gtk2u_core-2.8.so.0:_ZN11wxFrameBase14PushStatusTextERK8wxStringi
libwx_gtk2u_core-2.8.so.0:_ZN11wxFrameBase14UpdateWindowUIEl
libwx_gtk2u_core-2.8.so.0:_ZN11wxFrameBase15CreateStatusBarEiliRK8wxString
libwx_gtk2u_core-2.8.so.0:_ZN11wxFrameBase15OnCreateToolBarEliRK8wxString
libwx_gtk2u_core-2.8.so.0:_ZN11wxFrameBase15OnMenuHighlightER11wxMenuEvent
libwx_gtk2u_core-2.8.so.0:_ZN11wxFrameBase15SetStatusWidthsEiPKi
libwx_gtk2u_core-2.8.so.0:_ZN11wxFrameBase17OnCreateStatusBarEiliRK8wxString
libwx_gtk2u_core-2.8.so.0:_ZN11wxFrameBase3NewEP8wxWindowiRK8wxStringRK7wxPointRK6wxSizelS4_
libwx_gtk2u_core-2.8.so.0:_ZN11wxFrameBaseC1Ev
libwx_gtk2u_core-2.8.so.0:_ZN11wxFrameBaseC2Ev
libwx_gtk2u_core-2.8.so.0:_ZN11wxFrameBaseD0Ev
libwx_gtk2u_core-2.8.so.0:_ZN11wxFrameBaseD1Ev
libwx_gtk2u_core-2.8.so.0:_ZN11wxFrameBaseD2Ev
libwx_gtk2u_core-2.8.so.0:_ZN11wxGDIObject14wxCreateObjectEv
libwx_gtk2u_core-2.8.so.0:_ZN11wxGaugeBase12SetBezelFaceEi
libwx_gtk2u_core-2.8.so.0:_ZN11wxGaugeBase14SetShadowWidthEi
libwx_gtk2u_core-2.8.so.0:_ZN11wxGaugeBase5PulseEv
libwx_gtk2u_core-2.8.so.0:_ZN11wxGaugeBase6CreateEP8wxWindowiiRK7wxPointRK6wxSizelRK11wxValidatorRK8wxString
libwx_gtk2u_core-2.8.so.0:_ZN11wxGaugeBase8SetRangeEi
libwx_gtk2u_core-2.8.so.0:_ZN11wxGaugeBase8SetValueEi
libwx_gtk2u_core-2.8.so.0:_ZN11wxGaugeBaseD0Ev
libwx_gtk2u_core-2.8.so.0:_ZN11wxGaugeBaseD1Ev
libwx_gtk2u_core-2.8.so.0:_ZN11wxGaugeBaseD2Ev
libwx_gtk2u_core-2.8.so.0:_ZN11wxGridSizer11RecalcSizesEv
libwx_gtk2u_core-2.8.so.0:_ZN11wxGridSizer13SetItemBoundsEP11wxSizerItemiiii
libwx_gtk2u_core-2.8.so.0:_ZN11wxGridSizer7CalcMinEv
libwx_gtk2u_core-2.8.so.0:_ZN11wxGridSizerC1Eiii
libwx_gtk2u_core-2.8.so.0:_ZN11wxGridSizerC1Eiiii
libwx_gtk2u_core-2.8.so.0:_ZN11wxGridSizerC2Eiii
libwx_gtk2u_core-2.8.so.0:_ZN11wxGridSizerC2Eiiii
libwx_gtk2u_core-2.8.so.0:_ZN11wxHelpEvent11GuessOriginENS_6OriginE
libwx_gtk2u_core-2.8.so.0:_ZN11wxHelpEvent14wxCreateObjectEv
libwx_gtk2u_core-2.8.so.0:_ZN11wxIconArray3AddERK6wxIconm
libwx_gtk2u_core-2.8.so.0:_ZN11wxIconArray6DoCopyERKS_
libwx_gtk2u_core-2.8.so.0:_ZN11wxIconArray6InsertERK6wxIconmm
libwx_gtk2u_core-2.8.so.0:_ZN11wxIconArray7DoEmptyEv
libwx_gtk2u_core-2.8.so.0:_ZN11wxIconArray8RemoveAtEmm
libwx_gtk2u_core-2.8.so.0:_ZN11wxIconArrayC1ERKS_
libwx_gtk2u_core-2.8.so.0:_ZN11wxIconArrayC2ERKS_
libwx_gtk2u_core-2.8.so.0:_ZN11wxIconArrayD1Ev
libwx_gtk2u_core-2.8.so.0:_ZN11wxIconArrayD2Ev
libwx_gtk2u_core-2.8.so.0:_ZN11wxIconArrayaSERKS_
libwx_gtk2u_core-2.8.so.0:_ZN11wxIdleEvent14wxCreateObjectEv
libwx_gtk2u_core-2.8.so.0:_ZN11wxIdleEvent7CanSendEP8wxWindow
libwx_gtk2u_core-2.8.so.0:_ZN11wxImageList14wxCreateObjectEv
libwx_gtk2u_core-2.8.so.0:_ZN11wxInfoFrameC1EP8wxWindowRK8wxString
libwx_gtk2u_core-2.8.so.0:_ZN11wxInfoFrameC2EP8wxWindowRK8wxString
libwx_gtk2u_core-2.8.so.0:_ZN11wxListEvent14wxCreateObjectEv
libwx_gtk2u_core-2.8.so.0:_ZN11wxLogDialog12OnListSelectER11wxListEvent
libwx_gtk2u_core-2.8.so.0:_ZN11wxLogDialog21CreateDetailsControlsEv
libwx_gtk2u_core-2.8.so.0:_ZN11wxLogDialog4OnOkER14wxCommandEvent
libwx_gtk2u_core-2.8.so.0:_ZN11wxLogDialog6OnSaveER14wxCommandEvent
libwx_gtk2u_core-2.8.so.0:_ZN11wxLogDialog9OnDetailsER14wxCommandEvent
libwx_gtk2u_core-2.8.so.0:_ZN11wxLogDialogC1EP8wxWindowRK13wxArrayStringRK10wxArrayIntRK11wxArrayLongRK8wxStringl
libwx_gtk2u_core-2.8.so.0:_ZN11wxLogDialogC2EP8wxWindowRK13wxArrayStringRK10wxArrayIntRK11wxArrayLongRK8wxStringl
libwx_gtk2u_core-2.8.so.0:_ZN11wxLogDialogD0Ev
libwx_gtk2u_core-2.8.so.0:_ZN11wxLogDialogD1Ev
libwx_gtk2u_core-2.8.so.0:_ZN11wxLogDialogD2Ev
libwx_gtk2u_core-2.8.so.0:_ZN11wxLogWindow11DoLogStringEPKwl
libwx_gtk2u_core-2.8.so.0:_ZN11wxLogWindow12OnFrameCloseEP7wxFrame
libwx_gtk2u_core-2.8.so.0:_ZN11wxLogWindow13OnFrameCreateEP7wxFrame
libwx_gtk2u_core-2.8.so.0:_ZN11wxLogWindow13OnFrameDeleteEP7wxFrame
libwx_gtk2u_core-2.8.so.0:_ZN11wxLogWindow4ShowEb
libwx_gtk2u_core-2.8.so.0:_ZN11wxLogWindow5DoLogEmPKwl
libwx_gtk2u_core-2.8.so.0:_ZN11wxLogWindowC1EP8wxWindowPKwbb
libwx_gtk2u_core-2.8.so.0:_ZN11wxLogWindowC2EP8wxWindowPKwbb
libwx_gtk2u_core-2.8.so.0:_ZN11wxLogWindowD0Ev
libwx_gtk2u_core-2.8.so.0:_ZN11wxLogWindowD1Ev
libwx_gtk2u_core-2.8.so.0:_ZN11wxLogWindowD2Ev
libwx_gtk2u_core-2.8.so.0:_ZN11wxMenuEvent14wxCreateObjectEv
libwx_gtk2u_core-2.8.so.0:_ZN11wxMiniFrame14wxCreateObjectEv
libwx_gtk2u_core-2.8.so.0:_ZN11wxMiniFrame6CreateEP8wxWindowiRK8wxStringRK7wxPointRK6wxSizelS4_
libwx_gtk2u_core-2.8.so.0:_ZN11wxMiniFrame8SetTitleERK8wxString
libwx_gtk2u_core-2.8.so.0:_ZN11wxMoveEvent14wxCreateObjectEv
libwx_gtk2u_core-2.8.so.0:_ZN11wxPrintData11SetPrivDataEPci
libwx_gtk2u_core-2.8.so.0:_ZN11wxPrintData14wxCreateObjectEv
libwx_gtk2u_core-2.8.so.0:_ZN11wxPrintData15ConvertToNativeEv
libwx_gtk2u_core-2.8.so.0:_ZN11wxPrintData17ConvertFromNativeEv
libwx_gtk2u_core-2.8.so.0:_ZN11wxPrintDataC1ERKS_
libwx_gtk2u_core-2.8.so.0:_ZN11wxPrintDataC1Ev
libwx_gtk2u_core-2.8.so.0:_ZN11wxPrintDataC2ERKS_
libwx_gtk2u_core-2.8.so.0:_ZN11wxPrintDataC2Ev
libwx_gtk2u_core-2.8.so.0:_ZN11wxPrintDataD0Ev
libwx_gtk2u_core-2.8.so.0:_ZN11wxPrintDataD1Ev
libwx_gtk2u_core-2.8.so.0:_ZN11wxPrintDataD2Ev
libwx_gtk2u_core-2.8.so.0:_ZN11wxPrintDataaSERKS_
libwx_gtk2u_core-2.8.so.0:_ZN11wxRect2DInt11ConstrainToERKS_
libwx_gtk2u_core-2.8.so.0:_ZN11wxRect2DInt5UnionERK12wxPoint2DInt
libwx_gtk2u_core-2.8.so.0:_ZN11wxRect2DInt5UnionERKS_S1_PS_
libwx_gtk2u_core-2.8.so.0:_ZN11wxRect2DInt8ReadFromER17wxDataInputStream
libwx_gtk2u_core-2.8.so.0:_ZN11wxRect2DInt9IntersectERKS_S1_PS_
libwx_gtk2u_core-2.8.so.0:_ZN11wxRect2DIntaSERKS_
libwx_gtk2u_core-2.8.so.0:_ZN11wxScrollBar11SetPageSizeEi
libwx_gtk2u_core-2.8.so.0:_ZN11wxScrollBar12SetScrollbarEiiiib
libwx_gtk2u_core-2.8.so.0:_ZN11wxScrollBar14wxCreateObjectEv
libwx_gtk2u_core-2.8.so.0:_ZN11wxScrollBar16SetThumbPositionEi
libwx_gtk2u_core-2.8.so.0:_ZN11wxScrollBar25GetClassDefaultAttributesE15wxWindowVariant
libwx_gtk2u_core-2.8.so.0:_ZN11wxScrollBar6CreateEP8wxWindowiRK7wxPointRK6wxSizelRK11wxValidatorRK8wxString
libwx_gtk2u_core-2.8.so.0:_ZN11wxScrollBar8SetRangeEi
libwx_gtk2u_core-2.8.so.0:_ZN11wxScrollBarC1Ev
libwx_gtk2u_core-2.8.so.0:_ZN11wxScrollBarC2Ev
libwx_gtk2u_core-2.8.so.0:_ZN11wxScrollBarD0Ev
libwx_gtk2u_core-2.8.so.0:_ZN11wxScrollBarD1Ev
libwx_gtk2u_core-2.8.so.0:_ZN11wxScrollBarD2Ev
libwx_gtk2u_core-2.8.so.0:_ZN11wxShowEvent14wxCreateObjectEv
libwx_gtk2u_core-2.8.so.0:_ZN11wxSizeEvent14wxCreateObjectEv
libwx_gtk2u_core-2.8.so.0:_ZN11wxSizerItem12SetDimensionERK7wxPointRK6wxSize
libwx_gtk2u_core-2.8.so.0:_ZN11wxSizerItem13DeleteWindowsEv
libwx_gtk2u_core-2.8.so.0:_ZN11wxSizerItem4InitERK12wxSizerFlags
libwx_gtk2u_core-2.8.so.0:_ZN11wxSizerItem4ShowEb
libwx_gtk2u_core-2.8.so.0:_ZN11wxSizerItem7CalcMinEv
libwx_gtk2u_core-2.8.so.0:_ZN11wxSizerItem8SetSizerEP7wxSizer
libwx_gtk2u_core-2.8.so.0:_ZN11wxSizerItem9SetOptionEi
libwx_gtk2u_core-2.8.so.0:_ZN11wxSizerItem9SetSpacerERK6wxSize
libwx_gtk2u_core-2.8.so.0:_ZN11wxSizerItem9SetWindowEP8wxWindow
libwx_gtk2u_core-2.8.so.0:_ZN11wxSizerItemC1EP7wxSizeriiiP8wxObject
libwx_gtk2u_core-2.8.so.0:_ZN11wxSizerItemC1EP8wxWindowiiiP8wxObject
libwx_gtk2u_core-2.8.so.0:_ZN11wxSizerItemC1EiiiiiP8wxObject
libwx_gtk2u_core-2.8.so.0:_ZN11wxSizerItemC1Ev
libwx_gtk2u_core-2.8.so.0:_ZN11wxSizerItemC2EP7wxSizeriiiP8wxObject
libwx_gtk2u_core-2.8.so.0:_ZN11wxSizerItemC2EP8wxWindowiiiP8wxObject
libwx_gtk2u_core-2.8.so.0:_ZN11wxSizerItemC2EiiiiiP8wxObject
libwx_gtk2u_core-2.8.so.0:_ZN11wxSizerItemC2Ev
libwx_gtk2u_core-2.8.so.0:_ZN11wxSizerItemD0Ev
libwx_gtk2u_core-2.8.so.0:_ZN11wxSizerItemD1Ev
libwx_gtk2u_core-2.8.so.0:_ZN11wxSizerItemD2Ev
libwx_gtk2u_core-2.8.so.0:_ZN11wxSpinEvent14wxCreateObjectEv
libwx_gtk2u_core-2.8.so.0:_ZN11wxStaticBox14wxCreateObjectEv
libwx_gtk2u_core-2.8.so.0:_ZN11wxStaticBox18DoApplyWidgetStyleEP11_GtkRcStyle
libwx_gtk2u_core-2.8.so.0:_ZN11wxStaticBox22GTKWidgetDoSetMnemonicEP10_GtkWidget
libwx_gtk2u_core-2.8.so.0:_ZN11wxStaticBox25GetClassDefaultAttributesE15wxWindowVariant
libwx_gtk2u_core-2.8.so.0:_ZN11wxStaticBox6CreateEP8wxWindowiRK8wxStringRK7wxPointRK6wxSizelS4_
libwx_gtk2u_core-2.8.so.0:_ZN11wxStaticBox8SetLabelERK8wxString
libwx_gtk2u_core-2.8.so.0:_ZN11wxStaticBoxC1EP8wxWindowiRK8wxStringRK7wxPointRK6wxSizelS4_
libwx_gtk2u_core-2.8.so.0:_ZN11wxStaticBoxC1Ev
libwx_gtk2u_core-2.8.so.0:_ZN11wxStaticBoxC2EP8wxWindowiRK8wxStringRK7wxPointRK6wxSizelS4_
libwx_gtk2u_core-2.8.so.0:_ZN11wxStaticBoxC2Ev
libwx_gtk2u_core-2.8.so.0:_ZN11wxStatusBar10OnLeftDownER12wxMouseEvent
libwx_gtk2u_core-2.8.so.0:_ZN11wxStatusBar11InitColoursEv
libwx_gtk2u_core-2.8.so.0:_ZN11wxStatusBar11OnRightDownER12wxMouseEvent
libwx_gtk2u_core-2.8.so.0:_ZN11wxStatusBar12SetMinHeightEi
libwx_gtk2u_core-2.8.so.0:_ZN11wxStatusBar13DrawFieldTextER4wxDCi
libwx_gtk2u_core-2.8.so.0:_ZN11wxStatusBar13SetStatusTextERK8wxStringi
libwx_gtk2u_core-2.8.so.0:_ZN11wxStatusBar14SetFieldsCountEiPKi
libwx_gtk2u_core-2.8.so.0:_ZN11wxStatusBar14wxCreateObjectEv
libwx_gtk2u_core-2.8.so.0:_ZN11wxStatusBar15SetStatusWidthsEiPKi
libwx_gtk2u_core-2.8.so.0:_ZN11wxStatusBar18OnSysColourChangedER23wxSysColourChangedEvent
libwx_gtk2u_core-2.8.so.0:_ZN11wxStatusBar4InitEv
libwx_gtk2u_core-2.8.so.0:_ZN11wxStatusBar6CreateEP8wxWindowilRK8wxString
libwx_gtk2u_core-2.8.so.0:_ZN11wxStatusBar7OnPaintER12wxPaintEvent
libwx_gtk2u_core-2.8.so.0:_ZN11wxStatusBar9DrawFieldER4wxDCi
libwx_gtk2u_core-2.8.so.0:_ZN11wxStatusBarD0Ev
libwx_gtk2u_core-2.8.so.0:_ZN11wxStatusBarD1Ev
libwx_gtk2u_core-2.8.so.0:_ZN11wxStatusBarD2Ev
libwx_gtk2u_core-2.8.so.0:_ZN11wxTimerBase5StartEib
libwx_gtk2u_core-2.8.so.0:_ZN11wxTimerBase6NotifyEv
libwx_gtk2u_core-2.8.so.0:_ZN11wxTimerBaseD0Ev
libwx_gtk2u_core-2.8.so.0:_ZN11wxTimerBaseD1Ev
libwx_gtk2u_core-2.8.so.0:_ZN11wxTimerBaseD2Ev
libwx_gtk2u_core-2.8.so.0:_ZN11wxTipWindow12OnMouseClickER12wxMouseEvent
libwx_gtk2u_core-2.8.so.0:_ZN11wxTipWindow15SetBoundingRectERK6wxRect
libwx_gtk2u_core-2.8.so.0:_ZN11wxTipWindow5CloseEv
libwx_gtk2u_core-2.8.so.0:_ZN11wxTipWindow9OnDismissEv
libwx_gtk2u_core-2.8.so.0:_ZN11wxTipWindowC1EP8wxWindowRK8wxStringiPPS_P6wxRect
libwx_gtk2u_core-2.8.so.0:_ZN11wxTipWindowC2EP8wxWindowRK8wxStringiPPS_P6wxRect
libwx_gtk2u_core-2.8.so.0:_ZN11wxTipWindowD0Ev
libwx_gtk2u_core-2.8.so.0:_ZN11wxTipWindowD1Ev
libwx_gtk2u_core-2.8.so.0:_ZN11wxTipWindowD2Ev
libwx_gtk2u_core-2.8.so.0:_ZN11wxTreeEventC1ERKS_
libwx_gtk2u_core-2.8.so.0:_ZN11wxTreeEventC1EiP14wxTreeCtrlBaseRK12wxTreeItemId
libwx_gtk2u_core-2.8.so.0:_ZN11wxTreeEventC1Eii
libwx_gtk2u_core-2.8.so.0:_ZN11wxTreeEventC2ERKS_
libwx_gtk2u_core-2.8.so.0:_ZN11wxTreeEventC2EiP14wxTreeCtrlBaseRK12wxTreeItemId
libwx_gtk2u_core-2.8.so.0:_ZN11wxTreeEventC2Eii
libwx_gtk2u_core-2.8.so.0:_ZN11wxValidator14wxCreateObjectEv
libwx_gtk2u_core-2.8.so.0:_ZN11wxValidatorC1Ev
libwx_gtk2u_core-2.8.so.0:_ZN11wxValidatorC2Ev
libwx_gtk2u_core-2.8.so.0:_ZN11wxValidatorD0Ev
libwx_gtk2u_core-2.8.so.0:_ZN11wxValidatorD1Ev
libwx_gtk2u_core-2.8.so.0:_ZN11wxValidatorD2Ev
libwx_gtk2u_core-2.8.so.0:_ZN12wxANIDecoder4LoadER13wxInputStream
libwx_gtk2u_core-2.8.so.0:_ZN12wxANIDecoderC1Ev
libwx_gtk2u_core-2.8.so.0:_ZN12wxANIDecoderC2Ev
libwx_gtk2u_core-2.8.so.0:_ZN12wxANIDecoderD0Ev
libwx_gtk2u_core-2.8.so.0:_ZN12wxANIDecoderD1Ev
libwx_gtk2u_core-2.8.so.0:_ZN12wxANIDecoderD2Ev
libwx_gtk2u_core-2.8.so.0:_ZN12wxANIHandler13GetImageCountER13wxInputStream
libwx_gtk2u_core-2.8.so.0:_ZN12wxANIHandler14wxCreateObjectEv
libwx_gtk2u_core-2.8.so.0:_ZN12wxANIHandler8LoadFileEP7wxImageR13wxInputStreambi
libwx_gtk2u_core-2.8.so.0:_ZN12wxANIHandler9DoCanReadER13wxInputStream
libwx_gtk2u_core-2.8.so.0:_ZN12wxBMPHandler14wxCreateObjectEv
libwx_gtk2u_core-2.8.so.0:_ZN12wxBMPHandler7LoadDibEP7wxImageR13wxInputStreambb
libwx_gtk2u_core-2.8.so.0:_ZN12wxBMPHandler7SaveDibEP7wxImageR14wxOutputStreambbb
libwx_gtk2u_core-2.8.so.0:_ZN12wxBMPHandler8LoadFileEP7wxImageR13wxInputStreambi
libwx_gtk2u_core-2.8.so.0:_ZN12wxBMPHandler8SaveFileEP7wxImageR14wxOutputStreamb
libwx_gtk2u_core-2.8.so.0:_ZN12wxBMPHandler9DoCanReadER13wxInputStream
libwx_gtk2u_core-2.8.so.0:_ZN12wxBMPHandler9DoLoadDibEP7wxImageiiiiilR13wxInputStreambbb
libwx_gtk2u_core-2.8.so.0:_ZN12wxBitmapBase10AddHandlerEP19wxBitmapHandlerBase
libwx_gtk2u_core-2.8.so.0:_ZN12wxBitmapBase11FindHandlerE12wxBitmapType
libwx_gtk2u_core-2.8.so.0:_ZN12wxBitmapBase11FindHandlerERK8wxString
libwx_gtk2u_core-2.8.so.0:_ZN12wxBitmapBase11FindHandlerERK8wxString12wxBitmapType
libwx_gtk2u_core-2.8.so.0:_ZN12wxBitmapBase13InsertHandlerEP19wxBitmapHandlerBase
libwx_gtk2u_core-2.8.so.0:_ZN12wxBitmapBase13RemoveHandlerERK8wxString
libwx_gtk2u_core-2.8.so.0:_ZN12wxBitmapBase15CleanUpHandlersEv
libwx_gtk2u_core-2.8.so.0:_ZN12wxBufferedDC14wxCreateObjectEv
libwx_gtk2u_core-2.8.so.0:_ZN12wxBufferedDC9UseBufferEii
libwx_gtk2u_core-2.8.so.0:_ZN12wxBusyCursor13GetBusyCursorEv
libwx_gtk2u_core-2.8.so.0:_ZN12wxBusyCursor15GetStoredCursorEv
libwx_gtk2u_core-2.8.so.0:_ZN12wxButtonBase14GetDefaultSizeEv
libwx_gtk2u_core-2.8.so.0:_ZN12wxCURHandler14wxCreateObjectEv
libwx_gtk2u_core-2.8.so.0:_ZN12wxCURHandler9DoCanReadER13wxInputStream
libwx_gtk2u_core-2.8.so.0:_ZN12wxCaretTimer6NotifyEv
libwx_gtk2u_core-2.8.so.0:_ZN12wxCaretTimerC1EP7wxCaret
libwx_gtk2u_core-2.8.so.0:_ZN12wxCaretTimerC2EP7wxCaret
libwx_gtk2u_core-2.8.so.0:_ZN12wxChoiceBase7CommandER14wxCommandEvent
libwx_gtk2u_core-2.8.so.0:_ZN12wxChoiceBaseD0Ev
libwx_gtk2u_core-2.8.so.0:_ZN12wxChoiceBaseD1Ev
libwx_gtk2u_core-2.8.so.0:_ZN12wxChoiceBaseD2Ev
libwx_gtk2u_core-2.8.so.0:_ZN12wxChoicebook10InsertPageEmP8wxWindowRK8wxStringbi
libwx_gtk2u_core-2.8.so.0:_ZN12wxChoicebook11SetPageTextEmRK8wxString
libwx_gtk2u_core-2.8.so.0:_ZN12wxChoicebook12DoRemovePageEm
libwx_gtk2u_core-2.8.so.0:_ZN12wxChoicebook12SetImageListEP11wxImageList
libwx_gtk2u_core-2.8.so.0:_ZN12wxChoicebook12SetPageImageEmi
libwx_gtk2u_core-2.8.so.0:_ZN12wxChoicebook14DeleteAllPagesEv
libwx_gtk2u_core-2.8.so.0:_ZN12wxChoicebook14wxCreateObjectEv
libwx_gtk2u_core-2.8.so.0:_ZN12wxChoicebook16MakeChangedEventER19wxBookCtrlBaseEvent
libwx_gtk2u_core-2.8.so.0:_ZN12wxChoicebook16OnChoiceSelectedER14wxCommandEvent
libwx_gtk2u_core-2.8.so.0:_ZN12wxChoicebook4InitEv
libwx_gtk2u_core-2.8.so.0:_ZN12wxChoicebook6CreateEP8wxWindowiRK7wxPointRK6wxSizelRK8wxString
libwx_gtk2u_core-2.8.so.0:_ZN12wxCloseEvent14wxCreateObjectEv
libwx_gtk2u_core-2.8.so.0:_ZN12wxColourBase10FromStringEPKw
libwx_gtk2u_core-2.8.so.0:_ZN12wxColourBase12CreateByNameERK8wxString
libwx_gtk2u_core-2.8.so.0:_ZN12wxColourBase12InitFromNameERK8wxString
libwx_gtk2u_core-2.8.so.0:_ZN12wxColourData14wxCreateObjectEv
libwx_gtk2u_core-2.8.so.0:_ZN12wxColourData15GetCustomColourEi
libwx_gtk2u_core-2.8.so.0:_ZN12wxColourData15SetCustomColourEiRK8wxColour
libwx_gtk2u_core-2.8.so.0:_ZN12wxColourDataC1ERKS_
libwx_gtk2u_core-2.8.so.0:_ZN12wxColourDataC1Ev
libwx_gtk2u_core-2.8.so.0:_ZN12wxColourDataC2ERKS_
libwx_gtk2u_core-2.8.so.0:_ZN12wxColourDataC2Ev
libwx_gtk2u_core-2.8.so.0:_ZN12wxColourDataD0Ev
libwx_gtk2u_core-2.8.so.0:_ZN12wxColourDataD1Ev
libwx_gtk2u_core-2.8.so.0:_ZN12wxColourDataD2Ev
libwx_gtk2u_core-2.8.so.0:_ZN12wxColourDataaSERKS_
libwx_gtk2u_core-2.8.so.0:_ZN12wxComboPopup10LazyCreateEv
libwx_gtk2u_core-2.8.so.0:_ZN12wxComboPopup14SetStringValueERK8wxString
libwx_gtk2u_core-2.8.so.0:_ZN12wxComboPopup15GetAdjustedSizeEiii
libwx_gtk2u_core-2.8.so.0:_ZN12wxComboPopup15OnComboKeyEventER10wxKeyEvent
libwx_gtk2u_core-2.8.so.0:_ZN12wxComboPopup17PaintComboControlER4wxDCRK6wxRect
libwx_gtk2u_core-2.8.so.0:_ZN12wxComboPopup18OnComboDoubleClickEv
libwx_gtk2u_core-2.8.so.0:_ZN12wxComboPopup24DefaultPaintComboControlEP15wxComboCtrlBaseR4wxDCRK6wxRect
libwx_gtk2u_core-2.8.so.0:_ZN12wxComboPopup7DismissEv
libwx_gtk2u_core-2.8.so.0:_ZN12wxComboPopup7OnPopupEv
libwx_gtk2u_core-2.8.so.0:_ZN12wxComboPopup9OnDismissEv
libwx_gtk2u_core-2.8.so.0:_ZN12wxComboPopupD0Ev
libwx_gtk2u_core-2.8.so.0:_ZN12wxComboPopupD1Ev
libwx_gtk2u_core-2.8.so.0:_ZN12wxComboPopupD2Ev
libwx_gtk2u_core-2.8.so.0:_ZN12wxDataFormat14PrepareFormatsEv
libwx_gtk2u_core-2.8.so.0:_ZN12wxDataFormat5SetIdEP8_GdkAtom
libwx_gtk2u_core-2.8.so.0:_ZN12wxDataFormat5SetIdEPKw
libwx_gtk2u_core-2.8.so.0:_ZN12wxDataFormat7SetTypeE14wxDataFormatId
libwx_gtk2u_core-2.8.so.0:_ZN12wxDataFormatC1E14wxDataFormatId
libwx_gtk2u_core-2.8.so.0:_ZN12wxDataFormatC1EP8_GdkAtom
libwx_gtk2u_core-2.8.so.0:_ZN12wxDataFormatC1EPKw
libwx_gtk2u_core-2.8.so.0:_ZN12wxDataFormatC1ERK8wxString
libwx_gtk2u_core-2.8.so.0:_ZN12wxDataFormatC1Ev
libwx_gtk2u_core-2.8.so.0:_ZN12wxDataFormatC2E14wxDataFormatId
libwx_gtk2u_core-2.8.so.0:_ZN12wxDataFormatC2EP8_GdkAtom
libwx_gtk2u_core-2.8.so.0:_ZN12wxDataFormatC2EPKw
libwx_gtk2u_core-2.8.so.0:_ZN12wxDataFormatC2ERK8wxString
libwx_gtk2u_core-2.8.so.0:_ZN12wxDataFormatC2Ev
libwx_gtk2u_core-2.8.so.0:_ZN12wxDataObjectC1Ev
libwx_gtk2u_core-2.8.so.0:_ZN12wxDataObjectC2Ev
libwx_gtk2u_core-2.8.so.0:_ZN12wxDataObjectD0Ev
libwx_gtk2u_core-2.8.so.0:_ZN12wxDataObjectD1Ev
libwx_gtk2u_core-2.8.so.0:_ZN12wxDataObjectD2Ev
libwx_gtk2u_core-2.8.so.0:_ZN12wxDialogBase10OnCharHookER10wxKeyEvent
libwx_gtk2u_core-2.8.so.0:_ZN12wxDialogBase11IsEscapeKeyERK10wxKeyEvent
libwx_gtk2u_core-2.8.so.0:_ZN12wxDialogBase11RemoveChildEP12wxWindowBase
libwx_gtk2u_core-2.8.so.0:_ZN12wxDialogBase11SetEscapeIdEi
libwx_gtk2u_core-2.8.so.0:_ZN12wxDialogBase12OnChildFocusER17wxChildFocusEvent
libwx_gtk2u_core-2.8.so.0:_ZN12wxDialogBase13OnCloseWindowER12wxCloseEvent
libwx_gtk2u_core-2.8.so.0:_ZN12wxDialogBase14AcceptAndCloseEv
libwx_gtk2u_core-2.8.so.0:_ZN12wxDialogBase15CreateTextSizerERK8wxString
libwx_gtk2u_core-2.8.so.0:_ZN12wxDialogBase15OnNavigationKeyER20wxNavigationKeyEvent
libwx_gtk2u_core-2.8.so.0:_ZN12wxDialogBase16SetAffirmativeIdEi
libwx_gtk2u_core-2.8.so.0:_ZN12wxDialogBase17CreateButtonSizerEl
libwx_gtk2u_core-2.8.so.0:_ZN12wxDialogBase18OnSysColourChangedER23wxSysColourChangedEvent
libwx_gtk2u_core-2.8.so.0:_ZN12wxDialogBase24SetFocusIgnoringChildrenEv
libwx_gtk2u_core-2.8.so.0:_ZN12wxDialogBase26CreateSeparatedButtonSizerEl
libwx_gtk2u_core-2.8.so.0:_ZN12wxDialogBase26CreateStdDialogButtonSizerEl
libwx_gtk2u_core-2.8.so.0:_ZN12wxDialogBase27EmulateButtonClickIfPresentEi
libwx_gtk2u_core-2.8.so.0:_ZN12wxDialogBase4InitEv
libwx_gtk2u_core-2.8.so.0:_ZN12wxDialogBase7OnFocusER12wxFocusEvent
libwx_gtk2u_core-2.8.so.0:_ZN12wxDialogBase8OnButtonER14wxCommandEvent
libwx_gtk2u_core-2.8.so.0:_ZN12wxDialogBase8SetFocusEv
libwx_gtk2u_core-2.8.so.0:_ZN12wxDialogBase9EndDialogEi
libwx_gtk2u_core-2.8.so.0:_ZN12wxDocManager10CreateViewEP10wxDocumentl
libwx_gtk2u_core-2.8.so.0:_ZN12wxDocManager10InitializeEv
libwx_gtk2u_core-2.8.so.0:_ZN12wxDocManager10OnFileOpenER14wxCommandEvent
libwx_gtk2u_core-2.8.so.0:_ZN12wxDocManager10OnFileSaveER14wxCommandEvent
libwx_gtk2u_core-2.8.so.0:_ZN12wxDocManager11AddDocumentEP10wxDocument
libwx_gtk2u_core-2.8.so.0:_ZN12wxDocManager11OnFileCloseER14wxCommandEvent
libwx_gtk2u_core-2.8.so.0:_ZN12wxDocManager12ActivateViewEP6wxViewb
libwx_gtk2u_core-2.8.so.0:_ZN12wxDocManager12OnFileRevertER14wxCommandEvent
libwx_gtk2u_core-2.8.so.0:_ZN12wxDocManager12OnFileSaveAsER14wxCommandEvent
libwx_gtk2u_core-2.8.so.0:_ZN12wxDocManager12OnUpdateRedoER15wxUpdateUIEvent
libwx_gtk2u_core-2.8.so.0:_ZN12wxDocManager12OnUpdateUndoER15wxUpdateUIEvent
libwx_gtk2u_core-2.8.so.0:_ZN12wxDocManager12ProcessEventER7wxEvent
libwx_gtk2u_core-2.8.so.0:_ZN12wxDocManager13CloseDocumentEP10wxDocumentb
libwx_gtk2u_core-2.8.so.0:_ZN12wxDocManager13MatchTemplateERK8wxString
libwx_gtk2u_core-2.8.so.0:_ZN12wxDocManager13OnUpdatePrintER15wxUpdateUIEvent
libwx_gtk2u_core-2.8.so.0:_ZN12wxDocManager14CloseDocumentsEb
libwx_gtk2u_core-2.8.so.0:_ZN12wxDocManager14CreateDocumentERK8wxStringl
libwx_gtk2u_core-2.8.so.0:_ZN12wxDocManager14DeleteTemplateEP13wxDocTemplatel
libwx_gtk2u_core-2.8.so.0:_ZN12wxDocManager14MakeFrameTitleEP10wxDocument
libwx_gtk2u_core-2.8.so.0:_ZN12wxDocManager14OnFileCloseAllER14wxCommandEvent
libwx_gtk2u_core-2.8.so.0:_ZN12wxDocManager14RemoveDocumentEP10wxDocument
libwx_gtk2u_core-2.8.so.0:_ZN12wxDocManager14SelectViewTypeEPP13wxDocTemplateib
libwx_gtk2u_core-2.8.so.0:_ZN12wxDocManager14wxCreateObjectEv
libwx_gtk2u_core-2.8.so.0:_ZN12wxDocManager15FileHistoryLoadER12wxConfigBase
libwx_gtk2u_core-2.8.so.0:_ZN12wxDocManager15FileHistorySaveER12wxConfigBase
libwx_gtk2u_core-2.8.so.0:_ZN12wxDocManager15MakeDefaultNameER8wxString
libwx_gtk2u_core-2.8.so.0:_ZN12wxDocManager15OnUpdateFileNewER15wxUpdateUIEvent
libwx_gtk2u_core-2.8.so.0:_ZN12wxDocManager15OnUpdatePreviewER15wxUpdateUIEvent
libwx_gtk2u_core-2.8.so.0:_ZN12wxDocManager16AddFileToHistoryERK8wxString
libwx_gtk2u_core-2.8.so.0:_ZN12wxDocManager16OnUpdateFileOpenER15wxUpdateUIEvent
libwx_gtk2u_core-2.8.so.0:_ZN12wxDocManager16OnUpdateFileSaveER15wxUpdateUIEvent
libwx_gtk2u_core-2.8.so.0:_ZN12wxDocManager17AssociateTemplateEP13wxDocTemplate
libwx_gtk2u_core-2.8.so.0:_ZN12wxDocManager17OnUpdateFileCloseER15wxUpdateUIEvent
libwx_gtk2u_core-2.8.so.0:_ZN12wxDocManager18FileHistoryUseMenuEP6wxMenu
libwx_gtk2u_core-2.8.so.0:_ZN12wxDocManager18OnUpdateFileRevertER15wxUpdateUIEvent
libwx_gtk2u_core-2.8.so.0:_ZN12wxDocManager18OnUpdateFileSaveAsER15wxUpdateUIEvent
libwx_gtk2u_core-2.8.so.0:_ZN12wxDocManager18SelectDocumentPathEPP13wxDocTemplateiR8wxStringlb
libwx_gtk2u_core-2.8.so.0:_ZN12wxDocManager18SelectDocumentTypeEPP13wxDocTemplateib
libwx_gtk2u_core-2.8.so.0:_ZN12wxDocManager19FindTemplateForPathERK8wxString
libwx_gtk2u_core-2.8.so.0:_ZN12wxDocManager19OnCreateFileHistoryEv
libwx_gtk2u_core-2.8.so.0:_ZN12wxDocManager20DisassociateTemplateEP13wxDocTemplate
libwx_gtk2u_core-2.8.so.0:_ZN12wxDocManager21FileHistoryRemoveMenuEP6wxMenu
libwx_gtk2u_core-2.8.so.0:_ZN12wxDocManager21RemoveFileFromHistoryEm
libwx_gtk2u_core-2.8.so.0:_ZN12wxDocManager25FileHistoryAddFilesToMenuEP6wxMenu
libwx_gtk2u_core-2.8.so.0:_ZN12wxDocManager25FileHistoryAddFilesToMenuEv
libwx_gtk2u_core-2.8.so.0:_ZN12wxDocManager5ClearEb
libwx_gtk2u_core-2.8.so.0:_ZN12wxDocManager6OnRedoER14wxCommandEvent
libwx_gtk2u_core-2.8.so.0:_ZN12wxDocManager6OnUndoER14wxCommandEvent
libwx_gtk2u_core-2.8.so.0:_ZN12wxDocManager7OnPrintER14wxCommandEvent
libwx_gtk2u_core-2.8.so.0:_ZN12wxDocManager8FlushDocEP10wxDocument
libwx_gtk2u_core-2.8.so.0:_ZN12wxDocManager9OnFileNewER14wxCommandEvent
libwx_gtk2u_core-2.8.so.0:_ZN12wxDocManager9OnPreviewER14wxCommandEvent
libwx_gtk2u_core-2.8.so.0:_ZN12wxDocManagerC1Elb
libwx_gtk2u_core-2.8.so.0:_ZN12wxDocManagerC2Elb
libwx_gtk2u_core-2.8.so.0:_ZN12wxDocManagerD0Ev
libwx_gtk2u_core-2.8.so.0:_ZN12wxDocManagerD1Ev
libwx_gtk2u_core-2.8.so.0:_ZN12wxDocManagerD2Ev
libwx_gtk2u_core-2.8.so.0:_ZN12wxDropSource10DoDragDropEi
libwx_gtk2u_core-2.8.so.0:_ZN12wxDropSource11PrepareIconEiP15_GdkDragContext
libwx_gtk2u_core-2.8.so.0:_ZN12wxDropSource14RegisterWindowEv
libwx_gtk2u_core-2.8.so.0:_ZN12wxDropSource16UnregisterWindowEv
libwx_gtk2u_core-2.8.so.0:_ZN12wxDropSource8SetIconsERK6wxIconS2_S2_
libwx_gtk2u_core-2.8.so.0:_ZN12wxDropSourceC1EP8wxWindowRK6wxIconS4_S4_
libwx_gtk2u_core-2.8.so.0:_ZN12wxDropSourceC1ER12wxDataObjectP8wxWindowRK6wxIconS6_S6_
libwx_gtk2u_core-2.8.so.0:_ZN12wxDropSourceC2EP8wxWindowRK6wxIconS4_S4_
libwx_gtk2u_core-2.8.so.0:_ZN12wxDropSourceC2ER12wxDataObjectP8wxWindowRK6wxIconS6_S6_
libwx_gtk2u_core-2.8.so.0:_ZN12wxDropSourceD0Ev
libwx_gtk2u_core-2.8.so.0:_ZN12wxDropSourceD1Ev
libwx_gtk2u_core-2.8.so.0:_ZN12wxDropSourceD2Ev
libwx_gtk2u_core-2.8.so.0:_ZN12wxDropTarget10OnDragOverEii12wxDragResult
libwx_gtk2u_core-2.8.so.0:_ZN12wxDropTarget14RegisterWidgetEP10_GtkWidget
libwx_gtk2u_core-2.8.so.0:_ZN12wxDropTarget15GetMatchingPairEv
libwx_gtk2u_core-2.8.so.0:_ZN12wxDropTarget16UnregisterWidgetEP10_GtkWidget
libwx_gtk2u_core-2.8.so.0:_ZN12wxDropTarget6OnDataEii12wxDragResult
libwx_gtk2u_core-2.8.so.0:_ZN12wxDropTarget6OnDropEii
libwx_gtk2u_core-2.8.so.0:_ZN12wxDropTarget7GetDataEv
libwx_gtk2u_core-2.8.so.0:_ZN12wxDropTargetC1EP12wxDataObject
libwx_gtk2u_core-2.8.so.0:_ZN12wxDropTargetC2EP12wxDataObject
libwx_gtk2u_core-2.8.so.0:_ZN12wxEraseEvent14wxCreateObjectEv
libwx_gtk2u_core-2.8.so.0:_ZN12wxFileButton10OnDialogOKER14wxCommandEvent
libwx_gtk2u_core-2.8.so.0:_ZN12wxFileButton14wxCreateObjectEv
libwx_gtk2u_core-2.8.so.0:_ZN12wxFileButton6CreateEP8wxWindowiRK8wxStringS4_S4_S4_RK7wxPointRK6wxSizelRK11wxValidatorS4_
libwx_gtk2u_core-2.8.so.0:_ZN12wxFileButton7SetPathERK8wxString
libwx_gtk2u_core-2.8.so.0:_ZN12wxFileButtonD0Ev
libwx_gtk2u_core-2.8.so.0:_ZN12wxFileButtonD1Ev
libwx_gtk2u_core-2.8.so.0:_ZN12wxFileButtonD2Ev
libwx_gtk2u_core-2.8.so.0:_ZN12wxFileDialog10SetMessageERK8wxString
libwx_gtk2u_core-2.8.so.0:_ZN12wxFileDialog11SetFilenameERK8wxString
libwx_gtk2u_core-2.8.so.0:_ZN12wxFileDialog11SetWildcardERK8wxString
libwx_gtk2u_core-2.8.so.0:_ZN12wxFileDialog12SetDirectoryERK8wxString
libwx_gtk2u_core-2.8.so.0:_ZN12wxFileDialog14SetFilterIndexEi
libwx_gtk2u_core-2.8.so.0:_ZN12wxFileDialog14wxCreateObjectEv
libwx_gtk2u_core-2.8.so.0:_ZN12wxFileDialog4ShowEb
libwx_gtk2u_core-2.8.so.0:_ZN12wxFileDialog7SetPathERK8wxString
libwx_gtk2u_core-2.8.so.0:_ZN12wxFileDialog8OnFakeOkER14wxCommandEvent
libwx_gtk2u_core-2.8.so.0:_ZN12wxFileDialog9DoSetSizeEiiiii
libwx_gtk2u_core-2.8.so.0:_ZN12wxFileDialog9ShowModalEv
libwx_gtk2u_core-2.8.so.0:_ZN12wxFileDialogC1EP8wxWindowRK8wxStringS4_S4_S4_lRK7wxPointRK6wxSizeS4_
libwx_gtk2u_core-2.8.so.0:_ZN12wxFileDialogC2EP8wxWindowRK8wxStringS4_S4_S4_lRK7wxPointRK6wxSizeS4_
libwx_gtk2u_core-2.8.so.0:_ZN12wxFocusEvent14wxCreateObjectEv
libwx_gtk2u_core-2.8.so.0:_ZN12wxFontButton10UpdateFontEv
libwx_gtk2u_core-2.8.so.0:_ZN12wxFontButton14wxCreateObjectEv
libwx_gtk2u_core-2.8.so.0:_ZN12wxFontButton6CreateEP8wxWindowiRK6wxFontRK7wxPointRK6wxSizelRK11wxValidatorRK8wxString
libwx_gtk2u_core-2.8.so.0:_ZN12wxFontButtonD0Ev
libwx_gtk2u_core-2.8.so.0:_ZN12wxFontButtonD1Ev
libwx_gtk2u_core-2.8.so.0:_ZN12wxFontButtonD2Ev
libwx_gtk2u_core-2.8.so.0:_ZN12wxFontDialog13SetChosenFontEPKc
libwx_gtk2u_core-2.8.so.0:_ZN12wxFontDialog14wxCreateObjectEv
libwx_gtk2u_core-2.8.so.0:_ZN12wxFontDialog8DoCreateEP8wxWindow
libwx_gtk2u_core-2.8.so.0:_ZN12wxFontDialogD0Ev
libwx_gtk2u_core-2.8.so.0:_ZN12wxFontDialogD1Ev
libwx_gtk2u_core-2.8.so.0:_ZN12wxFontDialogD2Ev
libwx_gtk2u_core-2.8.so.0:_ZN12wxFontMapper15TestAltEncodingERK8wxString14wxFontEncodingP20wxNativeEncodingInfo
libwx_gtk2u_core-2.8.so.0:_ZN12wxFontMapper17CharsetToEncodingERK8wxStringb
libwx_gtk2u_core-2.8.so.0:_ZN12wxFontMapper17GetAltForEncodingE14wxFontEncodingP20wxNativeEncodingInfoRK8wxStringb
libwx_gtk2u_core-2.8.so.0:_ZN12wxFontMapper17GetAltForEncodingE14wxFontEncodingPS0_RK8wxStringb
libwx_gtk2u_core-2.8.so.0:_ZN12wxFontMapper19IsEncodingAvailableE14wxFontEncodingRK8wxString
libwx_gtk2u_core-2.8.so.0:_ZN12wxFontMapper3GetEv
libwx_gtk2u_core-2.8.so.0:_ZN12wxFontMapperC1Ev
libwx_gtk2u_core-2.8.so.0:_ZN12wxFontMapperC2Ev
libwx_gtk2u_core-2.8.so.0:_ZN12wxFontMapperD0Ev
libwx_gtk2u_core-2.8.so.0:_ZN12wxFontMapperD1Ev
libwx_gtk2u_core-2.8.so.0:_ZN12wxFontMapperD2Ev
libwx_gtk2u_core-2.8.so.0:_ZN12wxGIFDecoder4dgifER13wxInputStreamP8GIFImageii
libwx_gtk2u_core-2.8.so.0:_ZN12wxGIFDecoder7DestroyEv
libwx_gtk2u_core-2.8.so.0:_ZN12wxGIFDecoder7LoadGIFER13wxInputStream
libwx_gtk2u_core-2.8.so.0:_ZN12wxGIFDecoder7getcodeER13wxInputStreamii
libwx_gtk2u_core-2.8.so.0:_ZN12wxGIFDecoderC1Ev
libwx_gtk2u_core-2.8.so.0:_ZN12wxGIFDecoderC2Ev
libwx_gtk2u_core-2.8.so.0:_ZN12wxGIFDecoderD0Ev
libwx_gtk2u_core-2.8.so.0:_ZN12wxGIFDecoderD1Ev
libwx_gtk2u_core-2.8.so.0:_ZN12wxGIFDecoderD2Ev
libwx_gtk2u_core-2.8.so.0:_ZN12wxGIFHandler14wxCreateObjectEv
libwx_gtk2u_core-2.8.so.0:_ZN12wxGIFHandler8LoadFileEP7wxImageR13wxInputStreambi
libwx_gtk2u_core-2.8.so.0:_ZN12wxGIFHandler8SaveFileEP7wxImageR14wxOutputStreamb
libwx_gtk2u_core-2.8.so.0:_ZN12wxGIFHandler9DoCanReadER13wxInputStream
libwx_gtk2u_core-2.8.so.0:_ZN12wxICOHandler10DoLoadFileEP7wxImageR13wxInputStreambi
libwx_gtk2u_core-2.8.so.0:_ZN12wxICOHandler13GetImageCountER13wxInputStream
libwx_gtk2u_core-2.8.so.0:_ZN12wxICOHandler14wxCreateObjectEv
libwx_gtk2u_core-2.8.so.0:_ZN12wxICOHandler8LoadFileEP7wxImageR13wxInputStreambi
libwx_gtk2u_core-2.8.so.0:_ZN12wxICOHandler8SaveFileEP7wxImageR14wxOutputStreamb
libwx_gtk2u_core-2.8.so.0:_ZN12wxICOHandler9DoCanReadER13wxInputStream
libwx_gtk2u_core-2.8.so.0:_ZN12wxIconBundle11DeleteIconsEv
libwx_gtk2u_core-2.8.so.0:_ZN12wxIconBundle7AddIconERK6wxIcon
libwx_gtk2u_core-2.8.so.0:_ZN12wxIconBundle7AddIconERK8wxStringl
libwx_gtk2u_core-2.8.so.0:_ZN12wxIconBundleaSERKS_
libwx_gtk2u_core-2.8.so.0:_ZN12wxImageArray3AddERK7wxImagem
libwx_gtk2u_core-2.8.so.0:_ZN12wxImageArray6DoCopyERKS_
libwx_gtk2u_core-2.8.so.0:_ZN12wxImageArray6InsertERK7wxImagemm
libwx_gtk2u_core-2.8.so.0:_ZN12wxImageArray7DoEmptyEv
libwx_gtk2u_core-2.8.so.0:_ZN12wxImageArray8RemoveAtEmm
libwx_gtk2u_core-2.8.so.0:_ZN12wxImageArrayC1ERKS_
libwx_gtk2u_core-2.8.so.0:_ZN12wxImageArrayC2ERKS_
libwx_gtk2u_core-2.8.so.0:_ZN12wxImageArrayD1Ev
libwx_gtk2u_core-2.8.so.0:_ZN12wxImageArrayD2Ev
libwx_gtk2u_core-2.8.so.0:_ZN12wxImageArrayaSERKS_
libwx_gtk2u_core-2.8.so.0:_ZN12wxMouseEvent14wxCreateObjectEv
libwx_gtk2u_core-2.8.so.0:_ZN12wxMouseEvent6AssignERKS_
libwx_gtk2u_core-2.8.so.0:_ZN12wxMouseEventC1Ei
libwx_gtk2u_core-2.8.so.0:_ZN12wxMouseEventC2Ei
libwx_gtk2u_core-2.8.so.0:_ZN12wxPCXHandler14wxCreateObjectEv
libwx_gtk2u_core-2.8.so.0:_ZN12wxPCXHandler8LoadFileEP7wxImageR13wxInputStreambi
libwx_gtk2u_core-2.8.so.0:_ZN12wxPCXHandler8SaveFileEP7wxImageR14wxOutputStreamb
libwx_gtk2u_core-2.8.so.0:_ZN12wxPCXHandler9DoCanReadER13wxInputStream
libwx_gtk2u_core-2.8.so.0:_ZN12wxPNGHandler14wxCreateObjectEv
libwx_gtk2u_core-2.8.so.0:_ZN12wxPNGHandler8LoadFileEP7wxImageR13wxInputStreambi
libwx_gtk2u_core-2.8.so.0:_ZN12wxPNGHandler8SaveFileEP7wxImageR14wxOutputStreamb
libwx_gtk2u_core-2.8.so.0:_ZN12wxPNGHandler9DoCanReadER13wxInputStream
libwx_gtk2u_core-2.8.so.0:_ZN12wxPNMHandler14wxCreateObjectEv
libwx_gtk2u_core-2.8.so.0:_ZN12wxPNMHandler8LoadFileEP7wxImageR13wxInputStreambi
libwx_gtk2u_core-2.8.so.0:_ZN12wxPNMHandler8SaveFileEP7wxImageR14wxOutputStreamb
libwx_gtk2u_core-2.8.so.0:_ZN12wxPNMHandler9DoCanReadER13wxInputStream
libwx_gtk2u_core-2.8.so.0:_ZN12wxPaintEvent14wxCreateObjectEv
libwx_gtk2u_core-2.8.so.0:_ZN12wxPickerBase10CreateBaseEP8wxWindowiRK8wxStringRK7wxPointRK6wxSizelRK11wxValidatorS4_
libwx_gtk2u_core-2.8.so.0:_ZN12wxPickerBase11RemoveChildEP12wxWindowBase
libwx_gtk2u_core-2.8.so.0:_ZN12wxPickerBase12DoSetToolTipEP9wxToolTip
libwx_gtk2u_core-2.8.so.0:_ZN12wxPickerBase12OnChildFocusER17wxChildFocusEvent
libwx_gtk2u_core-2.8.so.0:_ZN12wxPickerBase12PostCreationEv
libwx_gtk2u_core-2.8.so.0:_ZN12wxPickerBase15OnNavigationKeyER20wxNavigationKeyEvent
libwx_gtk2u_core-2.8.so.0:_ZN12wxPickerBase16OnTextCtrlDeleteER20wxWindowDestroyEvent
libwx_gtk2u_core-2.8.so.0:_ZN12wxPickerBase16OnTextCtrlUpdateER14wxCommandEvent
libwx_gtk2u_core-2.8.so.0:_ZN12wxPickerBase19OnTextCtrlKillFocusER12wxFocusEvent
libwx_gtk2u_core-2.8.so.0:_ZN12wxPickerBase24SetFocusIgnoringChildrenEv
libwx_gtk2u_core-2.8.so.0:_ZN12wxPickerBase6OnSizeER11wxSizeEvent
libwx_gtk2u_core-2.8.so.0:_ZN12wxPickerBase7OnFocusER12wxFocusEvent
libwx_gtk2u_core-2.8.so.0:_ZN12wxPickerBase8SetFocusEv
libwx_gtk2u_core-2.8.so.0:_ZN12wxPoint2DInt14SetVectorAngleEd
libwx_gtk2u_core-2.8.so.0:_ZN12wxPoint2DInt8ReadFromER17wxDataInputStream
libwx_gtk2u_core-2.8.so.0:_ZN12wxRegionBase5UnionERK8wxBitmap
libwx_gtk2u_core-2.8.so.0:_ZN12wxRegionBase5UnionERK8wxBitmapRK8wxColouri
libwx_gtk2u_core-2.8.so.0:_ZN12wxSearchCtrl10AppendTextERK8wxString
libwx_gtk2u_core-2.8.so.0:_ZN12wxSearchCtrl10DoSetValueERK8wxStringi
libwx_gtk2u_core-2.8.so.0:_ZN12wxSearchCtrl10OnSetFocusER12wxFocusEvent
libwx_gtk2u_core-2.8.so.0:_ZN12wxSearchCtrl11SetEditableEb
libwx_gtk2u_core-2.8.so.0:_ZN12wxSearchCtrl12DiscardEditsEv
libwx_gtk2u_core-2.8.so.0:_ZN12wxSearchCtrl12DoMoveWindowEiiii
libwx_gtk2u_core-2.8.so.0:_ZN12wxSearchCtrl12SetMaxLengthEm
libwx_gtk2u_core-2.8.so.0:_ZN12wxSearchCtrl12SetSelectionEll
libwx_gtk2u_core-2.8.so.0:_ZN12wxSearchCtrl12ShowPositionEl
libwx_gtk2u_core-2.8.so.0:_ZN12wxSearchCtrl13RecalcBitmapsEv
libwx_gtk2u_core-2.8.so.0:_ZN12wxSearchCtrl14LayoutControlsEiiii
libwx_gtk2u_core-2.8.so.0:_ZN12wxSearchCtrl14OnSearchButtonER14wxCommandEvent
libwx_gtk2u_core-2.8.so.0:_ZN12wxSearchCtrl14wxCreateObjectEv
libwx_gtk2u_core-2.8.so.0:_ZN12wxSearchCtrl15EmulateKeyPressERK10wxKeyEvent
libwx_gtk2u_core-2.8.so.0:_ZN12wxSearchCtrl15PopupSearchMenuEv
libwx_gtk2u_core-2.8.so.0:_ZN12wxSearchCtrl15SetCancelBitmapERK8wxBitmap
libwx_gtk2u_core-2.8.so.0:_ZN12wxSearchCtrl15SetDefaultStyleERK10wxTextAttr
libwx_gtk2u_core-2.8.so.0:_ZN12wxSearchCtrl15SetSearchBitmapERK8wxBitmap
libwx_gtk2u_core-2.8.so.0:_ZN12wxSearchCtrl16DoUpdateWindowUIER15wxUpdateUIEvent
libwx_gtk2u_core-2.8.so.0:_ZN12wxSearchCtrl16ShowCancelButtonEb
libwx_gtk2u_core-2.8.so.0:_ZN12wxSearchCtrl16ShowSearchButtonEb
libwx_gtk2u_core-2.8.so.0:_ZN12wxSearchCtrl17SetInsertionPointEl
libwx_gtk2u_core-2.8.so.0:_ZN12wxSearchCtrl18RenderCancelBitmapEii
libwx_gtk2u_core-2.8.so.0:_ZN12wxSearchCtrl18RenderSearchBitmapEiib
libwx_gtk2u_core-2.8.so.0:_ZN12wxSearchCtrl18SetDescriptiveTextERK8wxString
libwx_gtk2u_core-2.8.so.0:_ZN12wxSearchCtrl19SetSearchMenuBitmapERK8wxBitmap
libwx_gtk2u_core-2.8.so.0:_ZN12wxSearchCtrl20SetInsertionPointEndEv
libwx_gtk2u_core-2.8.so.0:_ZN12wxSearchCtrl3CutEv
libwx_gtk2u_core-2.8.so.0:_ZN12wxSearchCtrl4CopyEv
libwx_gtk2u_core-2.8.so.0:_ZN12wxSearchCtrl4InitEv
libwx_gtk2u_core-2.8.so.0:_ZN12wxSearchCtrl4RedoEv
libwx_gtk2u_core-2.8.so.0:_ZN12wxSearchCtrl4UndoEv
libwx_gtk2u_core-2.8.so.0:_ZN12wxSearchCtrl5ClearEv
libwx_gtk2u_core-2.8.so.0:_ZN12wxSearchCtrl5PasteEv
libwx_gtk2u_core-2.8.so.0:_ZN12wxSearchCtrl6CreateEP8wxWindowiRK8wxStringRK7wxPointRK6wxSizelRK11wxValidatorS4_
libwx_gtk2u_core-2.8.so.0:_ZN12wxSearchCtrl6OnSizeER11wxSizeEvent
libwx_gtk2u_core-2.8.so.0:_ZN12wxSearchCtrl6RemoveEll
libwx_gtk2u_core-2.8.so.0:_ZN12wxSearchCtrl7GetMenuEv
libwx_gtk2u_core-2.8.so.0:_ZN12wxSearchCtrl7ReplaceEllRK8wxString
libwx_gtk2u_core-2.8.so.0:_ZN12wxSearchCtrl7SetFontERK6wxFont
libwx_gtk2u_core-2.8.so.0:_ZN12wxSearchCtrl7SetMenuEP6wxMenu
libwx_gtk2u_core-2.8.so.0:_ZN12wxSearchCtrl8GetStyleElR10wxTextAttr
libwx_gtk2u_core-2.8.so.0:_ZN12wxSearchCtrl8LoadFileERK8wxString
libwx_gtk2u_core-2.8.so.0:_ZN12wxSearchCtrl8SaveFileERK8wxString
libwx_gtk2u_core-2.8.so.0:_ZN12wxSearchCtrl8SetStyleEllRK10wxTextAttr
libwx_gtk2u_core-2.8.so.0:_ZN12wxSearchCtrl8SetValueERK8wxString
libwx_gtk2u_core-2.8.so.0:_ZN12wxSearchCtrl9MarkDirtyEv
libwx_gtk2u_core-2.8.so.0:_ZN12wxSearchCtrl9SelectAllEv
libwx_gtk2u_core-2.8.so.0:_ZN12wxSearchCtrl9WriteTextERK8wxString
libwx_gtk2u_core-2.8.so.0:_ZN12wxSearchCtrlC1EP8wxWindowiRK8wxStringRK7wxPointRK6wxSizelRK11wxValidatorS4_
libwx_gtk2u_core-2.8.so.0:_ZN12wxSearchCtrlC1Ev
libwx_gtk2u_core-2.8.so.0:_ZN12wxSearchCtrlC2EP8wxWindowiRK8wxStringRK7wxPointRK6wxSizelRK11wxValidatorS4_
libwx_gtk2u_core-2.8.so.0:_ZN12wxSearchCtrlC2Ev
libwx_gtk2u_core-2.8.so.0:_ZN12wxSearchCtrlD0Ev
libwx_gtk2u_core-2.8.so.0:_ZN12wxSearchCtrlD1Ev
libwx_gtk2u_core-2.8.so.0:_ZN12wxSearchCtrlD2Ev
libwx_gtk2u_core-2.8.so.0:_ZN12wxSizerFlags24ReserveSpaceEvenIfHiddenEv
libwx_gtk2u_core-2.8.so.0:_ZN12wxSpinButton14wxCreateObjectEv
libwx_gtk2u_core-2.8.so.0:_ZN12wxSpinButton25GetClassDefaultAttributesE15wxWindowVariant
libwx_gtk2u_core-2.8.so.0:_ZN12wxSpinButton6CreateEP8wxWindowiRK7wxPointRK6wxSizelRK8wxString
libwx_gtk2u_core-2.8.so.0:_ZN12wxSpinButton6OnSizeER11wxSizeEvent
libwx_gtk2u_core-2.8.so.0:_ZN12wxSpinButton8SetRangeEii
libwx_gtk2u_core-2.8.so.0:_ZN12wxSpinButton8SetValueEi
libwx_gtk2u_core-2.8.so.0:_ZN12wxSpinButtonC1Ev
libwx_gtk2u_core-2.8.so.0:_ZN12wxSpinButtonC2Ev
libwx_gtk2u_core-2.8.so.0:_ZN12wxStaticLine14wxCreateObjectEv
libwx_gtk2u_core-2.8.so.0:_ZN12wxStaticLine25GetClassDefaultAttributesE15wxWindowVariant
libwx_gtk2u_core-2.8.so.0:_ZN12wxStaticLine6CreateEP8wxWindowiRK7wxPointRK6wxSizelRK8wxString
libwx_gtk2u_core-2.8.so.0:_ZN12wxStaticLineC1EP8wxWindowiRK7wxPointRK6wxSizelRK8wxString
libwx_gtk2u_core-2.8.so.0:_ZN12wxStaticLineC1Ev
libwx_gtk2u_core-2.8.so.0:_ZN12wxStaticLineC2EP8wxWindowiRK7wxPointRK6wxSizelRK8wxString
libwx_gtk2u_core-2.8.so.0:_ZN12wxStaticLineC2Ev
libwx_gtk2u_core-2.8.so.0:_ZN12wxStaticText14wxCreateObjectEv
libwx_gtk2u_core-2.8.so.0:_ZN12wxStaticText19SetForegroundColourERK8wxColour
libwx_gtk2u_core-2.8.so.0:_ZN12wxStaticText22GTKWidgetDoSetMnemonicEP10_GtkWidget
libwx_gtk2u_core-2.8.so.0:_ZN12wxStaticText25GetClassDefaultAttributesE15wxWindowVariant
libwx_gtk2u_core-2.8.so.0:_ZN12wxStaticText4WrapEi
libwx_gtk2u_core-2.8.so.0:_ZN12wxStaticText6CreateEP8wxWindowiRK8wxStringRK7wxPointRK6wxSizelS4_
libwx_gtk2u_core-2.8.so.0:_ZN12wxStaticText7SetFontERK6wxFont
libwx_gtk2u_core-2.8.so.0:_ZN12wxStaticText8SetLabelERK8wxString
libwx_gtk2u_core-2.8.so.0:_ZN12wxStaticText9DoSetSizeEiiiii
libwx_gtk2u_core-2.8.so.0:_ZN12wxStaticTextC1EP8wxWindowiRK8wxStringRK7wxPointRK6wxSizelS4_
libwx_gtk2u_core-2.8.so.0:_ZN12wxStaticTextC1Ev
libwx_gtk2u_core-2.8.so.0:_ZN12wxStaticTextC2EP8wxWindowiRK8wxStringRK7wxPointRK6wxSizelS4_
libwx_gtk2u_core-2.8.so.0:_ZN12wxStaticTextC2Ev
libwx_gtk2u_core-2.8.so.0:_ZN12wxTGAHandler14wxCreateObjectEv
libwx_gtk2u_core-2.8.so.0:_ZN12wxTGAHandler8LoadFileEP7wxImageR13wxInputStreambi
libwx_gtk2u_core-2.8.so.0:_ZN12wxTGAHandler8SaveFileEP7wxImageR14wxOutputStreamb
libwx_gtk2u_core-2.8.so.0:_ZN12wxTGAHandler9DoCanReadER13wxInputStream
libwx_gtk2u_core-2.8.so.0:_ZN12wxTimerEvent14wxCreateObjectEv
libwx_gtk2u_core-2.8.so.0:_ZN12wxWindowBase10CreateBaseEPS_iRK7wxPointRK6wxSizelRK11wxValidatorRK8wxString
libwx_gtk2u_core-2.8.so.0:_ZN12wxWindowBase10GetCaptureEv
libwx_gtk2u_core-2.8.so.0:_ZN12wxWindowBase10InitDialogEv
libwx_gtk2u_core-2.8.so.0:_ZN12wxWindowBase10SetPaletteERK9wxPalette
libwx_gtk2u_core-2.8.so.0:_ZN12wxWindowBase10SetToolTipERK8wxString
libwx_gtk2u_core-2.8.so.0:_ZN12wxWindowBase11DoFindFocusEv
libwx_gtk2u_core-2.8.so.0:_ZN12wxWindowBase11RemoveChildEPS_
libwx_gtk2u_core-2.8.so.0:_ZN12wxWindowBase11SetHelpTextERK8wxString
libwx_gtk2u_core-2.8.so.0:_ZN12wxWindowBase12CaptureMouseEv
libwx_gtk2u_core-2.8.so.0:_ZN12wxWindowBase12DoSetToolTipEP9wxToolTip
libwx_gtk2u_core-2.8.so.0:_ZN12wxWindowBase12LayoutPhase1EPi
libwx_gtk2u_core-2.8.so.0:_ZN12wxWindowBase12LayoutPhase2EPi
libwx_gtk2u_core-2.8.so.0:_ZN12wxWindowBase12OnInitDialogER17wxInitDialogEvent
libwx_gtk2u_core-2.8.so.0:_ZN12wxWindowBase12ReleaseMouseEv
libwx_gtk2u_core-2.8.so.0:_ZN12wxWindowBase12SetValidatorERK11wxValidator
libwx_gtk2u_core-2.8.so.0:_ZN12wxWindowBase12TryValidatorER7wxEvent
libwx_gtk2u_core-2.8.so.0:_ZN12wxWindowBase13OnMiddleClickER12wxMouseEvent
libwx_gtk2u_core-2.8.so.0:_ZN12wxWindowBase14DoSetSizeHintsEiiiiii
libwx_gtk2u_core-2.8.so.0:_ZN12wxWindowBase14FindWindowByIdElPK8wxWindow
libwx_gtk2u_core-2.8.so.0:_ZN12wxWindowBase14MoveConstraintEii
libwx_gtk2u_core-2.8.so.0:_ZN12wxWindowBase14SetConstraintsEP19wxLayoutConstraints
libwx_gtk2u_core-2.8.so.0:_ZN12wxWindowBase14SetInitialSizeERK6wxSize
libwx_gtk2u_core-2.8.so.0:_ZN12wxWindowBase14SetSizerAndFitEP7wxSizerb
libwx_gtk2u_core-2.8.so.0:_ZN12wxWindowBase14UpdateWindowUIEl
libwx_gtk2u_core-2.8.so.0:_ZN12wxWindowBase15ClearBackgroundEv
libwx_gtk2u_core-2.8.so.0:_ZN12wxWindowBase15DestroyChildrenEv
libwx_gtk2u_core-2.8.so.0:_ZN12wxWindowBase15DragAcceptFilesEb
libwx_gtk2u_core-2.8.so.0:_ZN12wxWindowBase15PopEventHandlerEb
libwx_gtk2u_core-2.8.so.0:_ZN12wxWindowBase16DoMoveInTabOrderEP8wxWindowNS_8MoveKindE
libwx_gtk2u_core-2.8.so.0:_ZN12wxWindowBase16DoSetVirtualSizeEii
libwx_gtk2u_core-2.8.so.0:_ZN12wxWindowBase16DoUpdateWindowUIER15wxUpdateUIEvent
libwx_gtk2u_core-2.8.so.0:_ZN12wxWindowBase16FindWindowByNameERK8wxStringPK8wxWindow
libwx_gtk2u_core-2.8.so.0:_ZN12wxWindowBase16PushEventHandlerEP12wxEvtHandler
libwx_gtk2u_core-2.8.so.0:_ZN12wxWindowBase16ResetConstraintsEv
libwx_gtk2u_core-2.8.so.0:_ZN12wxWindowBase16SendDestroyEventEv
libwx_gtk2u_core-2.8.so.0:_ZN12wxWindowBase16SetHelpTextForIdERK8wxString
libwx_gtk2u_core-2.8.so.0:_ZN12wxWindowBase16SetWindowVariantE15wxWindowVariant
libwx_gtk2u_core-2.8.so.0:_ZN12wxWindowBase16UnsetConstraintsEP19wxLayoutConstraints
libwx_gtk2u_core-2.8.so.0:_ZN12wxWindowBase17FindWindowByLabelERK8wxStringPK8wxWindow
libwx_gtk2u_core-2.8.so.0:_ZN12wxWindowBase17InheritAttributesEv
libwx_gtk2u_core-2.8.so.0:_ZN12wxWindowBase17NotifyCaptureLostEv
libwx_gtk2u_core-2.8.so.0:_ZN12wxWindowBase17SetSizeConstraintEiiii
libwx_gtk2u_core-2.8.so.0:_ZN12wxWindowBase17ToggleWindowStyleEi
libwx_gtk2u_core-2.8.so.0:_ZN12wxWindowBase18DoSetWindowVariantE15wxWindowVariant
libwx_gtk2u_core-2.8.so.0:_ZN12wxWindowBase18InvalidateBestSizeEv
libwx_gtk2u_core-2.8.so.0:_ZN12wxWindowBase18OnSysColourChangedER23wxSysColourChangedEvent
libwx_gtk2u_core-2.8.so.0:_ZN12wxWindowBase18RemoveEventHandlerEP12wxEvtHandler
libwx_gtk2u_core-2.8.so.0:_ZN12wxWindowBase18SatisfyConstraintsEv
libwx_gtk2u_core-2.8.so.0:_ZN12wxWindowBase18SetConstraintSizesEb
libwx_gtk2u_core-2.8.so.0:_ZN12wxWindowBase18SetContainingSizerEP7wxSizer
libwx_gtk2u_core-2.8.so.0:_ZN12wxWindowBase19SetBackgroundColourERK8wxColour
libwx_gtk2u_core-2.8.so.0:_ZN12wxWindowBase19SetForegroundColourERK8wxColour
libwx_gtk2u_core-2.8.so.0:_ZN12wxWindowBase19SetVirtualSizeHintsEiiii
libwx_gtk2u_core-2.8.so.0:_ZN12wxWindowBase20TransferDataToWindowEv
libwx_gtk2u_core-2.8.so.0:_ZN12wxWindowBase21ConvertDialogToPixelsERK7wxPoint
libwx_gtk2u_core-2.8.so.0:_ZN12wxWindowBase21ConvertPixelsToDialogERK7wxPoint
libwx_gtk2u_core-2.8.so.0:_ZN12wxWindowBase22AddConstraintReferenceEPS_
libwx_gtk2u_core-2.8.so.0:_ZN12wxWindowBase22TransferDataFromWindowEv
libwx_gtk2u_core-2.8.so.0:_ZN12wxWindowBase24DeleteRelatedConstraintsEv
libwx_gtk2u_core-2.8.so.0:_ZN12wxWindowBase25GetClassDefaultAttributesE15wxWindowVariant
libwx_gtk2u_core-2.8.so.0:_ZN12wxWindowBase25RemoveConstraintReferenceEPS_
libwx_gtk2u_core-2.8.so.0:_ZN12wxWindowBase3FitEv
libwx_gtk2u_core-2.8.so.0:_ZN12wxWindowBase4ShowEb
libwx_gtk2u_core-2.8.so.0:_ZN12wxWindowBase5CloseEb
libwx_gtk2u_core-2.8.so.0:_ZN12wxWindowBase6EnableEb
libwx_gtk2u_core-2.8.so.0:_ZN12wxWindowBase6LayoutEv
libwx_gtk2u_core-2.8.so.0:_ZN12wxWindowBase6OnHelpER11wxHelpEvent
libwx_gtk2u_core-2.8.so.0:_ZN12wxWindowBase7DestroyEv
libwx_gtk2u_core-2.8.so.0:_ZN12wxWindowBase7DoPhaseEi
libwx_gtk2u_core-2.8.so.0:_ZN12wxWindowBase7SetFontERK6wxFont
libwx_gtk2u_core-2.8.so.0:_ZN12wxWindowBase8AddChildEPS_
libwx_gtk2u_core-2.8.so.0:_ZN12wxWindowBase8DoCentreEi
libwx_gtk2u_core-2.8.so.0:_ZN12wxWindowBase8NavigateEi
libwx_gtk2u_core-2.8.so.0:_ZN12wxWindowBase8ReparentEPS_
libwx_gtk2u_core-2.8.so.0:_ZN12wxWindowBase8SetCaretEP7wxCaret
libwx_gtk2u_core-2.8.so.0:_ZN12wxWindowBase8SetSizerEP7wxSizerb
libwx_gtk2u_core-2.8.so.0:_ZN12wxWindowBase8ValidateEv
libwx_gtk2u_core-2.8.so.0:_ZN12wxWindowBase9FindFocusEv
libwx_gtk2u_core-2.8.so.0:_ZN12wxWindowBase9FitInsideEv
libwx_gtk2u_core-2.8.so.0:_ZN12wxWindowBase9MakeModalEb
libwx_gtk2u_core-2.8.so.0:_ZN12wxWindowBase9SetCursorERK8wxCursor
libwx_gtk2u_core-2.8.so.0:_ZN12wxWindowBase9TryParentER7wxEvent
libwx_gtk2u_core-2.8.so.0:_ZN12wxWindowBaseC1Ev
libwx_gtk2u_core-2.8.so.0:_ZN12wxWindowBaseC2Ev
libwx_gtk2u_core-2.8.so.0:_ZN12wxWindowBaseD0Ev
libwx_gtk2u_core-2.8.so.0:_ZN12wxWindowBaseD1Ev
libwx_gtk2u_core-2.8.so.0:_ZN12wxWindowBaseD2Ev
libwx_gtk2u_core-2.8.so.0:_ZN12wxXPMDecoder7CanReadER13wxInputStream
libwx_gtk2u_core-2.8.so.0:_ZN12wxXPMDecoder8ReadDataEPKPKc
libwx_gtk2u_core-2.8.so.0:_ZN12wxXPMDecoder8ReadFileER13wxInputStream
libwx_gtk2u_core-2.8.so.0:_ZN12wxXPMHandler14wxCreateObjectEv
libwx_gtk2u_core-2.8.so.0:_ZN12wxXPMHandler8LoadFileEP7wxImageR13wxInputStreambi
libwx_gtk2u_core-2.8.so.0:_ZN12wxXPMHandler8SaveFileEP7wxImageR14wxOutputStreamb
libwx_gtk2u_core-2.8.so.0:_ZN12wxXPMHandler9DoCanReadER13wxInputStream
libwx_gtk2u_core-2.8.so.0:_ZN13wxArtProvider11GetSizeHintERK8wxStringb
libwx_gtk2u_core-2.8.so.0:_ZN13wxArtProvider11PopProviderEv
libwx_gtk2u_core-2.8.so.0:_ZN13wxArtProvider12PushProviderEPS_
libwx_gtk2u_core-2.8.so.0:_ZN13wxArtProvider14InsertProviderEPS_
libwx_gtk2u_core-2.8.so.0:_ZN13wxArtProvider14RemoveProviderEPS_
libwx_gtk2u_core-2.8.so.0:_ZN13wxArtProvider15InitStdProviderEv
libwx_gtk2u_core-2.8.so.0:_ZN13wxArtProvider16CleanUpProvidersEv
libwx_gtk2u_core-2.8.so.0:_ZN13wxArtProvider18InitNativeProviderEv
libwx_gtk2u_core-2.8.so.0:_ZN13wxArtProvider20CommonAddingProviderEv
libwx_gtk2u_core-2.8.so.0:_ZN13wxArtProvider3PopEv
libwx_gtk2u_core-2.8.so.0:_ZN13wxArtProvider4PushEPS_
libwx_gtk2u_core-2.8.so.0:_ZN13wxArtProvider6DeleteEPS_
libwx_gtk2u_core-2.8.so.0:_ZN13wxArtProvider6InsertEPS_
libwx_gtk2u_core-2.8.so.0:_ZN13wxArtProvider6RemoveEPS_
libwx_gtk2u_core-2.8.so.0:_ZN13wxArtProvider7GetIconERK8wxStringS2_RK6wxSize
libwx_gtk2u_core-2.8.so.0:_ZN13wxArtProvider8PushBackEPS_
libwx_gtk2u_core-2.8.so.0:_ZN13wxArtProvider9GetBitmapERK8wxStringS2_RK6wxSize
libwx_gtk2u_core-2.8.so.0:_ZN13wxArtProviderD0Ev
libwx_gtk2u_core-2.8.so.0:_ZN13wxArtProviderD1Ev
libwx_gtk2u_core-2.8.so.0:_ZN13wxArtProviderD2Ev
libwx_gtk2u_core-2.8.so.0:_ZN13wxContextHelp13DispatchEventEP8wxWindowRK7wxPoint
libwx_gtk2u_core-2.8.so.0:_ZN13wxContextHelp14EndContextHelpEv
libwx_gtk2u_core-2.8.so.0:_ZN13wxContextHelp14wxCreateObjectEv
libwx_gtk2u_core-2.8.so.0:_ZN13wxContextHelp16BeginContextHelpEP8wxWindow
libwx_gtk2u_core-2.8.so.0:_ZN13wxContextHelp9EventLoopEv
libwx_gtk2u_core-2.8.so.0:_ZN13wxContextHelpC1EP8wxWindowb
libwx_gtk2u_core-2.8.so.0:_ZN13wxContextHelpC2EP8wxWindowb
libwx_gtk2u_core-2.8.so.0:_ZN13wxContextHelpD0Ev
libwx_gtk2u_core-2.8.so.0:_ZN13wxContextHelpD1Ev
libwx_gtk2u_core-2.8.so.0:_ZN13wxContextHelpD2Ev
libwx_gtk2u_core-2.8.so.0:_ZN13wxControlBase12GetLabelTextERK8wxString
libwx_gtk2u_core-2.8.so.0:_ZN13wxControlBase13CreateControlEP12wxWindowBaseiRK7wxPointRK6wxSizelRK11wxValidatorRK8wxString
libwx_gtk2u_core-2.8.so.0:_ZN13wxControlBase16DoUpdateWindowUIER15wxUpdateUIEvent
libwx_gtk2u_core-2.8.so.0:_ZN13wxControlBase6CreateEP8wxWindowiRK7wxPointRK6wxSizelRK11wxValidatorRK8wxString
libwx_gtk2u_core-2.8.so.0:_ZN13wxControlBase7CommandER14wxCommandEvent
libwx_gtk2u_core-2.8.so.0:_ZN13wxControlBase7SetFontERK6wxFont
libwx_gtk2u_core-2.8.so.0:_ZN13wxControlBase8SetLabelERK8wxString
libwx_gtk2u_core-2.8.so.0:_ZN13wxControlBaseD0Ev
libwx_gtk2u_core-2.8.so.0:_ZN13wxControlBaseD1Ev
libwx_gtk2u_core-2.8.so.0:_ZN13wxControlBaseD2Ev
libwx_gtk2u_core-2.8.so.0:_ZN13wxDirItemData13SetNewDirNameERK8wxString
libwx_gtk2u_core-2.8.so.0:_ZN13wxDirItemDataC1ERK8wxStringS2_b
libwx_gtk2u_core-2.8.so.0:_ZN13wxDirItemDataC2ERK8wxStringS2_b
libwx_gtk2u_core-2.8.so.0:_ZN13wxDocPrintout11GetPageInfoEPiS0_S0_S0_
libwx_gtk2u_core-2.8.so.0:_ZN13wxDocPrintout11OnPrintPageEi
libwx_gtk2u_core-2.8.so.0:_ZN13wxDocPrintout14wxCreateObjectEv
libwx_gtk2u_core-2.8.so.0:_ZN13wxDocPrintout15OnBeginDocumentEii
libwx_gtk2u_core-2.8.so.0:_ZN13wxDocPrintout7HasPageEi
libwx_gtk2u_core-2.8.so.0:_ZN13wxDocPrintoutC1EP6wxViewRK8wxString
libwx_gtk2u_core-2.8.so.0:_ZN13wxDocPrintoutC2EP6wxViewRK8wxString
libwx_gtk2u_core-2.8.so.0:_ZN13wxDocTemplate10CreateViewEP10wxDocumentl
libwx_gtk2u_core-2.8.so.0:_ZN13wxDocTemplate12DoCreateViewEv
libwx_gtk2u_core-2.8.so.0:_ZN13wxDocTemplate12InitDocumentEP10wxDocumentRK8wxStringl
libwx_gtk2u_core-2.8.so.0:_ZN13wxDocTemplate14CreateDocumentERK8wxStringl
libwx_gtk2u_core-2.8.so.0:_ZN13wxDocTemplate16DoCreateDocumentEv
libwx_gtk2u_core-2.8.so.0:_ZN13wxDocTemplate19FileMatchesTemplateERK8wxString
libwx_gtk2u_core-2.8.so.0:_ZN13wxDocTemplateC1EP12wxDocManagerRK8wxStringS4_S4_S4_S4_S4_P11wxClassInfoS6_l
libwx_gtk2u_core-2.8.so.0:_ZN13wxDocTemplateC2EP12wxDocManagerRK8wxStringS4_S4_S4_S4_S4_P11wxClassInfoS6_l
libwx_gtk2u_core-2.8.so.0:_ZN13wxDocTemplateD0Ev
libwx_gtk2u_core-2.8.so.0:_ZN13wxDocTemplateD1Ev
libwx_gtk2u_core-2.8.so.0:_ZN13wxDocTemplateD2Ev
libwx_gtk2u_core-2.8.so.0:_ZN13wxFileHistory10RemoveMenuEP6wxMenu
libwx_gtk2u_core-2.8.so.0:_ZN13wxFileHistory14AddFilesToMenuEP6wxMenu
libwx_gtk2u_core-2.8.so.0:_ZN13wxFileHistory14AddFilesToMenuEv
libwx_gtk2u_core-2.8.so.0:_ZN13wxFileHistory14wxCreateObjectEv
libwx_gtk2u_core-2.8.so.0:_ZN13wxFileHistory16AddFileToHistoryERK8wxString
libwx_gtk2u_core-2.8.so.0:_ZN13wxFileHistory21RemoveFileFromHistoryEm
libwx_gtk2u_core-2.8.so.0:_ZN13wxFileHistory4LoadER12wxConfigBase
libwx_gtk2u_core-2.8.so.0:_ZN13wxFileHistory4SaveER12wxConfigBase
libwx_gtk2u_core-2.8.so.0:_ZN13wxFileHistory7UseMenuEP6wxMenu
libwx_gtk2u_core-2.8.so.0:_ZN13wxFileHistoryC1Emi
libwx_gtk2u_core-2.8.so.0:_ZN13wxFileHistoryC2Emi
libwx_gtk2u_core-2.8.so.0:_ZN13wxFileHistoryD0Ev
libwx_gtk2u_core-2.8.so.0:_ZN13wxFileHistoryD1Ev
libwx_gtk2u_core-2.8.so.0:_ZN13wxFileHistoryD2Ev
libwx_gtk2u_core-2.8.so.0:_ZN13wxFontRefData11SetEncodingE14wxFontEncoding
libwx_gtk2u_core-2.8.so.0:_ZN13wxFontRefData11SetFaceNameERK8wxString
libwx_gtk2u_core-2.8.so.0:_ZN13wxFontRefData12SetPointSizeEi
libwx_gtk2u_core-2.8.so.0:_ZN13wxFontRefData13ClearGdkFontsEv
libwx_gtk2u_core-2.8.so.0:_ZN13wxFontRefData13SetUnderlinedEb
libwx_gtk2u_core-2.8.so.0:_ZN13wxFontRefData14InitFromNativeEv
libwx_gtk2u_core-2.8.so.0:_ZN13wxFontRefData17SetNativeFontInfoERK16wxNativeFontInfo
libwx_gtk2u_core-2.8.so.0:_ZN13wxFontRefData4InitEiiiibRK8wxString14wxFontEncoding
libwx_gtk2u_core-2.8.so.0:_ZN13wxFontRefData8SetStyleEi
libwx_gtk2u_core-2.8.so.0:_ZN13wxFontRefData9SetFamilyEi
libwx_gtk2u_core-2.8.so.0:_ZN13wxFontRefData9SetWeightEi
libwx_gtk2u_core-2.8.so.0:_ZN13wxFontRefDataC1ERK8wxString
libwx_gtk2u_core-2.8.so.0:_ZN13wxFontRefDataC1ERKS_
libwx_gtk2u_core-2.8.so.0:_ZN13wxFontRefDataC1EiiiibRK8wxString14wxFontEncoding
libwx_gtk2u_core-2.8.so.0:_ZN13wxFontRefDataC2ERK8wxString
libwx_gtk2u_core-2.8.so.0:_ZN13wxFontRefDataC2ERKS_
libwx_gtk2u_core-2.8.so.0:_ZN13wxFontRefDataC2EiiiibRK8wxString14wxFontEncoding
libwx_gtk2u_core-2.8.so.0:_ZN13wxFontRefDataD0Ev
libwx_gtk2u_core-2.8.so.0:_ZN13wxFontRefDataD1Ev
libwx_gtk2u_core-2.8.so.0:_ZN13wxFontRefDataD2Ev
libwx_gtk2u_core-2.8.so.0:_ZN13wxGBSizerItem10IntersectsERK12wxGBPositionRK8wxGBSpan
libwx_gtk2u_core-2.8.so.0:_ZN13wxGBSizerItem10IntersectsERKS_
libwx_gtk2u_core-2.8.so.0:_ZN13wxGBSizerItem14wxCreateObjectEv
libwx_gtk2u_core-2.8.so.0:_ZN13wxGBSizerItem6SetPosERK12wxGBPosition
libwx_gtk2u_core-2.8.so.0:_ZN13wxGBSizerItem7SetSpanERK8wxGBSpan
libwx_gtk2u_core-2.8.so.0:_ZN13wxGBSizerItem9GetEndPosERiS0_
libwx_gtk2u_core-2.8.so.0:_ZN13wxGBSizerItemC1EP7wxSizerRK12wxGBPositionRK8wxGBSpaniiP8wxObject
libwx_gtk2u_core-2.8.so.0:_ZN13wxGBSizerItemC1EP8wxWindowRK12wxGBPositionRK8wxGBSpaniiP8wxObject
libwx_gtk2u_core-2.8.so.0:_ZN13wxGBSizerItemC1EiiRK12wxGBPositionRK8wxGBSpaniiP8wxObject
libwx_gtk2u_core-2.8.so.0:_ZN13wxGBSizerItemC1Ev
libwx_gtk2u_core-2.8.so.0:_ZN13wxGBSizerItemC2EP7wxSizerRK12wxGBPositionRK8wxGBSpaniiP8wxObject
libwx_gtk2u_core-2.8.so.0:_ZN13wxGBSizerItemC2EP8wxWindowRK12wxGBPositionRK8wxGBSpaniiP8wxObject
libwx_gtk2u_core-2.8.so.0:_ZN13wxGBSizerItemC2EiiRK12wxGBPositionRK8wxGBSpaniiP8wxObject
libwx_gtk2u_core-2.8.so.0:_ZN13wxGBSizerItemC2Ev
libwx_gtk2u_core-2.8.so.0:_ZN13wxImageModule14wxCreateObjectEv
libwx_gtk2u_core-2.8.so.0:_ZN13wxJPEGHandler14wxCreateObjectEv
libwx_gtk2u_core-2.8.so.0:_ZN13wxJPEGHandler8LoadFileEP7wxImageR13wxInputStreambi
libwx_gtk2u_core-2.8.so.0:_ZN13wxJPEGHandler8SaveFileEP7wxImageR14wxOutputStreamb
libwx_gtk2u_core-2.8.so.0:_ZN13wxJPEGHandler9DoCanReadER13wxInputStream
libwx_gtk2u_core-2.8.so.0:_ZN13wxListBoxBase11DeselectAllEi
libwx_gtk2u_core-2.8.so.0:_ZN13wxListBoxBase11InsertItemsEjPK8wxStringj
libwx_gtk2u_core-2.8.so.0:_ZN13wxListBoxBase12SetFirstItemERK8wxString
libwx_gtk2u_core-2.8.so.0:_ZN13wxListBoxBase13EnsureVisibleEi
libwx_gtk2u_core-2.8.so.0:_ZN13wxListBoxBase18SetStringSelectionERK8wxStringb
libwx_gtk2u_core-2.8.so.0:_ZN13wxListBoxBase22AppendAndEnsureVisibleERK8wxString
libwx_gtk2u_core-2.8.so.0:_ZN13wxListBoxBase3SetEiPK8wxStringPPv
libwx_gtk2u_core-2.8.so.0:_ZN13wxListBoxBase7CommandER14wxCommandEvent
libwx_gtk2u_core-2.8.so.0:_ZN13wxListBoxBaseD0Ev
libwx_gtk2u_core-2.8.so.0:_ZN13wxListBoxBaseD1Ev
libwx_gtk2u_core-2.8.so.0:_ZN13wxListBoxBaseD2Ev
libwx_gtk2u_core-2.8.so.0:_ZN13wxLogTextCtrl11DoLogStringEPKwl
libwx_gtk2u_core-2.8.so.0:_ZN13wxLogTextCtrlC1EP10wxTextCtrl
libwx_gtk2u_core-2.8.so.0:_ZN13wxLogTextCtrlC2EP10wxTextCtrl
libwx_gtk2u_core-2.8.so.0:_ZN13wxMenuBarBase11UpdateMenusEv
libwx_gtk2u_core-2.8.so.0:_ZN13wxMenuBarBase13SetHelpStringEiRK8wxString
libwx_gtk2u_core-2.8.so.0:_ZN13wxMenuBarBase5CheckEib
libwx_gtk2u_core-2.8.so.0:_ZN13wxMenuBarBase6AppendEP6wxMenuRK8wxString
libwx_gtk2u_core-2.8.so.0:_ZN13wxMenuBarBase6AttachEP7wxFrame
libwx_gtk2u_core-2.8.so.0:_ZN13wxMenuBarBase6DetachEv
libwx_gtk2u_core-2.8.so.0:_ZN13wxMenuBarBase6EnableEib
libwx_gtk2u_core-2.8.so.0:_ZN13wxMenuBarBase6InsertEmP6wxMenuRK8wxString
libwx_gtk2u_core-2.8.so.0:_ZN13wxMenuBarBase6RemoveEm
libwx_gtk2u_core-2.8.so.0:_ZN13wxMenuBarBase7ReplaceEmP6wxMenuRK8wxString
libwx_gtk2u_core-2.8.so.0:_ZN13wxMenuBarBase8SetLabelEiRK8wxString
libwx_gtk2u_core-2.8.so.0:_ZN13wxMenuBarBaseC1Ev
libwx_gtk2u_core-2.8.so.0:_ZN13wxMenuBarBaseC2Ev
libwx_gtk2u_core-2.8.so.0:_ZN13wxMenuBarBaseD0Ev
libwx_gtk2u_core-2.8.so.0:_ZN13wxMenuBarBaseD1Ev
libwx_gtk2u_core-2.8.so.0:_ZN13wxMenuBarBaseD2Ev
libwx_gtk2u_core-2.8.so.0:_ZN13wxNotifyEvent14wxCreateObjectEv
libwx_gtk2u_core-2.8.so.0:_ZN13wxOverlayImpl10EndDrawingEP10wxWindowDC
libwx_gtk2u_core-2.8.so.0:_ZN13wxOverlayImpl12BeginDrawingEP10wxWindowDC
libwx_gtk2u_core-2.8.so.0:_ZN13wxOverlayImpl4InitEP10wxWindowDCiiii
libwx_gtk2u_core-2.8.so.0:_ZN13wxOverlayImpl4IsOkEv
libwx_gtk2u_core-2.8.so.0:_ZN13wxOverlayImpl5ClearEP10wxWindowDC
libwx_gtk2u_core-2.8.so.0:_ZN13wxOverlayImpl5ResetEv
libwx_gtk2u_core-2.8.so.0:_ZN13wxOverlayImplC1Ev
libwx_gtk2u_core-2.8.so.0:_ZN13wxOverlayImplC2Ev
libwx_gtk2u_core-2.8.so.0:_ZN13wxOverlayImplD1Ev
libwx_gtk2u_core-2.8.so.0:_ZN13wxOverlayImplD2Ev
libwx_gtk2u_core-2.8.so.0:_ZN13wxPopupWindow12DoMoveWindowEiiii
libwx_gtk2u_core-2.8.so.0:_ZN13wxPopupWindow14OnInternalIdleEv
libwx_gtk2u_core-2.8.so.0:_ZN13wxPopupWindow14wxCreateObjectEv
libwx_gtk2u_core-2.8.so.0:_ZN13wxPopupWindow4ShowEb
libwx_gtk2u_core-2.8.so.0:_ZN13wxPopupWindow6CreateEP8wxWindowi
libwx_gtk2u_core-2.8.so.0:_ZN13wxPopupWindow9DoSetSizeEiiiii
libwx_gtk2u_core-2.8.so.0:_ZN13wxPopupWindow9GtkOnSizeEv
libwx_gtk2u_core-2.8.so.0:_ZN13wxPopupWindowD0Ev
libwx_gtk2u_core-2.8.so.0:_ZN13wxPopupWindowD1Ev
libwx_gtk2u_core-2.8.so.0:_ZN13wxPopupWindowD2Ev
libwx_gtk2u_core-2.8.so.0:_ZN13wxPrintDialog10GetPrintDCEv
libwx_gtk2u_core-2.8.so.0:_ZN13wxPrintDialog12GetPrintDataEv
libwx_gtk2u_core-2.8.so.0:_ZN13wxPrintDialog18GetPrintDialogDataEv
libwx_gtk2u_core-2.8.so.0:_ZN13wxPrintDialog9ShowModalEv
libwx_gtk2u_core-2.8.so.0:_ZN13wxPrintDialogC1EP8wxWindowP11wxPrintData
libwx_gtk2u_core-2.8.so.0:_ZN13wxPrintDialogC1EP8wxWindowP17wxPrintDialogData
libwx_gtk2u_core-2.8.so.0:_ZN13wxPrintDialogC2EP8wxWindowP11wxPrintData
libwx_gtk2u_core-2.8.so.0:_ZN13wxPrintDialogC2EP8wxWindowP17wxPrintDialogData
libwx_gtk2u_core-2.8.so.0:_ZN13wxPrintDialogD0Ev
libwx_gtk2u_core-2.8.so.0:_ZN13wxPrintDialogD1Ev
libwx_gtk2u_core-2.8.so.0:_ZN13wxPrintDialogD2Ev
libwx_gtk2u_core-2.8.so.0:_ZN13wxPrinterBase11ReportErrorEP8wxWindowP10wxPrintoutRK8wxString
libwx_gtk2u_core-2.8.so.0:_ZN13wxPrinterBase17CreateAbortWindowEP8wxWindowP10wxPrintout
libwx_gtk2u_core-2.8.so.0:_ZN13wxPrinterBaseC1EP17wxPrintDialogData
libwx_gtk2u_core-2.8.so.0:_ZN13wxPrinterBaseC2EP17wxPrintDialogData
libwx_gtk2u_core-2.8.so.0:_ZN13wxPrinterBaseD0Ev
libwx_gtk2u_core-2.8.so.0:_ZN13wxPrinterBaseD1Ev
libwx_gtk2u_core-2.8.so.0:_ZN13wxPrinterBaseD2Ev
libwx_gtk2u_core-2.8.so.0:_ZN13wxRadioButton14wxCreateObjectEv
libwx_gtk2u_core-2.8.so.0:_ZN13wxRadioButton18DoApplyWidgetStyleEP11_GtkRcStyle
libwx_gtk2u_core-2.8.so.0:_ZN13wxRadioButton25GetClassDefaultAttributesE15wxWindowVariant
libwx_gtk2u_core-2.8.so.0:_ZN13wxRadioButton6CreateEP8wxWindowiRK8wxStringRK7wxPointRK6wxSizelRK11wxValidatorS4_
libwx_gtk2u_core-2.8.so.0:_ZN13wxRadioButton6EnableEb
libwx_gtk2u_core-2.8.so.0:_ZN13wxRadioButton8SetLabelERK8wxString
libwx_gtk2u_core-2.8.so.0:_ZN13wxRadioButton8SetValueEb
libwx_gtk2u_core-2.8.so.0:_ZN13wxRendererGTK12DrawCheckBoxEP8wxWindowR4wxDCRK6wxRecti
libwx_gtk2u_core-2.8.so.0:_ZN13wxRendererGTK13DrawDropArrowEP8wxWindowR4wxDCRK6wxRecti
libwx_gtk2u_core-2.8.so.0:_ZN13wxRendererGTK13GetTreeWidgetEv
libwx_gtk2u_core-2.8.so.0:_ZN13wxRendererGTK14DrawPushButtonEP8wxWindowR4wxDCRK6wxRecti
libwx_gtk2u_core-2.8.so.0:_ZN13wxRendererGTK15GetButtonWidgetEv
libwx_gtk2u_core-2.8.so.0:_ZN13wxRendererGTK16DrawHeaderButtonEP8wxWindowR4wxDCRK6wxRecti20wxHeaderSortIconTypeP20wxHeaderButtonParams
libwx_gtk2u_core-2.8.so.0:_ZN13wxRendererGTK16DrawSplitterSashEP8wxWindowR4wxDCRK6wxSizei13wxOrientationi
libwx_gtk2u_core-2.8.so.0:_ZN13wxRendererGTK17GetComboBoxWidgetEv
libwx_gtk2u_core-2.8.so.0:_ZN13wxRendererGTK17GetSplitterParamsEPK8wxWindow
libwx_gtk2u_core-2.8.so.0:_ZN13wxRendererGTK18DrawSplitterBorderEP8wxWindowR4wxDCRK6wxRecti
libwx_gtk2u_core-2.8.so.0:_ZN13wxRendererGTK18DrawTreeItemButtonEP8wxWindowR4wxDCRK6wxRecti
libwx_gtk2u_core-2.8.so.0:_ZN13wxRendererGTK18GetTextEntryWidgetEv
libwx_gtk2u_core-2.8.so.0:_ZN13wxRendererGTK20GetCheckButtonWidgetEv
libwx_gtk2u_core-2.8.so.0:_ZN13wxRendererGTK20GetRadioButtonWidgetEv
libwx_gtk2u_core-2.8.so.0:_ZN13wxRendererGTK21DrawItemSelectionRectEP8wxWindowR4wxDCRK6wxRecti
libwx_gtk2u_core-2.8.so.0:_ZN13wxRendererGTK21GetHeaderButtonWidgetEv
libwx_gtk2u_core-2.8.so.0:_ZN13wxRendererGTK22DrawComboBoxDropButtonEP8wxWindowR4wxDCRK6wxRecti
libwx_gtk2u_core-2.8.so.0:_ZN13wxRendererPtr3GetEv
libwx_gtk2u_core-2.8.so.0:_ZN13wxScrollEvent14wxCreateObjectEv
libwx_gtk2u_core-2.8.so.0:_ZN13wxScrollEventC1Eiiii
libwx_gtk2u_core-2.8.so.0:_ZN13wxScrollEventC2Eiiii
libwx_gtk2u_core-2.8.so.0:_ZN13wxTIFFHandler13GetImageCountER13wxInputStream
libwx_gtk2u_core-2.8.so.0:_ZN13wxTIFFHandler14wxCreateObjectEv
libwx_gtk2u_core-2.8.so.0:_ZN13wxTIFFHandler8LoadFileEP7wxImageR13wxInputStreambi
libwx_gtk2u_core-2.8.so.0:_ZN13wxTIFFHandler8SaveFileEP7wxImageR14wxOutputStreamb
libwx_gtk2u_core-2.8.so.0:_ZN13wxTIFFHandler9DoCanReadER13wxInputStream
libwx_gtk2u_core-2.8.so.0:_ZN13wxTIFFHandlerC1Ev
libwx_gtk2u_core-2.8.so.0:_ZN13wxTIFFHandlerC2Ev
libwx_gtk2u_core-2.8.so.0:_ZN13wxTextWrapper4WrapEP8wxWindowRK8wxStringi
libwx_gtk2u_core-2.8.so.0:_ZN13wxToolBarBase10AddControlEP9wxControl
libwx_gtk2u_core-2.8.so.0:_ZN13wxToolBarBase10ClearToolsEv
libwx_gtk2u_core-2.8.so.0:_ZN13wxToolBarBase10DeleteToolEi
libwx_gtk2u_core-2.8.so.0:_ZN13wxToolBarBase10EnableToolEib
libwx_gtk2u_core-2.8.so.0:_ZN13wxToolBarBase10FixupStyleEv
libwx_gtk2u_core-2.8.so.0:_ZN13wxToolBarBase10InsertToolEmP17wxToolBarToolBase
libwx_gtk2u_core-2.8.so.0:_ZN13wxToolBarBase10InsertToolEmiRK8wxStringRK8wxBitmapS5_10wxItemKindS2_S2_P8wxObject
libwx_gtk2u_core-2.8.so.0:_ZN13wxToolBarBase10RemoveToolEi
libwx_gtk2u_core-2.8.so.0:_ZN13wxToolBarBase10SetMarginsEii
libwx_gtk2u_core-2.8.so.0:_ZN13wxToolBarBase10ToggleToolEib
libwx_gtk2u_core-2.8.so.0:_ZN13wxToolBarBase11FindControlEi
libwx_gtk2u_core-2.8.so.0:_ZN13wxToolBarBase11OnLeftClickEib
libwx_gtk2u_core-2.8.so.0:_ZN13wxToolBarBase12AddSeparatorEv
libwx_gtk2u_core-2.8.so.0:_ZN13wxToolBarBase12OnMouseEnterEi
libwx_gtk2u_core-2.8.so.0:_ZN13wxToolBarBase12OnRightClickEill
libwx_gtk2u_core-2.8.so.0:_ZN13wxToolBarBase13InsertControlEmP9wxControl
libwx_gtk2u_core-2.8.so.0:_ZN13wxToolBarBase14UpdateWindowUIEl
libwx_gtk2u_core-2.8.so.0:_ZN13wxToolBarBase15DeleteToolByPosEm
libwx_gtk2u_core-2.8.so.0:_ZN13wxToolBarBase15InsertSeparatorEm
libwx_gtk2u_core-2.8.so.0:_ZN13wxToolBarBase15SetToolLongHelpEiRK8wxString
libwx_gtk2u_core-2.8.so.0:_ZN13wxToolBarBase16SetToolShortHelpEiRK8wxString
libwx_gtk2u_core-2.8.so.0:_ZN13wxToolBarBase17SetToolClientDataEiP8wxObject
libwx_gtk2u_core-2.8.so.0:_ZN13wxToolBarBase18UnToggleRadioGroupEP17wxToolBarToolBase
libwx_gtk2u_core-2.8.so.0:_ZN13wxToolBarBase7AddToolEP17wxToolBarToolBase
libwx_gtk2u_core-2.8.so.0:_ZN13wxToolBarBase7RealizeEv
libwx_gtk2u_core-2.8.so.0:_ZN13wxToolBarBase7SetRowsEi
libwx_gtk2u_core-2.8.so.0:_ZN13wxToolBarBase9DoAddToolEiRK8wxStringRK8wxBitmapS5_10wxItemKindS2_S2_P8wxObjectii
libwx_gtk2u_core-2.8.so.0:_ZN13wxToolBarBase9SetToggleEib
libwx_gtk2u_core-2.8.so.0:_ZN13wxToolBarBaseC1Ev
libwx_gtk2u_core-2.8.so.0:_ZN13wxToolBarBaseC2Ev
libwx_gtk2u_core-2.8.so.0:_ZN13wxToolBarBaseD0Ev
libwx_gtk2u_core-2.8.so.0:_ZN13wxToolBarBaseD1Ev
libwx_gtk2u_core-2.8.so.0:_ZN13wxToolBarBaseD2Ev
libwx_gtk2u_core-2.8.so.0:_ZN13wxToolBarTool4InitEv
libwx_gtk2u_core-2.8.so.0:_ZN14wxArtGtkModule14wxCreateObjectEv
libwx_gtk2u_core-2.8.so.0:_ZN14wxBitmapButton10SetDefaultEv
libwx_gtk2u_core-2.8.so.0:_ZN14wxBitmapButton11OnSetBitmapEv
libwx_gtk2u_core-2.8.so.0:_ZN14wxBitmapButton11StartSelectEv
libwx_gtk2u_core-2.8.so.0:_ZN14wxBitmapButton13OnFocusChangeER12wxFocusEvent
libwx_gtk2u_core-2.8.so.0:_ZN14wxBitmapButton14wxCreateObjectEv
libwx_gtk2u_core-2.8.so.0:_ZN14wxBitmapButton18DoApplyWidgetStyleEP11_GtkRcStyle
libwx_gtk2u_core-2.8.so.0:_ZN14wxBitmapButton4InitEv
libwx_gtk2u_core-2.8.so.0:_ZN14wxBitmapButton6CreateEP8wxWindowiRK8wxBitmapRK7wxPointRK6wxSizelRK11wxValidatorRK8wxString
libwx_gtk2u_core-2.8.so.0:_ZN14wxBitmapButton6EnableEb
libwx_gtk2u_core-2.8.so.0:_ZN14wxBitmapButton8HasFocusEv
libwx_gtk2u_core-2.8.so.0:_ZN14wxBitmapButton8NotFocusEv
libwx_gtk2u_core-2.8.so.0:_ZN14wxBitmapButton8SetLabelERK8wxString
libwx_gtk2u_core-2.8.so.0:_ZN14wxBitmapButton9EndSelectEv
libwx_gtk2u_core-2.8.so.0:_ZN14wxBookCtrlBase10DeletePageEm
libwx_gtk2u_core-2.8.so.0:_ZN14wxBookCtrlBase10InsertPageEmP8wxWindowRK8wxStringbi
libwx_gtk2u_core-2.8.so.0:_ZN14wxBookCtrlBase11SetPageSizeERK6wxSize
libwx_gtk2u_core-2.8.so.0:_ZN14wxBookCtrlBase12DoRemovePageEm
libwx_gtk2u_core-2.8.so.0:_ZN14wxBookCtrlBase12SetImageListEP11wxImageList
libwx_gtk2u_core-2.8.so.0:_ZN14wxBookCtrlBase14DoSetSelectionEmi
libwx_gtk2u_core-2.8.so.0:_ZN14wxBookCtrlBase15AssignImageListEP11wxImageList
libwx_gtk2u_core-2.8.so.0:_ZN14wxBookCtrlBase20DoInvalidateBestSizeEv
libwx_gtk2u_core-2.8.so.0:_ZN14wxBookCtrlBase4InitEv
libwx_gtk2u_core-2.8.so.0:_ZN14wxBookCtrlBase6CreateEP8wxWindowiRK7wxPointRK6wxSizelRK8wxString
libwx_gtk2u_core-2.8.so.0:_ZN14wxBookCtrlBase6DoSizeEv
libwx_gtk2u_core-2.8.so.0:_ZN14wxBookCtrlBase6OnHelpER11wxHelpEvent
libwx_gtk2u_core-2.8.so.0:_ZN14wxBookCtrlBase6OnSizeER11wxSizeEvent
libwx_gtk2u_core-2.8.so.0:_ZN14wxBookCtrlBaseD0Ev
libwx_gtk2u_core-2.8.so.0:_ZN14wxBookCtrlBaseD1Ev
libwx_gtk2u_core-2.8.so.0:_ZN14wxBookCtrlBaseD2Ev
libwx_gtk2u_core-2.8.so.0:_ZN14wxCheckListBox14wxCreateObjectEv
libwx_gtk2u_core-2.8.so.0:_ZN14wxCheckListBox17DoCreateCheckListEv
libwx_gtk2u_core-2.8.so.0:_ZN14wxCheckListBox5CheckEjb
libwx_gtk2u_core-2.8.so.0:_ZN14wxCheckListBoxC1EP8wxWindowiRK7wxPointRK6wxSizeRK13wxArrayStringlRK11wxValidatorRK8wxString
libwx_gtk2u_core-2.8.so.0:_ZN14wxCheckListBoxC1EP8wxWindowiRK7wxPointRK6wxSizeiPK8wxStringlRK11wxValidatorRS9_
libwx_gtk2u_core-2.8.so.0:_ZN14wxCheckListBoxC1Ev
libwx_gtk2u_core-2.8.so.0:_ZN14wxCheckListBoxC2EP8wxWindowiRK7wxPointRK6wxSizeRK13wxArrayStringlRK11wxValidatorRK8wxString
libwx_gtk2u_core-2.8.so.0:_ZN14wxCheckListBoxC2EP8wxWindowiRK7wxPointRK6wxSizeiPK8wxStringlRK11wxValidatorRS9_
libwx_gtk2u_core-2.8.so.0:_ZN14wxCheckListBoxC2Ev
libwx_gtk2u_core-2.8.so.0:_ZN14wxColourButton12UpdateColourEv
libwx_gtk2u_core-2.8.so.0:_ZN14wxColourButton14wxCreateObjectEv
libwx_gtk2u_core-2.8.so.0:_ZN14wxColourButton6CreateEP8wxWindowiRK8wxColourRK7wxPointRK6wxSizelRK11wxValidatorRK8wxString
libwx_gtk2u_core-2.8.so.0:_ZN14wxColourButtonD0Ev
libwx_gtk2u_core-2.8.so.0:_ZN14wxColourButtonD1Ev
libwx_gtk2u_core-2.8.so.0:_ZN14wxColourButtonD2Ev
libwx_gtk2u_core-2.8.so.0:_ZN14wxColourDialog14wxCreateObjectEv
libwx_gtk2u_core-2.8.so.0:_ZN14wxColourDialog18ColourDataToDialogEv
libwx_gtk2u_core-2.8.so.0:_ZN14wxColourDialog18DialogToColourDataEv
libwx_gtk2u_core-2.8.so.0:_ZN14wxColourDialog6CreateEP8wxWindowP12wxColourData
libwx_gtk2u_core-2.8.so.0:_ZN14wxColourDialog9ShowModalEv
libwx_gtk2u_core-2.8.so.0:_ZN14wxColourDialogC1EP8wxWindowP12wxColourData
libwx_gtk2u_core-2.8.so.0:_ZN14wxColourDialogC2EP8wxWindowP12wxColourData
libwx_gtk2u_core-2.8.so.0:_ZN14wxCommandEvent14wxCreateObjectEv
libwx_gtk2u_core-2.8.so.0:_ZN14wxCommandEventC1Eii
libwx_gtk2u_core-2.8.so.0:_ZN14wxCommandEventC2Eii
libwx_gtk2u_core-2.8.so.0:_ZN14wxEventLoopPtrD1Ev
libwx_gtk2u_core-2.8.so.0:_ZN14wxEventLoopPtrD2Ev
libwx_gtk2u_core-2.8.so.0:_ZN14wxGUIAppTraits12WaitForChildER13wxExecuteData
libwx_gtk2u_core-2.8.so.0:_ZN14wxGUIAppTraits20CreateEndProcessPipeER13wxExecuteData
libwx_gtk2u_core-2.8.so.0:_ZN14wxGUIAppTraits25IsWriteFDOfEndProcessPipeER13wxExecuteDatai
libwx_gtk2u_core-2.8.so.0:_ZN14wxGUIAppTraits29DetachWriteFDOfEndProcessPipeER13wxExecuteData
libwx_gtk2u_core-2.8.so.0:_ZN14wxGridBagSizer11GetItemSpanEP7wxSizer
libwx_gtk2u_core-2.8.so.0:_ZN14wxGridBagSizer11GetItemSpanEP8wxWindow
libwx_gtk2u_core-2.8.so.0:_ZN14wxGridBagSizer11GetItemSpanEm
libwx_gtk2u_core-2.8.so.0:_ZN14wxGridBagSizer11RecalcSizesEv
libwx_gtk2u_core-2.8.so.0:_ZN14wxGridBagSizer11SetItemSpanEP7wxSizerRK8wxGBSpan
libwx_gtk2u_core-2.8.so.0:_ZN14wxGridBagSizer11SetItemSpanEP8wxWindowRK8wxGBSpan
libwx_gtk2u_core-2.8.so.0:_ZN14wxGridBagSizer11SetItemSpanEmRK8wxGBSpan
libwx_gtk2u_core-2.8.so.0:_ZN14wxGridBagSizer13FindEmptyCellEv
libwx_gtk2u_core-2.8.so.0:_ZN14wxGridBagSizer15FindItemAtPointERK7wxPoint
libwx_gtk2u_core-2.8.so.0:_ZN14wxGridBagSizer15GetItemPositionEP7wxSizer
libwx_gtk2u_core-2.8.so.0:_ZN14wxGridBagSizer15GetItemPositionEP8wxWindow
libwx_gtk2u_core-2.8.so.0:_ZN14wxGridBagSizer15GetItemPositionEm
libwx_gtk2u_core-2.8.so.0:_ZN14wxGridBagSizer15SetItemPositionEP7wxSizerRK12wxGBPosition
libwx_gtk2u_core-2.8.so.0:_ZN14wxGridBagSizer15SetItemPositionEP8wxWindowRK12wxGBPosition
libwx_gtk2u_core-2.8.so.0:_ZN14wxGridBagSizer15SetItemPositionEmRK12wxGBPosition
libwx_gtk2u_core-2.8.so.0:_ZN14wxGridBagSizer16FindItemWithDataEPK8wxObject
libwx_gtk2u_core-2.8.so.0:_ZN14wxGridBagSizer17AdjustForOverflowEv
libwx_gtk2u_core-2.8.so.0:_ZN14wxGridBagSizer18FindItemAtPositionERK12wxGBPosition
libwx_gtk2u_core-2.8.so.0:_ZN14wxGridBagSizer20CheckForIntersectionEP13wxGBSizerItemS1_
libwx_gtk2u_core-2.8.so.0:_ZN14wxGridBagSizer20CheckForIntersectionERK12wxGBPositionRK8wxGBSpanP13wxGBSizerItem
libwx_gtk2u_core-2.8.so.0:_ZN14wxGridBagSizer3AddEP11wxSizerItem
libwx_gtk2u_core-2.8.so.0:_ZN14wxGridBagSizer3AddEP13wxGBSizerItem
libwx_gtk2u_core-2.8.so.0:_ZN14wxGridBagSizer3AddEP7wxSizerRK12wxGBPositionRK8wxGBSpaniiP8wxObject
libwx_gtk2u_core-2.8.so.0:_ZN14wxGridBagSizer3AddEP7wxSizeriiiP8wxObject
libwx_gtk2u_core-2.8.so.0:_ZN14wxGridBagSizer3AddEP8wxWindowRK12wxGBPositionRK8wxGBSpaniiP8wxObject
libwx_gtk2u_core-2.8.so.0:_ZN14wxGridBagSizer3AddEP8wxWindowiiiP8wxObject
libwx_gtk2u_core-2.8.so.0:_ZN14wxGridBagSizer3AddEiiRK12wxGBPositionRK8wxGBSpaniiP8wxObject
libwx_gtk2u_core-2.8.so.0:_ZN14wxGridBagSizer3AddEiiiiiP8wxObject
libwx_gtk2u_core-2.8.so.0:_ZN14wxGridBagSizer6InsertEmP11wxSizerItem
libwx_gtk2u_core-2.8.so.0:_ZN14wxGridBagSizer6InsertEmP7wxSizeriiiP8wxObject
libwx_gtk2u_core-2.8.so.0:_ZN14wxGridBagSizer6InsertEmP8wxWindowiiiP8wxObject
libwx_gtk2u_core-2.8.so.0:_ZN14wxGridBagSizer6InsertEmiiiiiP8wxObject
libwx_gtk2u_core-2.8.so.0:_ZN14wxGridBagSizer7CalcMinEv
libwx_gtk2u_core-2.8.so.0:_ZN14wxGridBagSizer7PrependEP11wxSizerItem
libwx_gtk2u_core-2.8.so.0:_ZN14wxGridBagSizer7PrependEP7wxSizeriiiP8wxObject
libwx_gtk2u_core-2.8.so.0:_ZN14wxGridBagSizer7PrependEP8wxWindowiiiP8wxObject
libwx_gtk2u_core-2.8.so.0:_ZN14wxGridBagSizer7PrependEiiiiiP8wxObject
libwx_gtk2u_core-2.8.so.0:_ZN14wxGridBagSizer8FindItemEP7wxSizer
libwx_gtk2u_core-2.8.so.0:_ZN14wxGridBagSizer8FindItemEP8wxWindow
libwx_gtk2u_core-2.8.so.0:_ZN14wxGridBagSizerC1Eii
libwx_gtk2u_core-2.8.so.0:_ZN14wxGridBagSizerC2Eii
libwx_gtk2u_core-2.8.so.0:_ZN14wxHelpProvider10RemoveHelpEP12wxWindowBase
libwx_gtk2u_core-2.8.so.0:_ZN14wxHelpProvider23GetHelpTextMaybeAtPointEP12wxWindowBase
libwx_gtk2u_core-2.8.so.0:_ZN14wxHelpProvider7AddHelpEP12wxWindowBaseRK8wxString
libwx_gtk2u_core-2.8.so.0:_ZN14wxHelpProvider7AddHelpEiRK8wxString
libwx_gtk2u_core-2.8.so.0:_ZN14wxHelpProviderD0Ev
libwx_gtk2u_core-2.8.so.0:_ZN14wxHelpProviderD1Ev
libwx_gtk2u_core-2.8.so.0:_ZN14wxHelpProviderD2Ev
libwx_gtk2u_core-2.8.so.0:_ZN14wxIconizeEvent14wxCreateObjectEv
libwx_gtk2u_core-2.8.so.0:_ZN14wxImageHandler13CallDoCanReadER13wxInputStream
libwx_gtk2u_core-2.8.so.0:_ZN14wxImageHandler13GetImageCountER13wxInputStream
libwx_gtk2u_core-2.8.so.0:_ZN14wxImageHandler7CanReadERK8wxString
libwx_gtk2u_core-2.8.so.0:_ZN14wxImageHandler8LoadFileEP7wxImageR13wxInputStreambi
libwx_gtk2u_core-2.8.so.0:_ZN14wxImageHandler8SaveFileEP7wxImageR14wxOutputStreamb
libwx_gtk2u_core-2.8.so.0:_ZN14wxImageRefDataC1Ev
libwx_gtk2u_core-2.8.so.0:_ZN14wxImageRefDataC2Ev
libwx_gtk2u_core-2.8.so.0:_ZN14wxImageRefDataD0Ev
libwx_gtk2u_core-2.8.so.0:_ZN14wxImageRefDataD1Ev
libwx_gtk2u_core-2.8.so.0:_ZN14wxImageRefDataD2Ev
libwx_gtk2u_core-2.8.so.0:_ZN14wxListItemData11SetPositionEii
libwx_gtk2u_core-2.8.so.0:_ZN14wxListItemData4InitEv
libwx_gtk2u_core-2.8.so.0:_ZN14wxListItemData7SetItemERK10wxListItem
libwx_gtk2u_core-2.8.so.0:_ZN14wxListItemData7SetSizeEii
libwx_gtk2u_core-2.8.so.0:_ZN14wxListItemDataC1EP16wxListMainWindow
libwx_gtk2u_core-2.8.so.0:_ZN14wxListItemDataC2EP16wxListMainWindow
libwx_gtk2u_core-2.8.so.0:_ZN14wxListItemDataD1Ev
libwx_gtk2u_core-2.8.so.0:_ZN14wxListItemDataD2Ev
libwx_gtk2u_core-2.8.so.0:_ZN14wxListLineData11SetPositionEiii
libwx_gtk2u_core-2.8.so.0:_ZN14wxListLineData13CalculateSizeEP4wxDCi
libwx_gtk2u_core-2.8.so.0:_ZN14wxListLineData13SetAttributesEP4wxDCPK14wxListItemAttrb
libwx_gtk2u_core-2.8.so.0:_ZN14wxListLineData16DrawInReportModeEP4wxDCRK6wxRectS4_b
libwx_gtk2u_core-2.8.so.0:_ZN14wxListLineData16ReverseHighlightEv
libwx_gtk2u_core-2.8.so.0:_ZN14wxListLineData17DrawTextFormattedEP4wxDCRK8wxStringiiii
libwx_gtk2u_core-2.8.so.0:_ZN14wxListLineData4DrawEP4wxDC
libwx_gtk2u_core-2.8.so.0:_ZN14wxListLineData7GetItemEiR10wxListItem
libwx_gtk2u_core-2.8.so.0:_ZN14wxListLineData7SetAttrEP14wxListItemAttr
libwx_gtk2u_core-2.8.so.0:_ZN14wxListLineData7SetItemEiRK10wxListItem
libwx_gtk2u_core-2.8.so.0:_ZN14wxListLineData7SetTextEiRK8wxString
libwx_gtk2u_core-2.8.so.0:_ZN14wxListLineData8SetImageEii
libwx_gtk2u_core-2.8.so.0:_ZN14wxListLineData9HighlightEb
libwx_gtk2u_core-2.8.so.0:_ZN14wxListLineData9InitItemsEi
libwx_gtk2u_core-2.8.so.0:_ZN14wxListLineDataC1EP16wxListMainWindow
libwx_gtk2u_core-2.8.so.0:_ZN14wxListLineDataC2EP16wxListMainWindow
libwx_gtk2u_core-2.8.so.0:_ZN14wxMenuItemBase12GetLabelTextERK8wxString
libwx_gtk2u_core-2.8.so.0:_ZN14wxMenuItemBase16GetLabelFromTextERK8wxString
libwx_gtk2u_core-2.8.so.0:_ZN14wxMenuItemBase3NewEP6wxMenuiRK8wxStringS4_10wxItemKindS1_
libwx_gtk2u_core-2.8.so.0:_ZN14wxMenuItemBase7SetHelpERK8wxString
libwx_gtk2u_core-2.8.so.0:_ZN14wxMenuItemBase7SetTextERK8wxString
libwx_gtk2u_core-2.8.so.0:_ZN14wxMenuItemBase8SetAccelEP18wxAcceleratorEntry
libwx_gtk2u_core-2.8.so.0:_ZN14wxMenuItemBaseC1EP6wxMenuiRK8wxStringS4_10wxItemKindS1_
libwx_gtk2u_core-2.8.so.0:_ZN14wxMenuItemBaseC2EP6wxMenuiRK8wxStringS4_10wxItemKindS1_
libwx_gtk2u_core-2.8.so.0:_ZN14wxMenuItemBaseD0Ev
libwx_gtk2u_core-2.8.so.0:_ZN14wxMenuItemBaseD1Ev
libwx_gtk2u_core-2.8.so.0:_ZN14wxMenuItemBaseD2Ev
libwx_gtk2u_core-2.8.so.0:_ZN14wxNcPaintEvent14wxCreateObjectEv
libwx_gtk2u_core-2.8.so.0:_ZN14wxNotebookBase20SendPageChangedEventEii
libwx_gtk2u_core-2.8.so.0:_ZN14wxNotebookBase21SendPageChangingEventEi
libwx_gtk2u_core-2.8.so.0:_ZN14wxPostScriptDC10DoDrawIconERK6wxIconii
libwx_gtk2u_core-2.8.so.0:_ZN14wxPostScriptDC10DoDrawLineEiiii
libwx_gtk2u_core-2.8.so.0:_ZN14wxPostScriptDC10DoDrawTextERK8wxStringii
libwx_gtk2u_core-2.8.so.0:_ZN14wxPostScriptDC11DoCrossHairEii
libwx_gtk2u_core-2.8.so.0:_ZN14wxPostScriptDC11DoDrawLinesEiP7wxPointii
libwx_gtk2u_core-2.8.so.0:_ZN14wxPostScriptDC11DoDrawPointEii
libwx_gtk2u_core-2.8.so.0:_ZN14wxPostScriptDC11DoFloodFillEiiRK8wxColouri
libwx_gtk2u_core-2.8.so.0:_ZN14wxPostScriptDC12DoDrawBitmapERK8wxBitmapiib
libwx_gtk2u_core-2.8.so.0:_ZN14wxPostScriptDC12DoDrawSplineEP6wxList
libwx_gtk2u_core-2.8.so.0:_ZN14wxPostScriptDC13DoDrawEllipseEiiii
libwx_gtk2u_core-2.8.so.0:_ZN14wxPostScriptDC13DoDrawPolygonEiP7wxPointiii
libwx_gtk2u_core-2.8.so.0:_ZN14wxPostScriptDC13GetResolutionEv
libwx_gtk2u_core-2.8.so.0:_ZN14wxPostScriptDC13SetBackgroundERK7wxBrush
libwx_gtk2u_core-2.8.so.0:_ZN14wxPostScriptDC13SetResolutionEi
libwx_gtk2u_core-2.8.so.0:_ZN14wxPostScriptDC14wxCreateObjectEv
libwx_gtk2u_core-2.8.so.0:_ZN14wxPostScriptDC15DoDrawRectangleEiiii
libwx_gtk2u_core-2.8.so.0:_ZN14wxPostScriptDC15SetDeviceOriginEii
libwx_gtk2u_core-2.8.so.0:_ZN14wxPostScriptDC17DoDrawEllipticArcEiiiidd
libwx_gtk2u_core-2.8.so.0:_ZN14wxPostScriptDC17DoDrawPolyPolygonEiPiP7wxPointiii
libwx_gtk2u_core-2.8.so.0:_ZN14wxPostScriptDC17DoDrawRotatedTextERK8wxStringiid
libwx_gtk2u_core-2.8.so.0:_ZN14wxPostScriptDC18SetAxisOrientationEbb
libwx_gtk2u_core-2.8.so.0:_ZN14wxPostScriptDC18SetLogicalFunctionEi
libwx_gtk2u_core-2.8.so.0:_ZN14wxPostScriptDC19DoSetClippingRegionEiiii
libwx_gtk2u_core-2.8.so.0:_ZN14wxPostScriptDC21DestroyClippingRegionEv
libwx_gtk2u_core-2.8.so.0:_ZN14wxPostScriptDC22DoDrawRoundedRectangleEiiiid
libwx_gtk2u_core-2.8.so.0:_ZN14wxPostScriptDC5ClearEv
libwx_gtk2u_core-2.8.so.0:_ZN14wxPostScriptDC6DoBlitEiiiiP4wxDCiiibii
libwx_gtk2u_core-2.8.so.0:_ZN14wxPostScriptDC6EndDocEv
libwx_gtk2u_core-2.8.so.0:_ZN14wxPostScriptDC6SetPenERK5wxPen
libwx_gtk2u_core-2.8.so.0:_ZN14wxPostScriptDC7EndPageEv
libwx_gtk2u_core-2.8.so.0:_ZN14wxPostScriptDC7PsPrintEPKc
libwx_gtk2u_core-2.8.so.0:_ZN14wxPostScriptDC7PsPrintEi
libwx_gtk2u_core-2.8.so.0:_ZN14wxPostScriptDC7SetFontERK6wxFont
libwx_gtk2u_core-2.8.so.0:_ZN14wxPostScriptDC8PsPrintfEPKwz
libwx_gtk2u_core-2.8.so.0:_ZN14wxPostScriptDC8SetBrushERK7wxBrush
libwx_gtk2u_core-2.8.so.0:_ZN14wxPostScriptDC8StartDocERK8wxString
libwx_gtk2u_core-2.8.so.0:_ZN14wxPostScriptDC9DoDrawArcEiiiiii
libwx_gtk2u_core-2.8.so.0:_ZN14wxPostScriptDC9StartPageEv
libwx_gtk2u_core-2.8.so.0:_ZN14wxPostScriptDCC1ERK11wxPrintData
libwx_gtk2u_core-2.8.so.0:_ZN14wxPostScriptDCC1Ev
libwx_gtk2u_core-2.8.so.0:_ZN14wxPostScriptDCC2ERK11wxPrintData
libwx_gtk2u_core-2.8.so.0:_ZN14wxPostScriptDCC2Ev
libwx_gtk2u_core-2.8.so.0:_ZN14wxPostScriptDCD0Ev
libwx_gtk2u_core-2.8.so.0:_ZN14wxPostScriptDCD1Ev
libwx_gtk2u_core-2.8.so.0:_ZN14wxPostScriptDCD2Ev
libwx_gtk2u_core-2.8.so.0:_ZN14wxPreviewFrame10InitializeEv
libwx_gtk2u_core-2.8.so.0:_ZN14wxPreviewFrame12CreateCanvasEv
libwx_gtk2u_core-2.8.so.0:_ZN14wxPreviewFrame13OnCloseWindowER12wxCloseEvent
libwx_gtk2u_core-2.8.so.0:_ZN14wxPreviewFrame16CreateControlBarEv
libwx_gtk2u_core-2.8.so.0:_ZN14wxPreviewFrameC1EP18wxPrintPreviewBaseP8wxWindowRK8wxStringRK7wxPointRK6wxSizelS6_
libwx_gtk2u_core-2.8.so.0:_ZN14wxPreviewFrameC2EP18wxPrintPreviewBaseP8wxWindowRK8wxStringRK7wxPointRK6wxSizelS6_
libwx_gtk2u_core-2.8.so.0:_ZN14wxPreviewFrameD0Ev
libwx_gtk2u_core-2.8.so.0:_ZN14wxPreviewFrameD1Ev
libwx_gtk2u_core-2.8.so.0:_ZN14wxPreviewFrameD2Ev
libwx_gtk2u_core-2.8.so.0:_ZN14wxPrintFactory10GetFactoryEv
libwx_gtk2u_core-2.8.so.0:_ZN14wxPrintFactory15SetPrintFactoryEPS_
libwx_gtk2u_core-2.8.so.0:_ZN14wxPrintPreview10RenderPageEi
libwx_gtk2u_core-2.8.so.0:_ZN14wxPrintPreview11SetPrintoutEP10wxPrintout
libwx_gtk2u_core-2.8.so.0:_ZN14wxPrintPreview13DrawBlankPageEP15wxPreviewCanvasR4wxDC
libwx_gtk2u_core-2.8.so.0:_ZN14wxPrintPreview14SetCurrentPageEi
libwx_gtk2u_core-2.8.so.0:_ZN14wxPrintPreview16AdjustScrollbarsEP15wxPreviewCanvas
libwx_gtk2u_core-2.8.so.0:_ZN14wxPrintPreview16DetermineScalingEv
libwx_gtk2u_core-2.8.so.0:_ZN14wxPrintPreview18GetPrintDialogDataEv
libwx_gtk2u_core-2.8.so.0:_ZN14wxPrintPreview5PrintEb
libwx_gtk2u_core-2.8.so.0:_ZN14wxPrintPreview5SetOkEb
libwx_gtk2u_core-2.8.so.0:_ZN14wxPrintPreview7SetZoomEi
libwx_gtk2u_core-2.8.so.0:_ZN14wxPrintPreview8SetFrameEP7wxFrame
libwx_gtk2u_core-2.8.so.0:_ZN14wxPrintPreview9PaintPageEP15wxPreviewCanvasR4wxDC
libwx_gtk2u_core-2.8.so.0:_ZN14wxPrintPreview9SetCanvasEP15wxPreviewCanvas
libwx_gtk2u_core-2.8.so.0:_ZN14wxPrintPreviewC1EP10wxPrintoutS1_P11wxPrintData
libwx_gtk2u_core-2.8.so.0:_ZN14wxPrintPreviewC1EP10wxPrintoutS1_P17wxPrintDialogData
libwx_gtk2u_core-2.8.so.0:_ZN14wxPrintPreviewC2EP10wxPrintoutS1_P11wxPrintData
libwx_gtk2u_core-2.8.so.0:_ZN14wxPrintPreviewC2EP10wxPrintoutS1_P17wxPrintDialogData
libwx_gtk2u_core-2.8.so.0:_ZN14wxPrintPreviewD0Ev
libwx_gtk2u_core-2.8.so.0:_ZN14wxPrintPreviewD1Ev
libwx_gtk2u_core-2.8.so.0:_ZN14wxPrintPreviewD2Ev
libwx_gtk2u_core-2.8.so.0:_ZN14wxRadioBoxBase11SetMajorDimEjl
libwx_gtk2u_core-2.8.so.0:_ZN14wxRadioBoxBase14SetItemToolTipEjRK8wxString
libwx_gtk2u_core-2.8.so.0:_ZN14wxRadioBoxBase15SetItemHelpTextEjRK8wxString
libwx_gtk2u_core-2.8.so.0:_ZN14wxRadioBoxBase16DoSetItemToolTipEjP9wxToolTip
libwx_gtk2u_core-2.8.so.0:_ZN14wxRadioBoxBaseD0Ev
libwx_gtk2u_core-2.8.so.0:_ZN14wxRadioBoxBaseD1Ev
libwx_gtk2u_core-2.8.so.0:_ZN14wxRadioBoxBaseD2Ev
libwx_gtk2u_core-2.8.so.0:_ZN14wxRect2DDouble11ConstrainToERKS_
libwx_gtk2u_core-2.8.so.0:_ZN14wxRect2DDouble5UnionERK15wxPoint2DDouble
libwx_gtk2u_core-2.8.so.0:_ZN14wxRect2DDouble5UnionERKS_S1_PS_
libwx_gtk2u_core-2.8.so.0:_ZN14wxRect2DDouble9IntersectERKS_S1_PS_
libwx_gtk2u_core-2.8.so.0:_ZN14wxRect2DDoubleaSERKS_
libwx_gtk2u_core-2.8.so.0:_ZN14wxScrollHelper11DoPrepareDCER4wxDC
libwx_gtk2u_core-2.8.so.0:_ZN14wxScrollHelper12HandleOnCharER10wxKeyEvent
libwx_gtk2u_core-2.8.so.0:_ZN14wxScrollHelper12HandleOnSizeER11wxSizeEvent
libwx_gtk2u_core-2.8.so.0:_ZN14wxScrollHelper12ScrollLayoutEv
libwx_gtk2u_core-2.8.so.0:_ZN14wxScrollHelper13CalcScrollIncER16wxScrollWinEvent
libwx_gtk2u_core-2.8.so.0:_ZN14wxScrollHelper13HandleOnPaintER12wxPaintEvent
libwx_gtk2u_core-2.8.so.0:_ZN14wxScrollHelper13SetScrollRateEii
libwx_gtk2u_core-2.8.so.0:_ZN14wxScrollHelper13SetScrollbarsEiiiiiib
libwx_gtk2u_core-2.8.so.0:_ZN14wxScrollHelper14HandleOnScrollER16wxScrollWinEvent
libwx_gtk2u_core-2.8.so.0:_ZN14wxScrollHelper15EnableScrollingEbb
libwx_gtk2u_core-2.8.so.0:_ZN14wxScrollHelper15SetTargetWindowEP8wxWindow
libwx_gtk2u_core-2.8.so.0:_ZN14wxScrollHelper16AdjustScrollbarsEv
libwx_gtk2u_core-2.8.so.0:_ZN14wxScrollHelper16DeleteEvtHandlerEv
libwx_gtk2u_core-2.8.so.0:_ZN14wxScrollHelper17DoSetTargetWindowEP8wxWindow
libwx_gtk2u_core-2.8.so.0:_ZN14wxScrollHelper17SetScrollPageSizeEii
libwx_gtk2u_core-2.8.so.0:_ZN14wxScrollHelper17StopAutoScrollingEv
libwx_gtk2u_core-2.8.so.0:_ZN14wxScrollHelper18HandleOnChildFocusER17wxChildFocusEvent
libwx_gtk2u_core-2.8.so.0:_ZN14wxScrollHelper18HandleOnMouseEnterER12wxMouseEvent
libwx_gtk2u_core-2.8.so.0:_ZN14wxScrollHelper18HandleOnMouseLeaveER12wxMouseEvent
libwx_gtk2u_core-2.8.so.0:_ZN14wxScrollHelper18HandleOnMouseWheelER12wxMouseEvent
libwx_gtk2u_core-2.8.so.0:_ZN14wxScrollHelper22ScrollDoSetVirtualSizeEii
libwx_gtk2u_core-2.8.so.0:_ZN14wxScrollHelper6ScrollEii
libwx_gtk2u_core-2.8.so.0:_ZN14wxScrollHelperC1EP8wxWindow
libwx_gtk2u_core-2.8.so.0:_ZN14wxScrollHelperC2EP8wxWindow
libwx_gtk2u_core-2.8.so.0:_ZN14wxScrollHelperD0Ev
libwx_gtk2u_core-2.8.so.0:_ZN14wxScrollHelperD1Ev
libwx_gtk2u_core-2.8.so.0:_ZN14wxScrollHelperD2Ev
libwx_gtk2u_core-2.8.so.0:_ZN14wxStaticBitmap14wxCreateObjectEv
libwx_gtk2u_core-2.8.so.0:_ZN14wxStaticBitmap25GetClassDefaultAttributesE15wxWindowVariant
libwx_gtk2u_core-2.8.so.0:_ZN14wxStaticBitmap6CreateEP8wxWindowiRK8wxBitmapRK7wxPointRK6wxSizelRK8wxString
libwx_gtk2u_core-2.8.so.0:_ZN14wxStaticBitmap9SetBitmapERK8wxBitmap
libwx_gtk2u_core-2.8.so.0:_ZN14wxStaticBitmapC1EP8wxWindowiRK8wxBitmapRK7wxPointRK6wxSizelRK8wxString
libwx_gtk2u_core-2.8.so.0:_ZN14wxStaticBitmapC1Ev
libwx_gtk2u_core-2.8.so.0:_ZN14wxStaticBitmapC2EP8wxWindowiRK8wxBitmapRK7wxPointRK6wxSizelRK8wxString
libwx_gtk2u_core-2.8.so.0:_ZN14wxStaticBitmapC2Ev
libwx_gtk2u_core-2.8.so.0:_ZN14wxTextCtrlBase10DoLoadFileERK8wxStringi
libwx_gtk2u_core-2.8.so.0:_ZN14wxTextCtrlBase10DoSaveFileERK8wxStringi
libwx_gtk2u_core-2.8.so.0:_ZN14wxTextCtrlBase15EmulateKeyPressERK10wxKeyEvent
libwx_gtk2u_core-2.8.so.0:_ZN14wxTextCtrlBase15SetDefaultStyleERK10wxTextAttr
libwx_gtk2u_core-2.8.so.0:_ZN14wxTextCtrlBase16DoUpdateWindowUIER15wxUpdateUIEvent
libwx_gtk2u_core-2.8.so.0:_ZN14wxTextCtrlBase20SendTextUpdatedEventEv
libwx_gtk2u_core-2.8.so.0:_ZN14wxTextCtrlBase8GetStyleElR10wxTextAttr
libwx_gtk2u_core-2.8.so.0:_ZN14wxTextCtrlBase8SaveFileERK8wxStringi
libwx_gtk2u_core-2.8.so.0:_ZN14wxTextCtrlBase8SetStyleEllRK10wxTextAttr
libwx_gtk2u_core-2.8.so.0:_ZN14wxTextCtrlBase8overflowEi
libwx_gtk2u_core-2.8.so.0:_ZN14wxTextCtrlBase9SelectAllEv
libwx_gtk2u_core-2.8.so.0:_ZN14wxTextCtrlBaselsERK8wxString
libwx_gtk2u_core-2.8.so.0:_ZN14wxTextCtrlBaselsEd
libwx_gtk2u_core-2.8.so.0:_ZN14wxTextCtrlBaselsEf
libwx_gtk2u_core-2.8.so.0:_ZN14wxTextCtrlBaselsEi
libwx_gtk2u_core-2.8.so.0:_ZN14wxTextCtrlBaselsEl
libwx_gtk2u_core-2.8.so.0:_ZN14wxTextCtrlBaselsEw
libwx_gtk2u_core-2.8.so.0:_ZN14wxTextUrlEvent14wxCreateObjectEv
libwx_gtk2u_core-2.8.so.0:_ZN14wxToggleButton14wxCreateObjectEv
libwx_gtk2u_core-2.8.so.0:_ZN14wxToggleButton18DoApplyWidgetStyleEP11_GtkRcStyle
libwx_gtk2u_core-2.8.so.0:_ZN14wxToggleButton25GetClassDefaultAttributesE15wxWindowVariant
libwx_gtk2u_core-2.8.so.0:_ZN14wxToggleButton6CreateEP8wxWindowiRK8wxStringRK7wxPointRK6wxSizelRK11wxValidatorS4_
libwx_gtk2u_core-2.8.so.0:_ZN14wxToggleButton6EnableEb
libwx_gtk2u_core-2.8.so.0:_ZN14wxToggleButton8SetLabelERK8wxString
libwx_gtk2u_core-2.8.so.0:_ZN14wxToggleButton8SetValueEb
libwx_gtk2u_core-2.8.so.0:_ZN14wxTreeCtrlBase11CollapseAllEv
libwx_gtk2u_core-2.8.so.0:_ZN14wxTreeCtrlBase17ExpandAllChildrenERK12wxTreeItemId
libwx_gtk2u_core-2.8.so.0:_ZN14wxTreeCtrlBase19CollapseAllChildrenERK12wxTreeItemId
libwx_gtk2u_core-2.8.so.0:_ZN14wxTreeCtrlBase9ExpandAllEv
libwx_gtk2u_core-2.8.so.0:_ZN14wxTreeCtrlBaseD0Ev
libwx_gtk2u_core-2.8.so.0:_ZN14wxTreeCtrlBaseD1Ev
libwx_gtk2u_core-2.8.so.0:_ZN14wxTreeCtrlBaseD2Ev
libwx_gtk2u_core-2.8.so.0:_ZN14wxTreeTextCtrl11OnKillFocusER12wxFocusEvent
libwx_gtk2u_core-2.8.so.0:_ZN14wxTreeTextCtrl13AcceptChangesEv
libwx_gtk2u_core-2.8.so.0:_ZN14wxTreeTextCtrl6FinishEb
libwx_gtk2u_core-2.8.so.0:_ZN14wxTreeTextCtrl6OnCharER10wxKeyEvent
libwx_gtk2u_core-2.8.so.0:_ZN14wxTreeTextCtrl7EndEditEb
libwx_gtk2u_core-2.8.so.0:_ZN14wxTreeTextCtrl7OnKeyUpER10wxKeyEvent
libwx_gtk2u_core-2.8.so.0:_ZN14wxTreeTextCtrlC1EP17wxGenericTreeCtrlP17wxGenericTreeItem
libwx_gtk2u_core-2.8.so.0:_ZN14wxTreeTextCtrlC2EP17wxGenericTreeCtrlP17wxGenericTreeItem
libwx_gtk2u_core-2.8.so.0:_ZN15wxActivateEvent14wxCreateObjectEv
libwx_gtk2u_core-2.8.so.0:_ZN15wxBitmapRefDataC1Ev
libwx_gtk2u_core-2.8.so.0:_ZN15wxBitmapRefDataC2Ev
libwx_gtk2u_core-2.8.so.0:_ZN15wxBitmapRefDataD0Ev
libwx_gtk2u_core-2.8.so.0:_ZN15wxBitmapRefDataD1Ev
libwx_gtk2u_core-2.8.so.0:_ZN15wxBitmapRefDataD2Ev
libwx_gtk2u_core-2.8.so.0:_ZN15wxClipboardBase3GetEv
libwx_gtk2u_core-2.8.so.0:_ZN15wxColourRefData10FreeColourEv
libwx_gtk2u_core-2.8.so.0:_ZN15wxColourRefData11AllocColourEP12_GdkColormap
libwx_gtk2u_core-2.8.so.0:_ZN15wxComboCtrlBase10DrawButtonER4wxDCRK6wxRecti
libwx_gtk2u_core-2.8.so.0:_ZN15wxComboCtrlBase10OnKeyEventER10wxKeyEvent
libwx_gtk2u_core-2.8.so.0:_ZN15wxComboCtrlBase11AnimateShowERK6wxRecti
libwx_gtk2u_core-2.8.so.0:_ZN15wxComboCtrlBase11CreatePopupEv
libwx_gtk2u_core-2.8.so.0:_ZN15wxComboCtrlBase11DoShowPopupERK6wxRecti
libwx_gtk2u_core-2.8.so.0:_ZN15wxComboCtrlBase11OnIdleEventER11wxIdleEvent
libwx_gtk2u_core-2.8.so.0:_ZN15wxComboCtrlBase11OnSizeEventER11wxSizeEvent
libwx_gtk2u_core-2.8.so.0:_ZN15wxComboCtrlBase12DestroyPopupEv
libwx_gtk2u_core-2.8.so.0:_ZN15wxComboCtrlBase12DoSetToolTipEP9wxToolTip
libwx_gtk2u_core-2.8.so.0:_ZN15wxComboCtrlBase12GetValidatorEv
libwx_gtk2u_core-2.8.so.0:_ZN15wxComboCtrlBase12OnFocusEventER12wxFocusEvent
libwx_gtk2u_core-2.8.so.0:_ZN15wxComboCtrlBase12SetSelectionEll
libwx_gtk2u_core-2.8.so.0:_ZN15wxComboCtrlBase12SetValidatorERK11wxValidator
libwx_gtk2u_core-2.8.so.0:_ZN15wxComboCtrlBase13GetButtonSizeEv
libwx_gtk2u_core-2.8.so.0:_ZN15wxComboCtrlBase13OnButtonClickEv
libwx_gtk2u_core-2.8.so.0:_ZN15wxComboCtrlBase13OnThemeChangeEv
libwx_gtk2u_core-2.8.so.0:_ZN15wxComboCtrlBase13SetTextIndentEi
libwx_gtk2u_core-2.8.so.0:_ZN15wxComboCtrlBase14CalculateAreasEi
libwx_gtk2u_core-2.8.so.0:_ZN15wxComboCtrlBase14CreateTextCtrlEiRK11wxValidator
libwx_gtk2u_core-2.8.so.0:_ZN15wxComboCtrlBase14OnPopupDismissEv
libwx_gtk2u_core-2.8.so.0:_ZN15wxComboCtrlBase15OnTextCtrlEventER14wxCommandEvent
libwx_gtk2u_core-2.8.so.0:_ZN15wxComboCtrlBase16PositionTextCtrlEii
libwx_gtk2u_core-2.8.so.0:_ZN15wxComboCtrlBase16RecalcAndRefreshEv
libwx_gtk2u_core-2.8.so.0:_ZN15wxComboCtrlBase16SetButtonBitmapsERK8wxBitmapbS2_S2_S2_
libwx_gtk2u_core-2.8.so.0:_ZN15wxComboCtrlBase17DoSetPopupControlEP12wxComboPopup
libwx_gtk2u_core-2.8.so.0:_ZN15wxComboCtrlBase17SetButtonPositionEiiii
libwx_gtk2u_core-2.8.so.0:_ZN15wxComboCtrlBase17SetInsertionPointEl
libwx_gtk2u_core-2.8.so.0:_ZN15wxComboCtrlBase17SetValueWithEventERK8wxStringb
libwx_gtk2u_core-2.8.so.0:_ZN15wxComboCtrlBase18EnsurePopupControlEv
libwx_gtk2u_core-2.8.so.0:_ZN15wxComboCtrlBase18OnSysColourChangedER23wxSysColourChangedEvent
libwx_gtk2u_core-2.8.so.0:_ZN15wxComboCtrlBase19SetCustomPaintWidthEi
libwx_gtk2u_core-2.8.so.0:_ZN15wxComboCtrlBase20InstallInputHandlersEv
libwx_gtk2u_core-2.8.so.0:_ZN15wxComboCtrlBase20PreprocessMouseEventER12wxMouseEventi
libwx_gtk2u_core-2.8.so.0:_ZN15wxComboCtrlBase20SetInsertionPointEndEv
libwx_gtk2u_core-2.8.so.0:_ZN15wxComboCtrlBase22HandleButtonMouseEventER12wxMouseEventi
libwx_gtk2u_core-2.8.so.0:_ZN15wxComboCtrlBase22HandleNormalMouseEventER12wxMouseEvent
libwx_gtk2u_core-2.8.so.0:_ZN15wxComboCtrlBase3CutEv
libwx_gtk2u_core-2.8.so.0:_ZN15wxComboCtrlBase4CopyEv
libwx_gtk2u_core-2.8.so.0:_ZN15wxComboCtrlBase4InitEv
libwx_gtk2u_core-2.8.so.0:_ZN15wxComboCtrlBase4ShowEb
libwx_gtk2u_core-2.8.so.0:_ZN15wxComboCtrlBase4UndoEv
libwx_gtk2u_core-2.8.so.0:_ZN15wxComboCtrlBase5PasteEv
libwx_gtk2u_core-2.8.so.0:_ZN15wxComboCtrlBase6CreateEP8wxWindowiRK8wxStringRK7wxPointRK6wxSizelRK11wxValidatorS4_
libwx_gtk2u_core-2.8.so.0:_ZN15wxComboCtrlBase6EnableEb
libwx_gtk2u_core-2.8.so.0:_ZN15wxComboCtrlBase6RemoveEll
libwx_gtk2u_core-2.8.so.0:_ZN15wxComboCtrlBase7ReplaceEllRK8wxString
libwx_gtk2u_core-2.8.so.0:_ZN15wxComboCtrlBase7SetFontERK6wxFont
libwx_gtk2u_core-2.8.so.0:_ZN15wxComboCtrlBase7SetTextERK8wxString
libwx_gtk2u_core-2.8.so.0:_ZN15wxComboCtrlBase8SetValueERK8wxString
libwx_gtk2u_core-2.8.so.0:_ZN15wxComboCtrlBase9HidePopupEv
libwx_gtk2u_core-2.8.so.0:_ZN15wxComboCtrlBase9ShowPopupEv
libwx_gtk2u_core-2.8.so.0:_ZN15wxComboCtrlBaseD0Ev
libwx_gtk2u_core-2.8.so.0:_ZN15wxComboCtrlBaseD1Ev
libwx_gtk2u_core-2.8.so.0:_ZN15wxComboCtrlBaseD2Ev
libwx_gtk2u_core-2.8.so.0:_ZN15wxCursorRefDataC1Ev
libwx_gtk2u_core-2.8.so.0:_ZN15wxCursorRefDataC2Ev
libwx_gtk2u_core-2.8.so.0:_ZN15wxCursorRefDataD0Ev
libwx_gtk2u_core-2.8.so.0:_ZN15wxCursorRefDataD1Ev
libwx_gtk2u_core-2.8.so.0:_ZN15wxCursorRefDataD2Ev
libwx_gtk2u_core-2.8.so.0:_ZN15wxDialUpManager6CreateEv
libwx_gtk2u_core-2.8.so.0:_ZN15wxDirDialogBase8SetStyleEl
libwx_gtk2u_core-2.8.so.0:_ZN15wxDirPickerCtrl14wxCreateObjectEv
libwx_gtk2u_core-2.8.so.0:_ZN15wxDisplayModule14wxCreateObjectEv
libwx_gtk2u_core-2.8.so.0:_ZN15wxDocChildFrame10OnActivateER15wxActivateEvent
libwx_gtk2u_core-2.8.so.0:_ZN15wxDocChildFrame12ProcessEventER7wxEvent
libwx_gtk2u_core-2.8.so.0:_ZN15wxDocChildFrame13OnCloseWindowER12wxCloseEvent
libwx_gtk2u_core-2.8.so.0:_ZN15wxDocChildFrameC1EP10wxDocumentP6wxViewP7wxFrameiRK8wxStringRK7wxPointRK6wxSizelS8_
libwx_gtk2u_core-2.8.so.0:_ZN15wxDocChildFrameC2EP10wxDocumentP6wxViewP7wxFrameiRK8wxStringRK7wxPointRK6wxSizelS8_
libwx_gtk2u_core-2.8.so.0:_ZN15wxFlexGridSizer11RecalcSizesEv
libwx_gtk2u_core-2.8.so.0:_ZN15wxFlexGridSizer14AddGrowableColEmi
libwx_gtk2u_core-2.8.so.0:_ZN15wxFlexGridSizer14AddGrowableRowEmi
libwx_gtk2u_core-2.8.so.0:_ZN15wxFlexGridSizer17RemoveGrowableColEm
libwx_gtk2u_core-2.8.so.0:_ZN15wxFlexGridSizer17RemoveGrowableRowEm
libwx_gtk2u_core-2.8.so.0:_ZN15wxFlexGridSizer18AdjustForGrowablesERK6wxSizeS2_ii
libwx_gtk2u_core-2.8.so.0:_ZN15wxFlexGridSizer22AdjustForFlexDirectionEv
libwx_gtk2u_core-2.8.so.0:_ZN15wxFlexGridSizer7CalcMinEv
libwx_gtk2u_core-2.8.so.0:_ZN15wxFlexGridSizerC1Eiii
libwx_gtk2u_core-2.8.so.0:_ZN15wxFlexGridSizerC1Eiiii
libwx_gtk2u_core-2.8.so.0:_ZN15wxFlexGridSizerC2Eiii
libwx_gtk2u_core-2.8.so.0:_ZN15wxFlexGridSizerC2Eiiii
libwx_gtk2u_core-2.8.so.0:_ZN15wxFlexGridSizerD0Ev
libwx_gtk2u_core-2.8.so.0:_ZN15wxFlexGridSizerD1Ev
libwx_gtk2u_core-2.8.so.0:_ZN15wxFlexGridSizerD2Ev
libwx_gtk2u_core-2.8.so.0:_ZN15wxItemContainer13SetClientDataEjPv
libwx_gtk2u_core-2.8.so.0:_ZN15wxItemContainer15SetClientObjectEjP12wxClientData
libwx_gtk2u_core-2.8.so.0:_ZN15wxItemContainer6AppendERK13wxArrayString
libwx_gtk2u_core-2.8.so.0:_ZN15wxItemContainer6InsertERK8wxStringjP12wxClientData
libwx_gtk2u_core-2.8.so.0:_ZN15wxItemContainer6InsertERK8wxStringjPv
libwx_gtk2u_core-2.8.so.0:_ZN15wxItemContainerD0Ev
libwx_gtk2u_core-2.8.so.0:_ZN15wxItemContainerD1Ev
libwx_gtk2u_core-2.8.so.0:_ZN15wxItemContainerD2Ev
libwx_gtk2u_core-2.8.so.0:_ZN15wxJoystickEvent14wxCreateObjectEv
libwx_gtk2u_core-2.8.so.0:_ZN15wxListbookEvent14wxCreateObjectEv
libwx_gtk2u_core-2.8.so.0:_ZN15wxMDIChildFrame10OnActivateER15wxActivateEvent
libwx_gtk2u_core-2.8.so.0:_ZN15wxMDIChildFrame10SetMenuBarEP9wxMenuBar
libwx_gtk2u_core-2.8.so.0:_ZN15wxMDIChildFrame14wxCreateObjectEv
libwx_gtk2u_core-2.8.so.0:_ZN15wxMDIChildFrame15DoSetClientSizeEii
libwx_gtk2u_core-2.8.so.0:_ZN15wxMDIChildFrame15OnMenuHighlightER11wxMenuEvent
libwx_gtk2u_core-2.8.so.0:_ZN15wxMDIChildFrame6CreateEP16wxMDIParentFrameiRK8wxStringRK7wxPointRK6wxSizelS4_
libwx_gtk2u_core-2.8.so.0:_ZN15wxMDIChildFrame7DestroyEv
libwx_gtk2u_core-2.8.so.0:_ZN15wxMDIChildFrame8ActivateEv
libwx_gtk2u_core-2.8.so.0:_ZN15wxMDIChildFrame8AddChildEP12wxWindowBase
libwx_gtk2u_core-2.8.so.0:_ZN15wxMDIChildFrame8SetTitleERK8wxString
libwx_gtk2u_core-2.8.so.0:_ZN15wxMDIChildFrame9DoSetSizeEiiiii
libwx_gtk2u_core-2.8.so.0:_ZN15wxMDIChildFrameC1EP16wxMDIParentFrameiRK8wxStringRK7wxPointRK6wxSizelS4_
libwx_gtk2u_core-2.8.so.0:_ZN15wxMDIChildFrameC1Ev
libwx_gtk2u_core-2.8.so.0:_ZN15wxMDIChildFrameC2EP16wxMDIParentFrameiRK8wxStringRK7wxPointRK6wxSizelS4_
libwx_gtk2u_core-2.8.so.0:_ZN15wxMDIChildFrameC2Ev
libwx_gtk2u_core-2.8.so.0:_ZN15wxMDIChildFrameD0Ev
libwx_gtk2u_core-2.8.so.0:_ZN15wxMDIChildFrameD1Ev
libwx_gtk2u_core-2.8.so.0:_ZN15wxMDIChildFrameD2Ev
libwx_gtk2u_core-2.8.so.0:_ZN15wxMaximizeEvent14wxCreateObjectEv
libwx_gtk2u_core-2.8.so.0:_ZN15wxMessageDialog9ShowModalEv
libwx_gtk2u_core-2.8.so.0:_ZN15wxMessageDialogC1EP8wxWindowRK8wxStringS4_lRK7wxPoint
libwx_gtk2u_core-2.8.so.0:_ZN15wxMessageDialogC2EP8wxWindowRK8wxStringS4_lRK7wxPoint
libwx_gtk2u_core-2.8.so.0:_ZN15wxMessageDialogD0Ev
libwx_gtk2u_core-2.8.so.0:_ZN15wxMessageDialogD1Ev
libwx_gtk2u_core-2.8.so.0:_ZN15wxMessageDialogD2Ev
libwx_gtk2u_core-2.8.so.0:_ZN15wxNotebookEvent14wxCreateObjectEv
libwx_gtk2u_core-2.8.so.0:_ZN15wxPoint2DDouble14SetVectorAngleEd
libwx_gtk2u_core-2.8.so.0:_ZN15wxPreviewCanvas12OnMouseWheelER12wxMouseEvent
libwx_gtk2u_core-2.8.so.0:_ZN15wxPreviewCanvas18OnSysColourChangedER23wxSysColourChangedEvent
libwx_gtk2u_core-2.8.so.0:_ZN15wxPreviewCanvas6OnCharER10wxKeyEvent
libwx_gtk2u_core-2.8.so.0:_ZN15wxPreviewCanvas7OnPaintER12wxPaintEvent
libwx_gtk2u_core-2.8.so.0:_ZN15wxPreviewCanvasC1EP18wxPrintPreviewBaseP8wxWindowRK7wxPointRK6wxSizelRK8wxString
libwx_gtk2u_core-2.8.so.0:_ZN15wxPreviewCanvasC2EP18wxPrintPreviewBaseP8wxWindowRK7wxPointRK6wxSizelRK8wxString
libwx_gtk2u_core-2.8.so.0:_ZN15wxPreviewCanvasD0Ev
libwx_gtk2u_core-2.8.so.0:_ZN15wxPreviewCanvasD1Ev
libwx_gtk2u_core-2.8.so.0:_ZN15wxPreviewCanvasD2Ev
libwx_gtk2u_core-2.8.so.0:_ZN15wxResourceCacheD0Ev
libwx_gtk2u_core-2.8.so.0:_ZN15wxResourceCacheD1Ev
libwx_gtk2u_core-2.8.so.0:_ZN15wxResourceCacheD2Ev
libwx_gtk2u_core-2.8.so.0:_ZN15wxSplitterEvent14wxCreateObjectEv
libwx_gtk2u_core-2.8.so.0:_ZN15wxStatusBarBase10FreeStacksEv
libwx_gtk2u_core-2.8.so.0:_ZN15wxStatusBarBase10FreeStylesEv
libwx_gtk2u_core-2.8.so.0:_ZN15wxStatusBarBase10FreeWidthsEv
libwx_gtk2u_core-2.8.so.0:_ZN15wxStatusBarBase10InitStacksEv
libwx_gtk2u_core-2.8.so.0:_ZN15wxStatusBarBase10InitStylesEv
libwx_gtk2u_core-2.8.so.0:_ZN15wxStatusBarBase10InitWidthsEv
libwx_gtk2u_core-2.8.so.0:_ZN15wxStatusBarBase13PopStatusTextEi
libwx_gtk2u_core-2.8.so.0:_ZN15wxStatusBarBase14PushStatusTextERK8wxStringi
libwx_gtk2u_core-2.8.so.0:_ZN15wxStatusBarBase14SetFieldsCountEiPKi
libwx_gtk2u_core-2.8.so.0:_ZN15wxStatusBarBase15SetStatusStylesEiPKi
libwx_gtk2u_core-2.8.so.0:_ZN15wxStatusBarBase15SetStatusWidthsEiPKi
libwx_gtk2u_core-2.8.so.0:_ZN15wxStatusBarBase22GetOrCreateStatusStackEi
libwx_gtk2u_core-2.8.so.0:_ZN15wxStatusBarBaseC1Ev
libwx_gtk2u_core-2.8.so.0:_ZN15wxStatusBarBaseC2Ev
libwx_gtk2u_core-2.8.so.0:_ZN15wxStatusBarBaseD0Ev
libwx_gtk2u_core-2.8.so.0:_ZN15wxStatusBarBaseD1Ev
libwx_gtk2u_core-2.8.so.0:_ZN15wxStatusBarBaseD2Ev
libwx_gtk2u_core-2.8.so.0:_ZN15wxTextValidator14wxCreateObjectEv
libwx_gtk2u_core-2.8.so.0:_ZN15wxTextValidator16IsInCharIncludesERK8wxString
libwx_gtk2u_core-2.8.so.0:_ZN15wxTextValidator16TransferToWindowEv
libwx_gtk2u_core-2.8.so.0:_ZN15wxTextValidator18TransferFromWindowEv
libwx_gtk2u_core-2.8.so.0:_ZN15wxTextValidator19IsNotInCharExcludesERK8wxString
libwx_gtk2u_core-2.8.so.0:_ZN15wxTextValidator4CopyERKS_
libwx_gtk2u_core-2.8.so.0:_ZN15wxTextValidator6OnCharER10wxKeyEvent
libwx_gtk2u_core-2.8.so.0:_ZN15wxTextValidator8ValidateEP8wxWindow
libwx_gtk2u_core-2.8.so.0:_ZN15wxTextValidatorC1ERKS_
libwx_gtk2u_core-2.8.so.0:_ZN15wxTextValidatorC1ElP8wxString
libwx_gtk2u_core-2.8.so.0:_ZN15wxTextValidatorC2ERKS_
libwx_gtk2u_core-2.8.so.0:_ZN15wxTextValidatorC2ElP8wxString
libwx_gtk2u_core-2.8.so.0:_ZN15wxTipWindowView11OnMouseMoveER12wxMouseEvent
libwx_gtk2u_core-2.8.so.0:_ZN15wxTipWindowView12OnMouseClickER12wxMouseEvent
libwx_gtk2u_core-2.8.so.0:_ZN15wxTipWindowView6AdjustERK8wxStringi
libwx_gtk2u_core-2.8.so.0:_ZN15wxTipWindowView7OnPaintER12wxPaintEvent
libwx_gtk2u_core-2.8.so.0:_ZN15wxTipWindowViewC1EP8wxWindow
libwx_gtk2u_core-2.8.so.0:_ZN15wxTipWindowViewC2EP8wxWindow
libwx_gtk2u_core-2.8.so.0:_ZN15wxToolbookEvent14wxCreateObjectEv
libwx_gtk2u_core-2.8.so.0:_ZN15wxTreebookEvent14wxCreateObjectEv
libwx_gtk2u_core-2.8.so.0:_ZN15wxUpdateUIEvent14wxCreateObjectEv
libwx_gtk2u_core-2.8.so.0:_ZN15wxUpdateUIEvent15ResetUpdateTimeEv
libwx_gtk2u_core-2.8.so.0:_ZN15wxUpdateUIEvent9CanUpdateEP12wxWindowBase
libwx_gtk2u_core-2.8.so.0:_ZN16wxColourDatabase10FindColourERK8wxString
libwx_gtk2u_core-2.8.so.0:_ZN16wxColourDatabase10InitializeEv
libwx_gtk2u_core-2.8.so.0:_ZN16wxColourDatabase9AddColourERK8wxStringRK8wxColour
libwx_gtk2u_core-2.8.so.0:_ZN16wxColourDatabaseC1Ev
libwx_gtk2u_core-2.8.so.0:_ZN16wxColourDatabaseC2Ev
libwx_gtk2u_core-2.8.so.0:_ZN16wxColourDatabaseD1Ev
libwx_gtk2u_core-2.8.so.0:_ZN16wxColourDatabaseD2Ev
libwx_gtk2u_core-2.8.so.0:_ZN16wxDataObjectBaseD0Ev
libwx_gtk2u_core-2.8.so.0:_ZN16wxDataObjectBaseD1Ev
libwx_gtk2u_core-2.8.so.0:_ZN16wxDataObjectBaseD2Ev
libwx_gtk2u_core-2.8.so.0:_ZN16wxDisplayFactory13GetFromWindowEP8wxWindow
libwx_gtk2u_core-2.8.so.0:_ZN16wxDisplayImplX1110ChangeModeERK11wxVideoMode
libwx_gtk2u_core-2.8.so.0:_ZN16wxDocParentFrame12ProcessEventER7wxEvent
libwx_gtk2u_core-2.8.so.0:_ZN16wxDocParentFrame13OnCloseWindowER12wxCloseEvent
libwx_gtk2u_core-2.8.so.0:_ZN16wxDocParentFrame6CreateEP12wxDocManagerP7wxFrameiRK8wxStringRK7wxPointRK6wxSizelS6_
libwx_gtk2u_core-2.8.so.0:_ZN16wxDocParentFrame6OnExitER14wxCommandEvent
libwx_gtk2u_core-2.8.so.0:_ZN16wxDocParentFrame9OnMRUFileER14wxCommandEvent
libwx_gtk2u_core-2.8.so.0:_ZN16wxDocParentFrameC1EP12wxDocManagerP7wxFrameiRK8wxStringRK7wxPointRK6wxSizelS6_
libwx_gtk2u_core-2.8.so.0:_ZN16wxDocParentFrameC1Ev
libwx_gtk2u_core-2.8.so.0:_ZN16wxDocParentFrameC2EP12wxDocManagerP7wxFrameiRK8wxStringRK7wxPointRK6wxSizelS6_
libwx_gtk2u_core-2.8.so.0:_ZN16wxDocParentFrameC2Ev
libwx_gtk2u_core-2.8.so.0:_ZN16wxDropFilesEvent14wxCreateObjectEv
libwx_gtk2u_core-2.8.so.0:_ZN16wxFileDataObject7AddFileERK8wxString
libwx_gtk2u_core-2.8.so.0:_ZN16wxFileDataObject7SetDataEmPKv
libwx_gtk2u_core-2.8.so.0:_ZN16wxFileDialogBase14wxCreateObjectEv
libwx_gtk2u_core-2.8.so.0:_ZN16wxFileDialogBase15AppendExtensionERK8wxStringS2_
libwx_gtk2u_core-2.8.so.0:_ZN16wxFileDialogBase4InitEv
libwx_gtk2u_core-2.8.so.0:_ZN16wxFileDialogBase6CreateEP8wxWindowRK8wxStringS4_S4_S4_lRK7wxPointRK6wxSizeS4_
libwx_gtk2u_core-2.8.so.0:_ZN16wxFileDialogBase8SetStyleEl
libwx_gtk2u_core-2.8.so.0:_ZN16wxFileDropTarget6OnDataEii12wxDragResult
libwx_gtk2u_core-2.8.so.0:_ZN16wxFileDropTargetC1Ev
libwx_gtk2u_core-2.8.so.0:_ZN16wxFileDropTargetC2Ev
libwx_gtk2u_core-2.8.so.0:_ZN16wxFileIconsTable17GetSmallImageListEv
libwx_gtk2u_core-2.8.so.0:_ZN16wxFileIconsTable6CreateEv
libwx_gtk2u_core-2.8.so.0:_ZN16wxFileIconsTable9GetIconIDERK8wxStringS2_
libwx_gtk2u_core-2.8.so.0:_ZN16wxFileIconsTableC1Ev
libwx_gtk2u_core-2.8.so.0:_ZN16wxFileIconsTableC2Ev
libwx_gtk2u_core-2.8.so.0:_ZN16wxFileIconsTableD1Ev
libwx_gtk2u_core-2.8.so.0:_ZN16wxFileIconsTableD2Ev
libwx_gtk2u_core-2.8.so.0:_ZN16wxFilePickerCtrl14wxCreateObjectEv
libwx_gtk2u_core-2.8.so.0:_ZN16wxFontDialogBaseD0Ev
libwx_gtk2u_core-2.8.so.0:_ZN16wxFontDialogBaseD1Ev
libwx_gtk2u_core-2.8.so.0:_ZN16wxFontDialogBaseD2Ev
libwx_gtk2u_core-2.8.so.0:_ZN16wxFontEnumerator12GetEncodingsERK8wxString
libwx_gtk2u_core-2.8.so.0:_ZN16wxFontEnumerator12GetFacenamesE14wxFontEncodingb
libwx_gtk2u_core-2.8.so.0:_ZN16wxFontEnumerator15IsValidFacenameERK8wxString
libwx_gtk2u_core-2.8.so.0:_ZN16wxFontEnumerator18EnumerateEncodingsERK8wxString
libwx_gtk2u_core-2.8.so.0:_ZN16wxFontEnumerator18EnumerateFacenamesE14wxFontEncodingb
libwx_gtk2u_core-2.8.so.0:_ZN16wxFontEnumerator22EnumerateEncodingsUTF8ERK8wxString
libwx_gtk2u_core-2.8.so.0:_ZN16wxFontPickerCtrl11Font2StringERK6wxFont
libwx_gtk2u_core-2.8.so.0:_ZN16wxFontPickerCtrl11String2FontERK8wxString
libwx_gtk2u_core-2.8.so.0:_ZN16wxFontPickerCtrl12OnFontChangeER17wxFontPickerEvent
libwx_gtk2u_core-2.8.so.0:_ZN16wxFontPickerCtrl14wxCreateObjectEv
libwx_gtk2u_core-2.8.so.0:_ZN16wxFontPickerCtrl15SetSelectedFontERK6wxFont
libwx_gtk2u_core-2.8.so.0:_ZN16wxFontPickerCtrl24UpdatePickerFromTextCtrlEv
libwx_gtk2u_core-2.8.so.0:_ZN16wxFontPickerCtrl24UpdateTextCtrlFromPickerEv
libwx_gtk2u_core-2.8.so.0:_ZN16wxFontPickerCtrl6CreateEP8wxWindowiRK6wxFontRK7wxPointRK6wxSizelRK11wxValidatorRK8wxString
libwx_gtk2u_core-2.8.so.0:_ZN16wxGDIObjListBaseC1Ev
libwx_gtk2u_core-2.8.so.0:_ZN16wxGDIObjListBaseC2Ev
libwx_gtk2u_core-2.8.so.0:_ZN16wxGDIObjListBaseD1Ev
libwx_gtk2u_core-2.8.so.0:_ZN16wxGDIObjListBaseD2Ev
libwx_gtk2u_core-2.8.so.0:_ZN16wxGenericDirCtrl10AddSectionERK8wxStringS2_i
libwx_gtk2u_core-2.8.so.0:_ZN16wxGenericDirCtrl10AppendItemERK12wxTreeItemIdRK8wxStringiiP14wxTreeItemData
libwx_gtk2u_core-2.8.so.0:_ZN16wxGenericDirCtrl10ExpandPathERK8wxString
libwx_gtk2u_core-2.8.so.0:_ZN16wxGenericDirCtrl10ExpandRootEv
libwx_gtk2u_core-2.8.so.0:_ZN16wxGenericDirCtrl10ShowHiddenEb
libwx_gtk2u_core-2.8.so.0:_ZN16wxGenericDirCtrl11CollapseDirE12wxTreeItemId
libwx_gtk2u_core-2.8.so.0:_ZN16wxGenericDirCtrl12CollapsePathERK8wxString
libwx_gtk2u_core-2.8.so.0:_ZN16wxGenericDirCtrl12CollapseTreeEv
libwx_gtk2u_core-2.8.so.0:_ZN16wxGenericDirCtrl12OnExpandItemER11wxTreeEvent
libwx_gtk2u_core-2.8.so.0:_ZN16wxGenericDirCtrl12ReCreateTreeEv
libwx_gtk2u_core-2.8.so.0:_ZN16wxGenericDirCtrl13OnEndEditItemER11wxTreeEvent
libwx_gtk2u_core-2.8.so.0:_ZN16wxGenericDirCtrl13SetupSectionsEv
libwx_gtk2u_core-2.8.so.0:_ZN16wxGenericDirCtrl14CreateTreeCtrlEP8wxWindowiRK7wxPointRK6wxSizel
libwx_gtk2u_core-2.8.so.0:_ZN16wxGenericDirCtrl14OnCollapseItemER11wxTreeEvent
libwx_gtk2u_core-2.8.so.0:_ZN16wxGenericDirCtrl14SetFilterIndexEi
libwx_gtk2u_core-2.8.so.0:_ZN16wxGenericDirCtrl14wxCreateObjectEv
libwx_gtk2u_core-2.8.so.0:_ZN16wxGenericDirCtrl15ExtractWildcardERK8wxStringiRS0_S3_
libwx_gtk2u_core-2.8.so.0:_ZN16wxGenericDirCtrl15OnBeginEditItemER11wxTreeEvent
libwx_gtk2u_core-2.8.so.0:_ZN16wxGenericDirCtrl4InitEv
libwx_gtk2u_core-2.8.so.0:_ZN16wxGenericDirCtrl6CreateEP8wxWindowiRK8wxStringRK7wxPointRK6wxSizelS4_iS4_
libwx_gtk2u_core-2.8.so.0:_ZN16wxGenericDirCtrl6OnSizeER11wxSizeEvent
libwx_gtk2u_core-2.8.so.0:_ZN16wxGenericDirCtrl7SetPathERK8wxString
libwx_gtk2u_core-2.8.so.0:_ZN16wxGenericDirCtrl8DoResizeEv
libwx_gtk2u_core-2.8.so.0:_ZN16wxGenericDirCtrl9ExpandDirE12wxTreeItemId
libwx_gtk2u_core-2.8.so.0:_ZN16wxGenericDirCtrl9FindChildE12wxTreeItemIdRK8wxStringRb
libwx_gtk2u_core-2.8.so.0:_ZN16wxGenericDirCtrl9SetFilterERK8wxString
libwx_gtk2u_core-2.8.so.0:_ZN16wxGenericDirCtrlC1Ev
libwx_gtk2u_core-2.8.so.0:_ZN16wxGenericDirCtrlC2Ev
libwx_gtk2u_core-2.8.so.0:_ZN16wxGenericDirCtrlD0Ev
libwx_gtk2u_core-2.8.so.0:_ZN16wxGenericDirCtrlD1Ev
libwx_gtk2u_core-2.8.so.0:_ZN16wxGenericDirCtrlD2Ev
libwx_gtk2u_core-2.8.so.0:_ZN16wxListHeaderData11SetPositionEii
libwx_gtk2u_core-2.8.so.0:_ZN16wxListHeaderData4InitEv
libwx_gtk2u_core-2.8.so.0:_ZN16wxListHeaderData7GetItemER10wxListItem
libwx_gtk2u_core-2.8.so.0:_ZN16wxListHeaderData7SetItemERK10wxListItem
libwx_gtk2u_core-2.8.so.0:_ZN16wxListHeaderData8SetStateEi
libwx_gtk2u_core-2.8.so.0:_ZN16wxListHeaderData8SetWidthEi
libwx_gtk2u_core-2.8.so.0:_ZN16wxListHeaderData9SetFormatEi
libwx_gtk2u_core-2.8.so.0:_ZN16wxListHeaderData9SetHeightEi
libwx_gtk2u_core-2.8.so.0:_ZN16wxListHeaderDataC1ERK10wxListItem
libwx_gtk2u_core-2.8.so.0:_ZN16wxListHeaderDataC1Ev
libwx_gtk2u_core-2.8.so.0:_ZN16wxListHeaderDataC2ERK10wxListItem
libwx_gtk2u_core-2.8.so.0:_ZN16wxListHeaderDataC2Ev
libwx_gtk2u_core-2.8.so.0:_ZN16wxListMainWindow10DeleteItemEl
libwx_gtk2u_core-2.8.so.0:_ZN16wxListMainWindow10InsertItemER10wxListItem
libwx_gtk2u_core-2.8.so.0:_ZN16wxListMainWindow10MoveToItemEm
libwx_gtk2u_core-2.8.so.0:_ZN16wxListMainWindow10OnSetFocusER12wxFocusEvent
libwx_gtk2u_core-2.8.so.0:_ZN16wxListMainWindow10RefreshAllEv
libwx_gtk2u_core-2.8.so.0:_ZN16wxListMainWindow10ScrollListEii
libwx_gtk2u_core-2.8.so.0:_ZN16wxListMainWindow10SendNotifyEmiRK7wxPoint
libwx_gtk2u_core-2.8.so.0:_ZN16wxListMainWindow11OnArrowCharEmRK10wxKeyEvent
libwx_gtk2u_core-2.8.so.0:_ZN16wxListMainWindow11OnKillFocusER12wxFocusEvent
libwx_gtk2u_core-2.8.so.0:_ZN16wxListMainWindow11RefreshLineEm
libwx_gtk2u_core-2.8.so.0:_ZN16wxListMainWindow12DeleteColumnEi
libwx_gtk2u_core-2.8.so.0:_ZN16wxListMainWindow12HighlightAllEb
libwx_gtk2u_core-2.8.so.0:_ZN16wxListMainWindow12InsertColumnElR10wxListItem
libwx_gtk2u_core-2.8.so.0:_ZN16wxListMainWindow12OnChildFocusER17wxChildFocusEvent
libwx_gtk2u_core-2.8.so.0:_ZN16wxListMainWindow12RefreshAfterEm
libwx_gtk2u_core-2.8.so.0:_ZN16wxListMainWindow12RefreshLinesEmm
libwx_gtk2u_core-2.8.so.0:_ZN16wxListMainWindow12SetImageListEP11wxImageListi
libwx_gtk2u_core-2.8.so.0:_ZN16wxListMainWindow12SetItemCountEl
libwx_gtk2u_core-2.8.so.0:_ZN16wxListMainWindow12SetItemStateElll
libwx_gtk2u_core-2.8.so.0:_ZN16wxListMainWindow13CacheLineDataEm
libwx_gtk2u_core-2.8.so.0:_ZN16wxListMainWindow13ChangeCurrentEm
libwx_gtk2u_core-2.8.so.0:_ZN16wxListMainWindow13EnsureVisibleEl
libwx_gtk2u_core-2.8.so.0:_ZN16wxListMainWindow13HighlightLineEmb
libwx_gtk2u_core-2.8.so.0:_ZN16wxListMainWindow13OnRenameTimerEv
libwx_gtk2u_core-2.8.so.0:_ZN16wxListMainWindow13UpdateCurrentEv
libwx_gtk2u_core-2.8.so.0:_ZN16wxListMainWindow14DeleteAllItemsEv
libwx_gtk2u_core-2.8.so.0:_ZN16wxListMainWindow14GetItemSpacingEb
libwx_gtk2u_core-2.8.so.0:_ZN16wxListMainWindow14HighlightLinesEmmb
libwx_gtk2u_core-2.8.so.0:_ZN16wxListMainWindow14OnRenameAcceptEmRK8wxString
libwx_gtk2u_core-2.8.so.0:_ZN16wxListMainWindow14SetColumnWidthEii
libwx_gtk2u_core-2.8.so.0:_ZN16wxListMainWindow14SetItemSpacingEib
libwx_gtk2u_core-2.8.so.0:_ZN16wxListMainWindow14wxCreateObjectEv
libwx_gtk2u_core-2.8.so.0:_ZN16wxListMainWindow15RefreshSelectedEv
libwx_gtk2u_core-2.8.so.0:_ZN16wxListMainWindow15SetItemStateAllEll
libwx_gtk2u_core-2.8.so.0:_ZN16wxListMainWindow16DeleteEverythingEv
libwx_gtk2u_core-2.8.so.0:_ZN16wxListMainWindow16DoDeleteAllItemsEv
libwx_gtk2u_core-2.8.so.0:_ZN16wxListMainWindow17OnRenameCancelledEm
libwx_gtk2u_core-2.8.so.0:_ZN16wxListMainWindow20GetVisibleLinesRangeEPmS0_
libwx_gtk2u_core-2.8.so.0:_ZN16wxListMainWindow20RecalculatePositionsEb
libwx_gtk2u_core-2.8.so.0:_ZN16wxListMainWindow21GetItemWidthWithImageEP10wxListItem
libwx_gtk2u_core-2.8.so.0:_ZN16wxListMainWindow4InitEv
libwx_gtk2u_core-2.8.so.0:_ZN16wxListMainWindow4ThawEv
libwx_gtk2u_core-2.8.so.0:_ZN16wxListMainWindow6FreezeEv
libwx_gtk2u_core-2.8.so.0:_ZN16wxListMainWindow6OnCharER10wxKeyEvent
libwx_gtk2u_core-2.8.so.0:_ZN16wxListMainWindow7OnKeyUpER10wxKeyEvent
libwx_gtk2u_core-2.8.so.0:_ZN16wxListMainWindow7OnMouseER12wxMouseEvent
libwx_gtk2u_core-2.8.so.0:_ZN16wxListMainWindow7OnPaintER12wxPaintEvent
libwx_gtk2u_core-2.8.so.0:_ZN16wxListMainWindow7SetItemER10wxListItem
libwx_gtk2u_core-2.8.so.0:_ZN16wxListMainWindow8FindItemERK7wxPoint
libwx_gtk2u_core-2.8.so.0:_ZN16wxListMainWindow8FindItemElRK8wxStringb
libwx_gtk2u_core-2.8.so.0:_ZN16wxListMainWindow8FindItemElm
libwx_gtk2u_core-2.8.so.0:_ZN16wxListMainWindow8OnScrollER16wxScrollWinEvent
libwx_gtk2u_core-2.8.so.0:_ZN16wxListMainWindow9DrawImageEiP4wxDCii
libwx_gtk2u_core-2.8.so.0:_ZN16wxListMainWindow9EditLabelElP11wxClassInfo
libwx_gtk2u_core-2.8.so.0:_ZN16wxListMainWindow9OnKeyDownER10wxKeyEvent
libwx_gtk2u_core-2.8.so.0:_ZN16wxListMainWindow9SetColumnEiR10wxListItem
libwx_gtk2u_core-2.8.so.0:_ZN16wxListMainWindow9SortItemsEPFilllEl
libwx_gtk2u_core-2.8.so.0:_ZN16wxListMainWindowC1EP8wxWindowiRK7wxPointRK6wxSizelRK8wxString
libwx_gtk2u_core-2.8.so.0:_ZN16wxListMainWindowC1Ev
libwx_gtk2u_core-2.8.so.0:_ZN16wxListMainWindowC2EP8wxWindowiRK7wxPointRK6wxSizelRK8wxString
libwx_gtk2u_core-2.8.so.0:_ZN16wxListMainWindowC2Ev
libwx_gtk2u_core-2.8.so.0:_ZN16wxListMainWindowD0Ev
libwx_gtk2u_core-2.8.so.0:_ZN16wxListMainWindowD1Ev
libwx_gtk2u_core-2.8.so.0:_ZN16wxListMainWindowD2Ev
libwx_gtk2u_core-2.8.so.0:_ZN16wxMDIParentFrame12ActivateNextEv
libwx_gtk2u_core-2.8.so.0:_ZN16wxMDIParentFrame14OnCreateClientEv
libwx_gtk2u_core-2.8.so.0:_ZN16wxMDIParentFrame14OnInternalIdleEv
libwx_gtk2u_core-2.8.so.0:_ZN16wxMDIParentFrame14wxCreateObjectEv
libwx_gtk2u_core-2.8.so.0:_ZN16wxMDIParentFrame16ActivatePreviousEv
libwx_gtk2u_core-2.8.so.0:_ZN16wxMDIParentFrame4InitEv
libwx_gtk2u_core-2.8.so.0:_ZN16wxMDIParentFrame6CreateEP8wxWindowiRK8wxStringRK7wxPointRK6wxSizelS4_
libwx_gtk2u_core-2.8.so.0:_ZN16wxMDIParentFrame9GtkOnSizeEv
libwx_gtk2u_core-2.8.so.0:_ZN16wxMDIParentFrameD0Ev
libwx_gtk2u_core-2.8.so.0:_ZN16wxMDIParentFrameD1Ev
libwx_gtk2u_core-2.8.so.0:_ZN16wxMDIParentFrameD2Ev
libwx_gtk2u_core-2.8.so.0:_ZN16wxNativeFontInfo10FromStringERK8wxString
libwx_gtk2u_core-2.8.so.0:_ZN16wxNativeFontInfo11SetEncodingE14wxFontEncoding
libwx_gtk2u_core-2.8.so.0:_ZN16wxNativeFontInfo11SetFaceNameERK13wxArrayString
libwx_gtk2u_core-2.8.so.0:_ZN16wxNativeFontInfo11SetFaceNameERK8wxString
libwx_gtk2u_core-2.8.so.0:_ZN16wxNativeFontInfo12SetPointSizeEi
libwx_gtk2u_core-2.8.so.0:_ZN16wxNativeFontInfo13SetUnderlinedEb
libwx_gtk2u_core-2.8.so.0:_ZN16wxNativeFontInfo14FromUserStringERK8wxString
libwx_gtk2u_core-2.8.so.0:_ZN16wxNativeFontInfo4FreeEv
libwx_gtk2u_core-2.8.so.0:_ZN16wxNativeFontInfo4InitERKS_
libwx_gtk2u_core-2.8.so.0:_ZN16wxNativeFontInfo4InitEv
libwx_gtk2u_core-2.8.so.0:_ZN16wxNativeFontInfo8SetStyleE11wxFontStyle
libwx_gtk2u_core-2.8.so.0:_ZN16wxNativeFontInfo9SetFamilyE12wxFontFamily
libwx_gtk2u_core-2.8.so.0:_ZN16wxNativeFontInfo9SetWeightE12wxFontWeight
libwx_gtk2u_core-2.8.so.0:_ZN16wxPaletteRefDataC1Ev
libwx_gtk2u_core-2.8.so.0:_ZN16wxPaletteRefDataC2Ev
libwx_gtk2u_core-2.8.so.0:_ZN16wxPaletteRefDataD0Ev
libwx_gtk2u_core-2.8.so.0:_ZN16wxPaletteRefDataD1Ev
libwx_gtk2u_core-2.8.so.0:_ZN16wxPaletteRefDataD2Ev
libwx_gtk2u_core-2.8.so.0:_ZN16wxPrintPaperType14wxCreateObjectEv
libwx_gtk2u_core-2.8.so.0:_ZN16wxPrintPaperTypeC1E11wxPaperSizeiRK8wxStringii
libwx_gtk2u_core-2.8.so.0:_ZN16wxPrintPaperTypeC1Ev
libwx_gtk2u_core-2.8.so.0:_ZN16wxPrintPaperTypeC2E11wxPaperSizeiRK8wxStringii
libwx_gtk2u_core-2.8.so.0:_ZN16wxPrintPaperTypeC2Ev
libwx_gtk2u_core-2.8.so.0:_ZN16wxProgressDialog10EnableSkipEb
libwx_gtk2u_core-2.8.so.0:_ZN16wxProgressDialog11CreateLabelERK8wxStringP7wxSizer
libwx_gtk2u_core-2.8.so.0:_ZN16wxProgressDialog11EnableAbortEb
libwx_gtk2u_core-2.8.so.0:_ZN16wxProgressDialog11EnableCloseEv
libwx_gtk2u_core-2.8.so.0:_ZN16wxProgressDialog13DoAfterUpdateEPb
libwx_gtk2u_core-2.8.so.0:_ZN16wxProgressDialog13UpdateMessageERK8wxString
libwx_gtk2u_core-2.8.so.0:_ZN16wxProgressDialog20ReenableOtherWindowsEv
libwx_gtk2u_core-2.8.so.0:_ZN16wxProgressDialog4ShowEb
libwx_gtk2u_core-2.8.so.0:_ZN16wxProgressDialog5PulseERK8wxStringPb
libwx_gtk2u_core-2.8.so.0:_ZN16wxProgressDialog6OnSkipER14wxCommandEvent
libwx_gtk2u_core-2.8.so.0:_ZN16wxProgressDialog6ResumeEv
libwx_gtk2u_core-2.8.so.0:_ZN16wxProgressDialog6UpdateEiRK8wxStringPb
libwx_gtk2u_core-2.8.so.0:_ZN16wxProgressDialog7OnCloseER12wxCloseEvent
libwx_gtk2u_core-2.8.so.0:_ZN16wxProgressDialog8OnCancelER14wxCommandEvent
libwx_gtk2u_core-2.8.so.0:_ZN16wxProgressDialogC1ERK8wxStringS2_iP8wxWindowi
libwx_gtk2u_core-2.8.so.0:_ZN16wxProgressDialogC2ERK8wxStringS2_iP8wxWindowi
libwx_gtk2u_core-2.8.so.0:_ZN16wxProgressDialogD0Ev
libwx_gtk2u_core-2.8.so.0:_ZN16wxProgressDialogD1Ev
libwx_gtk2u_core-2.8.so.0:_ZN16wxProgressDialogD2Ev
libwx_gtk2u_core-2.8.so.0:_ZN16wxRegionIterator11CreateRectsERK8wxRegion
libwx_gtk2u_core-2.8.so.0:_ZN16wxRegionIterator14wxCreateObjectEv
libwx_gtk2u_core-2.8.so.0:_ZN16wxRegionIterator4InitEv
libwx_gtk2u_core-2.8.so.0:_ZN16wxRegionIterator5ResetERK8wxRegion
libwx_gtk2u_core-2.8.so.0:_ZN16wxRegionIteratorC1ERK8wxRegion
libwx_gtk2u_core-2.8.so.0:_ZN16wxRegionIteratorC1Ev
libwx_gtk2u_core-2.8.so.0:_ZN16wxRegionIteratorC2ERK8wxRegion
libwx_gtk2u_core-2.8.so.0:_ZN16wxRegionIteratorC2Ev
libwx_gtk2u_core-2.8.so.0:_ZN16wxRegionIteratorD0Ev
libwx_gtk2u_core-2.8.so.0:_ZN16wxRegionIteratorD1Ev
libwx_gtk2u_core-2.8.so.0:_ZN16wxRegionIteratorD2Ev
libwx_gtk2u_core-2.8.so.0:_ZN16wxRegionIteratoraSERKS_
libwx_gtk2u_core-2.8.so.0:_ZN16wxRegionIteratorppEi
libwx_gtk2u_core-2.8.so.0:_ZN16wxRegionIteratorppEv
libwx_gtk2u_core-2.8.so.0:_ZN16wxRendererNative10GetDefaultEv
libwx_gtk2u_core-2.8.so.0:_ZN16wxRendererNative10GetGenericEv
libwx_gtk2u_core-2.8.so.0:_ZN16wxRendererNative3GetEv
libwx_gtk2u_core-2.8.so.0:_ZN16wxRendererNative3SetEPS_
libwx_gtk2u_core-2.8.so.0:_ZN16wxRendererNative4LoadERK8wxString
libwx_gtk2u_core-2.8.so.0:_ZN16wxRendererNativeD0Ev
libwx_gtk2u_core-2.8.so.0:_ZN16wxRendererNativeD1Ev
libwx_gtk2u_core-2.8.so.0:_ZN16wxRendererNativeD2Ev
libwx_gtk2u_core-2.8.so.0:_ZN16wxScrollWinEvent14wxCreateObjectEv
libwx_gtk2u_core-2.8.so.0:_ZN16wxScrollWinEventC1Eiii
libwx_gtk2u_core-2.8.so.0:_ZN16wxScrollWinEventC2Eiii
libwx_gtk2u_core-2.8.so.0:_ZN16wxScrolledWindow14wxCreateObjectEv
libwx_gtk2u_core-2.8.so.0:_ZN16wxScrolledWindow6CreateEP8wxWindowiRK7wxPointRK6wxSizelRK8wxString
libwx_gtk2u_core-2.8.so.0:_ZN16wxScrolledWindow7OnPaintER12wxPaintEvent
libwx_gtk2u_core-2.8.so.0:_ZN16wxScrolledWindowD0Ev
libwx_gtk2u_core-2.8.so.0:_ZN16wxScrolledWindowD1Ev
libwx_gtk2u_core-2.8.so.0:_ZN16wxScrolledWindowD2Ev
libwx_gtk2u_core-2.8.so.0:_ZN16wxSelectionStore10SelectItemEmb
libwx_gtk2u_core-2.8.so.0:_ZN16wxSelectionStore11SelectRangeEmmbP10wxArrayInt
libwx_gtk2u_core-2.8.so.0:_ZN16wxSelectionStore12OnItemDeleteEm
libwx_gtk2u_core-2.8.so.0:_ZN16wxSetCursorEvent14wxCreateObjectEv
libwx_gtk2u_core-2.8.so.0:_ZN16wxSplitterWindow10InitializeEP8wxWindow
libwx_gtk2u_core-2.8.so.0:_ZN16wxSplitterWindow10UpdateSizeEv
libwx_gtk2u_core-2.8.so.0:_ZN16wxSplitterWindow11DoSendEventER15wxSplitterEvent
libwx_gtk2u_core-2.8.so.0:_ZN16wxSplitterWindow11OnEnterSashEv
libwx_gtk2u_core-2.8.so.0:_ZN16wxSplitterWindow11OnLeaveSashEv
libwx_gtk2u_core-2.8.so.0:_ZN16wxSplitterWindow11RemoveChildEP12wxWindowBase
libwx_gtk2u_core-2.8.so.0:_ZN16wxSplitterWindow11SashHitTestEiii
libwx_gtk2u_core-2.8.so.0:_ZN16wxSplitterWindow11SizeWindowsEv
libwx_gtk2u_core-2.8.so.0:_ZN16wxSplitterWindow12OnChildFocusER17wxChildFocusEvent
libwx_gtk2u_core-2.8.so.0:_ZN16wxSplitterWindow12OnMouseEventER12wxMouseEvent
libwx_gtk2u_core-2.8.so.0:_ZN16wxSplitterWindow13ReplaceWindowEP8wxWindowS1_
libwx_gtk2u_core-2.8.so.0:_ZN16wxSplitterWindow14OnInternalIdleEv
libwx_gtk2u_core-2.8.so.0:_ZN16wxSplitterWindow14SetSashGravityEd
libwx_gtk2u_core-2.8.so.0:_ZN16wxSplitterWindow14wxCreateObjectEv
libwx_gtk2u_core-2.8.so.0:_ZN16wxSplitterWindow15DrawSashTrackerEii
libwx_gtk2u_core-2.8.so.0:_ZN16wxSplitterWindow15OnNavigationKeyER20wxNavigationKeyEvent
libwx_gtk2u_core-2.8.so.0:_ZN16wxSplitterWindow15SetResizeCursorEv
libwx_gtk2u_core-2.8.so.0:_ZN16wxSplitterWindow15SetSashPositionEib
libwx_gtk2u_core-2.8.so.0:_ZN16wxSplitterWindow17DoSetSashPositionEi
libwx_gtk2u_core-2.8.so.0:_ZN16wxSplitterWindow17OnDoubleClickSashEii
libwx_gtk2u_core-2.8.so.0:_ZN16wxSplitterWindow18SetMinimumPaneSizeEi
libwx_gtk2u_core-2.8.so.0:_ZN16wxSplitterWindow20OnSashPositionChangeEi
libwx_gtk2u_core-2.8.so.0:_ZN16wxSplitterWindow20RedrawIfHotSensitiveEb
libwx_gtk2u_core-2.8.so.0:_ZN16wxSplitterWindow22OnSashPositionChangingEi
libwx_gtk2u_core-2.8.so.0:_ZN16wxSplitterWindow24SetFocusIgnoringChildrenEv
libwx_gtk2u_core-2.8.so.0:_ZN16wxSplitterWindow24SetSashPositionAndNotifyEi
libwx_gtk2u_core-2.8.so.0:_ZN16wxSplitterWindow4InitEv
libwx_gtk2u_core-2.8.so.0:_ZN16wxSplitterWindow6CreateEP8wxWindowiRK7wxPointRK6wxSizelRK8wxString
libwx_gtk2u_core-2.8.so.0:_ZN16wxSplitterWindow6OnSizeER11wxSizeEvent
libwx_gtk2u_core-2.8.so.0:_ZN16wxSplitterWindow7DoSplitE11wxSplitModeP8wxWindowS2_i
libwx_gtk2u_core-2.8.so.0:_ZN16wxSplitterWindow7OnFocusER12wxFocusEvent
libwx_gtk2u_core-2.8.so.0:_ZN16wxSplitterWindow7OnPaintER12wxPaintEvent
libwx_gtk2u_core-2.8.so.0:_ZN16wxSplitterWindow7UnsplitEP8wxWindow
libwx_gtk2u_core-2.8.so.0:_ZN16wxSplitterWindow8DrawSashER4wxDC
libwx_gtk2u_core-2.8.so.0:_ZN16wxSplitterWindow8SetFocusEv
libwx_gtk2u_core-2.8.so.0:_ZN16wxSplitterWindow9OnUnsplitEP8wxWindow
libwx_gtk2u_core-2.8.so.0:_ZN16wxSplitterWindowD0Ev
libwx_gtk2u_core-2.8.so.0:_ZN16wxSplitterWindowD1Ev
libwx_gtk2u_core-2.8.so.0:_ZN16wxSplitterWindowD2Ev
libwx_gtk2u_core-2.8.so.0:_ZN16wxStaticBoxSizer11RecalcSizesEv
libwx_gtk2u_core-2.8.so.0:_ZN16wxStaticBoxSizer6DetachEP8wxWindow
libwx_gtk2u_core-2.8.so.0:_ZN16wxStaticBoxSizer7CalcMinEv
libwx_gtk2u_core-2.8.so.0:_ZN16wxStaticBoxSizer9ShowItemsEb
libwx_gtk2u_core-2.8.so.0:_ZN16wxStaticBoxSizerC1EP11wxStaticBoxi
libwx_gtk2u_core-2.8.so.0:_ZN16wxStaticBoxSizerC1EiP8wxWindowRK8wxString
libwx_gtk2u_core-2.8.so.0:_ZN16wxStaticBoxSizerC2EP11wxStaticBoxi
libwx_gtk2u_core-2.8.so.0:_ZN16wxStaticBoxSizerC2EiP8wxWindowRK8wxString
libwx_gtk2u_core-2.8.so.0:_ZN16wxStaticBoxSizerD0Ev
libwx_gtk2u_core-2.8.so.0:_ZN16wxStaticBoxSizerD1Ev
libwx_gtk2u_core-2.8.so.0:_ZN16wxStaticBoxSizerD2Ev
libwx_gtk2u_core-2.8.so.0:_ZN16wxSystemSettings13GetScreenTypeEv
libwx_gtk2u_core-2.8.so.0:_ZN16wxSystemSettings13SetScreenTypeE18wxSystemScreenType
libwx_gtk2u_core-2.8.so.0:_ZN16wxTextDataObject7SetDataERK12wxDataFormatmPKv
libwx_gtk2u_core-2.8.so.0:_ZN16wxTextDropTarget6OnDataEii12wxDragResult
libwx_gtk2u_core-2.8.so.0:_ZN16wxTextDropTargetC1Ev
libwx_gtk2u_core-2.8.so.0:_ZN16wxTextDropTargetC2Ev
libwx_gtk2u_core-2.8.so.0:_ZN16wxWindowDisablerC1EP8wxWindow
libwx_gtk2u_core-2.8.so.0:_ZN16wxWindowDisablerC2EP8wxWindow
libwx_gtk2u_core-2.8.so.0:_ZN16wxWindowDisablerD1Ev
libwx_gtk2u_core-2.8.so.0:_ZN16wxWindowDisablerD2Ev
libwx_gtk2u_core-2.8.so.0:_ZN16wxWindowListNode10DeleteDataEv
libwx_gtk2u_core-2.8.so.0:_ZN16wxwxMenuListNode10DeleteDataEv
libwx_gtk2u_core-2.8.so.0:_ZN17wxAnyChoiceDialog10CreateListEiPK8wxStringl
libwx_gtk2u_core-2.8.so.0:_ZN17wxAnyChoiceDialog6CreateEP8wxWindowRK8wxStringS4_RK13wxArrayStringlRK7wxPointl
libwx_gtk2u_core-2.8.so.0:_ZN17wxAnyChoiceDialog6CreateEP8wxWindowRK8wxStringS4_iPS3_lRK7wxPointl
libwx_gtk2u_core-2.8.so.0:_ZN17wxArrayVideoModes3AddERK11wxVideoModem
libwx_gtk2u_core-2.8.so.0:_ZN17wxArrayVideoModes6DoCopyERKS_
libwx_gtk2u_core-2.8.so.0:_ZN17wxArrayVideoModes6InsertERK11wxVideoModemm
libwx_gtk2u_core-2.8.so.0:_ZN17wxArrayVideoModes7DoEmptyEv
libwx_gtk2u_core-2.8.so.0:_ZN17wxArrayVideoModes8RemoveAtEmm
libwx_gtk2u_core-2.8.so.0:_ZN17wxArrayVideoModesC1ERKS_
libwx_gtk2u_core-2.8.so.0:_ZN17wxArrayVideoModesC2ERKS_
libwx_gtk2u_core-2.8.so.0:_ZN17wxArrayVideoModesD1Ev
libwx_gtk2u_core-2.8.so.0:_ZN17wxArrayVideoModesD2Ev
libwx_gtk2u_core-2.8.so.0:_ZN17wxArrayVideoModesaSERKS_
libwx_gtk2u_core-2.8.so.0:_ZN17wxAutoScrollTimer6NotifyEv
libwx_gtk2u_core-2.8.so.0:_ZN17wxAutoScrollTimerC1EP8wxWindowP14wxScrollHelperiii
libwx_gtk2u_core-2.8.so.0:_ZN17wxAutoScrollTimerC2EP8wxWindowP14wxScrollHelperiii
libwx_gtk2u_core-2.8.so.0:_ZN17wxChildFocusEvent14wxCreateObjectEv
libwx_gtk2u_core-2.8.so.0:_ZN17wxChildFocusEventC1EP8wxWindow
libwx_gtk2u_core-2.8.so.0:_ZN17wxChildFocusEventC2EP8wxWindow
libwx_gtk2u_core-2.8.so.0:_ZN17wxChoicebookEvent14wxCreateObjectEv
libwx_gtk2u_core-2.8.so.0:_ZN17wxClipboardModule14wxCreateObjectEv
libwx_gtk2u_core-2.8.so.0:_ZN17wxCollapsiblePane14wxCreateObjectEv
libwx_gtk2u_core-2.8.so.0:_ZN17wxCollapsiblePane6CreateEP8wxWindowiRK8wxStringRK7wxPointRK6wxSizelRK11wxValidatorS4_
libwx_gtk2u_core-2.8.so.0:_ZN17wxCollapsiblePane6OnSizeER11wxSizeEvent
libwx_gtk2u_core-2.8.so.0:_ZN17wxCollapsiblePane8CollapseEb
libwx_gtk2u_core-2.8.so.0:_ZN17wxCollapsiblePane8SetLabelERK8wxString
libwx_gtk2u_core-2.8.so.0:_ZN17wxFindDialogEvent14wxCreateObjectEv
libwx_gtk2u_core-2.8.so.0:_ZN17wxFindReplaceData4InitEv
libwx_gtk2u_core-2.8.so.0:_ZN17wxFontPickerEvent14wxCreateObjectEv
libwx_gtk2u_core-2.8.so.0:_ZN17wxGTK2ArtProvider12CreateBitmapERK8wxStringS2_RK6wxSize
libwx_gtk2u_core-2.8.so.0:_ZN17wxGenericListCtrl10DeleteItemEl
libwx_gtk2u_core-2.8.so.0:_ZN17wxGenericListCtrl10InsertItemER10wxListItem
libwx_gtk2u_core-2.8.so.0:_ZN17wxGenericListCtrl10InsertItemElRK8wxString
libwx_gtk2u_core-2.8.so.0:_ZN17wxGenericListCtrl10InsertItemElRK8wxStringi
libwx_gtk2u_core-2.8.so.0:_ZN17wxGenericListCtrl10InsertItemEli
libwx_gtk2u_core-2.8.so.0:_ZN17wxGenericListCtrl10ScrollListEii
libwx_gtk2u_core-2.8.so.0:_ZN17wxGenericListCtrl11DoPopupMenuEP6wxMenuii
libwx_gtk2u_core-2.8.so.0:_ZN17wxGenericListCtrl11RefreshItemEl
libwx_gtk2u_core-2.8.so.0:_ZN17wxGenericListCtrl11SetItemDataEll
libwx_gtk2u_core-2.8.so.0:_ZN17wxGenericListCtrl11SetItemFontElRK6wxFont
libwx_gtk2u_core-2.8.so.0:_ZN17wxGenericListCtrl11SetItemTextElRK8wxString
libwx_gtk2u_core-2.8.so.0:_ZN17wxGenericListCtrl12DeleteColumnEi
libwx_gtk2u_core-2.8.so.0:_ZN17wxGenericListCtrl12InsertColumnElR10wxListItem
libwx_gtk2u_core-2.8.so.0:_ZN17wxGenericListCtrl12InsertColumnElRK8wxStringii
libwx_gtk2u_core-2.8.so.0:_ZN17wxGenericListCtrl12RefreshItemsEll
libwx_gtk2u_core-2.8.so.0:_ZN17wxGenericListCtrl12SetImageListEP11wxImageListi
libwx_gtk2u_core-2.8.so.0:_ZN17wxGenericListCtrl12SetItemCountEl
libwx_gtk2u_core-2.8.so.0:_ZN17wxGenericListCtrl12SetItemImageElii
libwx_gtk2u_core-2.8.so.0:_ZN17wxGenericListCtrl12SetItemStateElll
libwx_gtk2u_core-2.8.so.0:_ZN17wxGenericListCtrl12SetScrollPosEiib
libwx_gtk2u_core-2.8.so.0:_ZN17wxGenericListCtrl13EnsureVisibleEl
libwx_gtk2u_core-2.8.so.0:_ZN17wxGenericListCtrl13SetDropTargetEP12wxDropTarget
libwx_gtk2u_core-2.8.so.0:_ZN17wxGenericListCtrl13SetTextColourERK8wxColour
libwx_gtk2u_core-2.8.so.0:_ZN17wxGenericListCtrl14DeleteAllItemsEv
libwx_gtk2u_core-2.8.so.0:_ZN17wxGenericListCtrl14OnInternalIdleEv
libwx_gtk2u_core-2.8.so.0:_ZN17wxGenericListCtrl14SetColumnWidthEii
libwx_gtk2u_core-2.8.so.0:_ZN17wxGenericListCtrl14SetItemPtrDataElm
libwx_gtk2u_core-2.8.so.0:_ZN17wxGenericListCtrl14SetItemSpacingEib
libwx_gtk2u_core-2.8.so.0:_ZN17wxGenericListCtrl14SetSingleStyleElb
libwx_gtk2u_core-2.8.so.0:_ZN17wxGenericListCtrl14wxCreateObjectEv
libwx_gtk2u_core-2.8.so.0:_ZN17wxGenericListCtrl15AssignImageListEP11wxImageListi
libwx_gtk2u_core-2.8.so.0:_ZN17wxGenericListCtrl15SetItemPositionElRK7wxPoint
libwx_gtk2u_core-2.8.so.0:_ZN17wxGenericListCtrl16DeleteAllColumnsEv
libwx_gtk2u_core-2.8.so.0:_ZN17wxGenericListCtrl16ResizeReportViewEb
libwx_gtk2u_core-2.8.so.0:_ZN17wxGenericListCtrl17SetItemTextColourElRK8wxColour
libwx_gtk2u_core-2.8.so.0:_ZN17wxGenericListCtrl18CreateHeaderWindowEv
libwx_gtk2u_core-2.8.so.0:_ZN17wxGenericListCtrl18SetItemColumnImageElli
libwx_gtk2u_core-2.8.so.0:_ZN17wxGenericListCtrl18SetWindowStyleFlagEl
libwx_gtk2u_core-2.8.so.0:_ZN17wxGenericListCtrl19SetBackgroundColourERK8wxColour
libwx_gtk2u_core-2.8.so.0:_ZN17wxGenericListCtrl19SetForegroundColourERK8wxColour
libwx_gtk2u_core-2.8.so.0:_ZN17wxGenericListCtrl23SetItemBackgroundColourElRK8wxColour
libwx_gtk2u_core-2.8.so.0:_ZN17wxGenericListCtrl25GetClassDefaultAttributesE15wxWindowVariant
libwx_gtk2u_core-2.8.so.0:_ZN17wxGenericListCtrl27CalculateAndSetHeaderHeightEv
libwx_gtk2u_core-2.8.so.0:_ZN17wxGenericListCtrl4ThawEv
libwx_gtk2u_core-2.8.so.0:_ZN17wxGenericListCtrl6CreateEP8wxWindowiRK7wxPointRK6wxSizelRK11wxValidatorRK8wxString
libwx_gtk2u_core-2.8.so.0:_ZN17wxGenericListCtrl6FreezeEv
libwx_gtk2u_core-2.8.so.0:_ZN17wxGenericListCtrl6OnSizeER11wxSizeEvent
libwx_gtk2u_core-2.8.so.0:_ZN17wxGenericListCtrl6UpdateEv
libwx_gtk2u_core-2.8.so.0:_ZN17wxGenericListCtrl7ArrangeEi
libwx_gtk2u_core-2.8.so.0:_ZN17wxGenericListCtrl7RefreshEbPK6wxRect
libwx_gtk2u_core-2.8.so.0:_ZN17wxGenericListCtrl7SetFontERK6wxFont
libwx_gtk2u_core-2.8.so.0:_ZN17wxGenericListCtrl7SetItemER10wxListItem
libwx_gtk2u_core-2.8.so.0:_ZN17wxGenericListCtrl7SetItemEliRK8wxStringi
libwx_gtk2u_core-2.8.so.0:_ZN17wxGenericListCtrl8ClearAllEv
libwx_gtk2u_core-2.8.so.0:_ZN17wxGenericListCtrl8FindItemElRK7wxPointi
libwx_gtk2u_core-2.8.so.0:_ZN17wxGenericListCtrl8FindItemElRK8wxStringb
libwx_gtk2u_core-2.8.so.0:_ZN17wxGenericListCtrl8FindItemElm
libwx_gtk2u_core-2.8.so.0:_ZN17wxGenericListCtrl8SetFocusEv
libwx_gtk2u_core-2.8.so.0:_ZN17wxGenericListCtrl9EditLabelElP11wxClassInfo
libwx_gtk2u_core-2.8.so.0:_ZN17wxGenericListCtrl9SetColumnEiR10wxListItem
libwx_gtk2u_core-2.8.so.0:_ZN17wxGenericListCtrl9SetCursorERK8wxCursor
libwx_gtk2u_core-2.8.so.0:_ZN17wxGenericListCtrl9SortItemsEPFilllEl
libwx_gtk2u_core-2.8.so.0:_ZN17wxGenericListCtrlC1Ev
libwx_gtk2u_core-2.8.so.0:_ZN17wxGenericListCtrlC2Ev
libwx_gtk2u_core-2.8.so.0:_ZN17wxGenericListCtrlD0Ev
libwx_gtk2u_core-2.8.so.0:_ZN17wxGenericListCtrlD1Ev
libwx_gtk2u_core-2.8.so.0:_ZN17wxGenericListCtrlD2Ev
libwx_gtk2u_core-2.8.so.0:_ZN17wxGenericTreeCtrl10DrawBorderERK12wxTreeItemId
libwx_gtk2u_core-2.8.so.0:_ZN17wxGenericTreeCtrl10OnSetFocusER12wxFocusEvent
libwx_gtk2u_core-2.8.so.0:_ZN17wxGenericTreeCtrl10PaintLevelEP17wxGenericTreeItemR4wxDCiRi
libwx_gtk2u_core-2.8.so.0:_ZN17wxGenericTreeCtrl10SelectItemERK12wxTreeItemIdb
libwx_gtk2u_core-2.8.so.0:_ZN17wxGenericTreeCtrl11OnKillFocusER12wxFocusEvent
libwx_gtk2u_core-2.8.so.0:_ZN17wxGenericTreeCtrl11RefreshLineEP17wxGenericTreeItem
libwx_gtk2u_core-2.8.so.0:_ZN17wxGenericTreeCtrl11SetItemBoldERK12wxTreeItemIdb
libwx_gtk2u_core-2.8.so.0:_ZN17wxGenericTreeCtrl11SetItemDataERK12wxTreeItemIdP14wxTreeItemData
libwx_gtk2u_core-2.8.so.0:_ZN17wxGenericTreeCtrl11SetItemFontERK12wxTreeItemIdRK6wxFont
libwx_gtk2u_core-2.8.so.0:_ZN17wxGenericTreeCtrl11SetItemTextERK12wxTreeItemIdRK8wxString
libwx_gtk2u_core-2.8.so.0:_ZN17wxGenericTreeCtrl11UnselectAllEv
libwx_gtk2u_core-2.8.so.0:_ZN17wxGenericTreeCtrl12DoInsertItemERK12wxTreeItemIdmRK8wxStringiiP14wxTreeItemData
libwx_gtk2u_core-2.8.so.0:_ZN17wxGenericTreeCtrl12DoSelectItemERK12wxTreeItemIdbb
libwx_gtk2u_core-2.8.so.0:_ZN17wxGenericTreeCtrl12EndEditLabelERK12wxTreeItemIdb
libwx_gtk2u_core-2.8.so.0:_ZN17wxGenericTreeCtrl12OnGetToolTipER11wxTreeEvent
libwx_gtk2u_core-2.8.so.0:_ZN17wxGenericTreeCtrl12SetImageListEP11wxImageList
libwx_gtk2u_core-2.8.so.0:_ZN17wxGenericTreeCtrl12SetItemImageERK12wxTreeItemIdi14wxTreeItemIcon
libwx_gtk2u_core-2.8.so.0:_ZN17wxGenericTreeCtrl12SortChildrenERK12wxTreeItemId
libwx_gtk2u_core-2.8.so.0:_ZN17wxGenericTreeCtrl13CalculateSizeEP17wxGenericTreeItemR4wxDC
libwx_gtk2u_core-2.8.so.0:_ZN17wxGenericTreeCtrl13DoInsertAfterERK12wxTreeItemIdS2_RK8wxStringiiP14wxTreeItemData
libwx_gtk2u_core-2.8.so.0:_ZN17wxGenericTreeCtrl13EnsureVisibleERK12wxTreeItemId
libwx_gtk2u_core-2.8.so.0:_ZN17wxGenericTreeCtrl13OnRenameTimerEv
libwx_gtk2u_core-2.8.so.0:_ZN17wxGenericTreeCtrl14CalculateLevelEP17wxGenericTreeItemR4wxDCiRi
libwx_gtk2u_core-2.8.so.0:_ZN17wxGenericTreeCtrl14DeleteAllItemsEv
libwx_gtk2u_core-2.8.so.0:_ZN17wxGenericTreeCtrl14DeleteChildrenERK12wxTreeItemId
libwx_gtk2u_core-2.8.so.0:_ZN17wxGenericTreeCtrl14DrawDropEffectEP17wxGenericTreeItem
libwx_gtk2u_core-2.8.so.0:_ZN17wxGenericTreeCtrl14OnInternalIdleEv
libwx_gtk2u_core-2.8.so.0:_ZN17wxGenericTreeCtrl14OnRenameAcceptEP17wxGenericTreeItemRK8wxString
libwx_gtk2u_core-2.8.so.0:_ZN17wxGenericTreeCtrl14RefreshSubtreeEP17wxGenericTreeItem
libwx_gtk2u_core-2.8.so.0:_ZN17wxGenericTreeCtrl14SetWindowStyleEl
libwx_gtk2u_core-2.8.so.0:_ZN17wxGenericTreeCtrl14wxCreateObjectEv
libwx_gtk2u_core-2.8.so.0:_ZN17wxGenericTreeCtrl15ChildrenClosingEP17wxGenericTreeItem
libwx_gtk2u_core-2.8.so.0:_ZN17wxGenericTreeCtrl15RefreshSelectedEv
libwx_gtk2u_core-2.8.so.0:_ZN17wxGenericTreeCtrl15SelectItemRangeEP17wxGenericTreeItemS1_
libwx_gtk2u_core-2.8.so.0:_ZN17wxGenericTreeCtrl15SendDeleteEventEP17wxGenericTreeItem
libwx_gtk2u_core-2.8.so.0:_ZN17wxGenericTreeCtrl15TagNextChildrenEP17wxGenericTreeItemS1_b
libwx_gtk2u_core-2.8.so.0:_ZN17wxGenericTreeCtrl16CollapseAndResetERK12wxTreeItemId
libwx_gtk2u_core-2.8.so.0:_ZN17wxGenericTreeCtrl16ResetTextControlEv
libwx_gtk2u_core-2.8.so.0:_ZN17wxGenericTreeCtrl17DoDirtyProcessingEv
libwx_gtk2u_core-2.8.so.0:_ZN17wxGenericTreeCtrl17OnRenameCancelledEP17wxGenericTreeItem
libwx_gtk2u_core-2.8.so.0:_ZN17wxGenericTreeCtrl17SetItemTextColourERK12wxTreeItemIdRK8wxColour
libwx_gtk2u_core-2.8.so.0:_ZN17wxGenericTreeCtrl17SetStateImageListEP11wxImageList
libwx_gtk2u_core-2.8.so.0:_ZN17wxGenericTreeCtrl18AdjustMyScrollbarsEv
libwx_gtk2u_core-2.8.so.0:_ZN17wxGenericTreeCtrl18CalculatePositionsEv
libwx_gtk2u_core-2.8.so.0:_ZN17wxGenericTreeCtrl18SetItemHasChildrenERK12wxTreeItemIdb
libwx_gtk2u_core-2.8.so.0:_ZN17wxGenericTreeCtrl19CalculateLineHeightEv
libwx_gtk2u_core-2.8.so.0:_ZN17wxGenericTreeCtrl19SetBackgroundColourERK8wxColour
libwx_gtk2u_core-2.8.so.0:_ZN17wxGenericTreeCtrl19SetButtonsImageListEP11wxImageList
libwx_gtk2u_core-2.8.so.0:_ZN17wxGenericTreeCtrl19SetForegroundColourERK8wxColour
libwx_gtk2u_core-2.8.so.0:_ZN17wxGenericTreeCtrl19UnselectAllChildrenEP17wxGenericTreeItem
libwx_gtk2u_core-2.8.so.0:_ZN17wxGenericTreeCtrl20RefreshSelectedUnderEP17wxGenericTreeItem
libwx_gtk2u_core-2.8.so.0:_ZN17wxGenericTreeCtrl20SetItemDropHighlightERK12wxTreeItemIdb
libwx_gtk2u_core-2.8.so.0:_ZN17wxGenericTreeCtrl22AssignButtonsImageListEP11wxImageList
libwx_gtk2u_core-2.8.so.0:_ZN17wxGenericTreeCtrl23SetItemBackgroundColourERK12wxTreeItemIdRK8wxColour
libwx_gtk2u_core-2.8.so.0:_ZN17wxGenericTreeCtrl23TagAllChildrenUntilLastEP17wxGenericTreeItemS1_b
libwx_gtk2u_core-2.8.so.0:_ZN17wxGenericTreeCtrl25GetClassDefaultAttributesE15wxWindowVariant
libwx_gtk2u_core-2.8.so.0:_ZN17wxGenericTreeCtrl4InitEv
libwx_gtk2u_core-2.8.so.0:_ZN17wxGenericTreeCtrl4ThawEv
libwx_gtk2u_core-2.8.so.0:_ZN17wxGenericTreeCtrl6CreateEP8wxWindowiRK7wxPointRK6wxSizelRK11wxValidatorRK8wxString
libwx_gtk2u_core-2.8.so.0:_ZN17wxGenericTreeCtrl6DeleteERK12wxTreeItemId
libwx_gtk2u_core-2.8.so.0:_ZN17wxGenericTreeCtrl6ExpandERK12wxTreeItemId
libwx_gtk2u_core-2.8.so.0:_ZN17wxGenericTreeCtrl6FreezeEv
libwx_gtk2u_core-2.8.so.0:_ZN17wxGenericTreeCtrl6OnCharER10wxKeyEvent
libwx_gtk2u_core-2.8.so.0:_ZN17wxGenericTreeCtrl6OnSizeER11wxSizeEvent
libwx_gtk2u_core-2.8.so.0:_ZN17wxGenericTreeCtrl6ToggleERK12wxTreeItemId
libwx_gtk2u_core-2.8.so.0:_ZN17wxGenericTreeCtrl7AddRootERK8wxStringiiP14wxTreeItemData
libwx_gtk2u_core-2.8.so.0:_ZN17wxGenericTreeCtrl7OnMouseER12wxMouseEvent
libwx_gtk2u_core-2.8.so.0:_ZN17wxGenericTreeCtrl7OnPaintER12wxPaintEvent
libwx_gtk2u_core-2.8.so.0:_ZN17wxGenericTreeCtrl7RefreshEbPK6wxRect
libwx_gtk2u_core-2.8.so.0:_ZN17wxGenericTreeCtrl7SetFontERK6wxFont
libwx_gtk2u_core-2.8.so.0:_ZN17wxGenericTreeCtrl8CollapseERK12wxTreeItemId
libwx_gtk2u_core-2.8.so.0:_ZN17wxGenericTreeCtrl8DrawLineERK12wxTreeItemIdb
libwx_gtk2u_core-2.8.so.0:_ZN17wxGenericTreeCtrl8ScrollToERK12wxTreeItemId
libwx_gtk2u_core-2.8.so.0:_ZN17wxGenericTreeCtrl8UnselectEv
libwx_gtk2u_core-2.8.so.0:_ZN17wxGenericTreeCtrl9EditLabelERK12wxTreeItemIdP11wxClassInfo
libwx_gtk2u_core-2.8.so.0:_ZN17wxGenericTreeCtrl9PaintItemEP17wxGenericTreeItemR4wxDC
libwx_gtk2u_core-2.8.so.0:_ZN17wxGenericTreeCtrl9SetIndentEj
libwx_gtk2u_core-2.8.so.0:_ZN17wxGenericTreeCtrlD0Ev
libwx_gtk2u_core-2.8.so.0:_ZN17wxGenericTreeCtrlD1Ev
libwx_gtk2u_core-2.8.so.0:_ZN17wxGenericTreeCtrlD2Ev
libwx_gtk2u_core-2.8.so.0:_ZN17wxGenericTreeItem13CalculateSizeEP17wxGenericTreeCtrl
libwx_gtk2u_core-2.8.so.0:_ZN17wxGenericTreeItem14DeleteChildrenEP17wxGenericTreeCtrl
libwx_gtk2u_core-2.8.so.0:_ZN17wxGenericTreeItem15DoCalculateSizeEP17wxGenericTreeCtrlR4wxDCb
libwx_gtk2u_core-2.8.so.0:_ZN17wxGenericTreeItem18RecursiveResetSizeEv
libwx_gtk2u_core-2.8.so.0:_ZN17wxGenericTreeItem22RecursiveResetTextSizeEv
libwx_gtk2u_core-2.8.so.0:_ZN17wxGenericTreeItem7GetSizeERiS0_PK17wxGenericTreeCtrl
libwx_gtk2u_core-2.8.so.0:_ZN17wxGenericTreeItem7HitTestERK7wxPointPK17wxGenericTreeCtrlRii
libwx_gtk2u_core-2.8.so.0:_ZN17wxGenericTreeItemC1EPS_RK8wxStringiiP14wxTreeItemData
libwx_gtk2u_core-2.8.so.0:_ZN17wxGenericTreeItemC2EPS_RK8wxStringiiP14wxTreeItemData
libwx_gtk2u_core-2.8.so.0:_ZN17wxGenericTreeItemD1Ev
libwx_gtk2u_core-2.8.so.0:_ZN17wxGenericTreeItemD2Ev
libwx_gtk2u_core-2.8.so.0:_ZN17wxIconVariantData17GetValueClassInfoEv
libwx_gtk2u_core-2.8.so.0:_ZN17wxInitDialogEvent14wxCreateObjectEv
libwx_gtk2u_core-2.8.so.0:_ZN17wxListRenameTimer6NotifyEv
libwx_gtk2u_core-2.8.so.0:_ZN17wxListRenameTimerC1EP16wxListMainWindow
libwx_gtk2u_core-2.8.so.0:_ZN17wxListRenameTimerC2EP16wxListMainWindow
libwx_gtk2u_core-2.8.so.0:_ZN17wxMDIClientWindow12CreateClientEP16wxMDIParentFramel
libwx_gtk2u_core-2.8.so.0:_ZN17wxMDIClientWindow14wxCreateObjectEv
libwx_gtk2u_core-2.8.so.0:_ZN17wxMDIClientWindowC1EP16wxMDIParentFramel
libwx_gtk2u_core-2.8.so.0:_ZN17wxMDIClientWindowC1Ev
libwx_gtk2u_core-2.8.so.0:_ZN17wxMDIClientWindowC2EP16wxMDIParentFramel
libwx_gtk2u_core-2.8.so.0:_ZN17wxMDIClientWindowC2Ev
libwx_gtk2u_core-2.8.so.0:_ZN17wxMDIClientWindowD0Ev
libwx_gtk2u_core-2.8.so.0:_ZN17wxMDIClientWindowD1Ev
libwx_gtk2u_core-2.8.so.0:_ZN17wxMDIClientWindowD2Ev
libwx_gtk2u_core-2.8.so.0:_ZN17wxMemoryFSHandler7AddFileERK8wxStringRK7wxImagel
libwx_gtk2u_core-2.8.so.0:_ZN17wxMemoryFSHandler7AddFileERK8wxStringRK8wxBitmapl
libwx_gtk2u_core-2.8.so.0:_ZN17wxPageSetupDialog16GetPageSetupDataEv
libwx_gtk2u_core-2.8.so.0:_ZN17wxPageSetupDialog22GetPageSetupDialogDataEv
libwx_gtk2u_core-2.8.so.0:_ZN17wxPageSetupDialog9ShowModalEv
libwx_gtk2u_core-2.8.so.0:_ZN17wxPageSetupDialogC1EP8wxWindowP21wxPageSetupDialogData
libwx_gtk2u_core-2.8.so.0:_ZN17wxPageSetupDialogC2EP8wxWindowP21wxPageSetupDialogData
libwx_gtk2u_core-2.8.so.0:_ZN17wxPageSetupDialogD0Ev
libwx_gtk2u_core-2.8.so.0:_ZN17wxPageSetupDialogD1Ev
libwx_gtk2u_core-2.8.so.0:_ZN17wxPageSetupDialogD2Ev
libwx_gtk2u_core-2.8.so.0:_ZN17wxPopupWindowBase6CreateEP8wxWindowi
libwx_gtk2u_core-2.8.so.0:_ZN17wxPopupWindowBase8PositionERK7wxPointRK6wxSize
libwx_gtk2u_core-2.8.so.0:_ZN17wxPopupWindowBaseD0Ev
libwx_gtk2u_core-2.8.so.0:_ZN17wxPopupWindowBaseD1Ev
libwx_gtk2u_core-2.8.so.0:_ZN17wxPopupWindowBaseD2Ev
libwx_gtk2u_core-2.8.so.0:_ZN17wxPrintDialogBaseC1EP8wxWindowiRK8wxStringRK7wxPointRK6wxSizel
libwx_gtk2u_core-2.8.so.0:_ZN17wxPrintDialogBaseC2EP8wxWindowiRK8wxStringRK7wxPointRK6wxSizel
libwx_gtk2u_core-2.8.so.0:_ZN17wxPrintDialogData14wxCreateObjectEv
libwx_gtk2u_core-2.8.so.0:_ZN17wxPrintDialogDataC1ERK11wxPrintData
libwx_gtk2u_core-2.8.so.0:_ZN17wxPrintDialogDataC1ERKS_
libwx_gtk2u_core-2.8.so.0:_ZN17wxPrintDialogDataC1Ev
libwx_gtk2u_core-2.8.so.0:_ZN17wxPrintDialogDataC2ERK11wxPrintData
libwx_gtk2u_core-2.8.so.0:_ZN17wxPrintDialogDataC2ERKS_
libwx_gtk2u_core-2.8.so.0:_ZN17wxPrintDialogDataC2Ev
libwx_gtk2u_core-2.8.so.0:_ZN17wxPrintDialogDataD0Ev
libwx_gtk2u_core-2.8.so.0:_ZN17wxPrintDialogDataD1Ev
libwx_gtk2u_core-2.8.so.0:_ZN17wxPrintDialogDataD2Ev
libwx_gtk2u_core-2.8.so.0:_ZN17wxPrintDialogDataaSERK11wxPrintData
libwx_gtk2u_core-2.8.so.0:_ZN17wxPrintDialogDataaSERKS_
libwx_gtk2u_core-2.8.so.0:_ZN17wxRendererGeneric12DoGetGenericEv
libwx_gtk2u_core-2.8.so.0:_ZN17wxRendererGeneric12DrawCheckBoxEP8wxWindowR4wxDCRK6wxRecti
libwx_gtk2u_core-2.8.so.0:_ZN17wxRendererGeneric13DrawDropArrowEP8wxWindowR4wxDCRK6wxRecti
libwx_gtk2u_core-2.8.so.0:_ZN17wxRendererGeneric14DrawPushButtonEP8wxWindowR4wxDCRK6wxRecti
libwx_gtk2u_core-2.8.so.0:_ZN17wxRendererGeneric14DrawShadedRectER4wxDCP6wxRectRK5wxPenS6_
libwx_gtk2u_core-2.8.so.0:_ZN17wxRendererGeneric16DrawHeaderButtonEP8wxWindowR4wxDCRK6wxRecti20wxHeaderSortIconTypeP20wxHeaderButtonParams
libwx_gtk2u_core-2.8.so.0:_ZN17wxRendererGeneric16DrawSplitterSashEP8wxWindowR4wxDCRK6wxSizei13wxOrientationi
libwx_gtk2u_core-2.8.so.0:_ZN17wxRendererGeneric17GetSplitterParamsEPK8wxWindow
libwx_gtk2u_core-2.8.so.0:_ZN17wxRendererGeneric18DrawSplitterBorderEP8wxWindowR4wxDCRK6wxRecti
libwx_gtk2u_core-2.8.so.0:_ZN17wxRendererGeneric18DrawTreeItemButtonEP8wxWindowR4wxDCRK6wxRecti
libwx_gtk2u_core-2.8.so.0:_ZN17wxRendererGeneric21DrawItemSelectionRectEP8wxWindowR4wxDCRK6wxRecti
libwx_gtk2u_core-2.8.so.0:_ZN17wxRendererGeneric21GetHeaderButtonHeightEP8wxWindow
libwx_gtk2u_core-2.8.so.0:_ZN17wxRendererGeneric22DrawComboBoxDropButtonEP8wxWindowR4wxDCRK6wxRecti
libwx_gtk2u_core-2.8.so.0:_ZN17wxRendererGeneric24DrawHeaderButtonContentsEP8wxWindowR4wxDCRK6wxRecti20wxHeaderSortIconTypeP20wxHeaderButtonParams
libwx_gtk2u_core-2.8.so.0:_ZN17wxRendererGeneric7CleanupEv
libwx_gtk2u_core-2.8.so.0:_ZN17wxRendererGenericC1Ev
libwx_gtk2u_core-2.8.so.0:_ZN17wxRendererGenericC2Ev
libwx_gtk2u_core-2.8.so.0:_ZN17wxRendererPtrBaseD1Ev
libwx_gtk2u_core-2.8.so.0:_ZN17wxRendererPtrBaseD2Ev
libwx_gtk2u_core-2.8.so.0:_ZN17wxTextEntryDialog16SetTextValidatorERK15wxTextValidator
libwx_gtk2u_core-2.8.so.0:_ZN17wxTextEntryDialog16SetTextValidatorEl
libwx_gtk2u_core-2.8.so.0:_ZN17wxTextEntryDialog4OnOKER14wxCommandEvent
libwx_gtk2u_core-2.8.so.0:_ZN17wxTextEntryDialog8SetValueERK8wxString
libwx_gtk2u_core-2.8.so.0:_ZN17wxTextEntryDialogC1EP8wxWindowRK8wxStringS4_S4_lRK7wxPoint
libwx_gtk2u_core-2.8.so.0:_ZN17wxTextEntryDialogC2EP8wxWindowRK8wxStringS4_S4_lRK7wxPoint
libwx_gtk2u_core-2.8.so.0:_ZN17wxToolBarToolBase11SetLongHelpERK8wxString
libwx_gtk2u_core-2.8.so.0:_ZN17wxToolBarToolBase12SetShortHelpERK8wxString
libwx_gtk2u_core-2.8.so.0:_ZN17wxToolBarToolBase14wxCreateObjectEv
libwx_gtk2u_core-2.8.so.0:_ZN17wxToolBarToolBase6EnableEb
libwx_gtk2u_core-2.8.so.0:_ZN17wxToolBarToolBase6ToggleEb
libwx_gtk2u_core-2.8.so.0:_ZN17wxToolBarToolBase9SetToggleEb
libwx_gtk2u_core-2.8.so.0:_ZN17wxTransformMatrix10Get_scaleXEv
libwx_gtk2u_core-2.8.so.0:_ZN17wxTransformMatrix10Get_scaleYEv
libwx_gtk2u_core-2.8.so.0:_ZN17wxTransformMatrix11GetRotationEv
libwx_gtk2u_core-2.8.so.0:_ZN17wxTransformMatrix11SetRotationEd
libwx_gtk2u_core-2.8.so.0:_ZN17wxTransformMatrix5ScaleERKdS1_S1_S1_
libwx_gtk2u_core-2.8.so.0:_ZN17wxTransformMatrix5ScaleEd
libwx_gtk2u_core-2.8.so.0:_ZN17wxTransformMatrix6InvertEv
libwx_gtk2u_core-2.8.so.0:_ZN17wxTransformMatrix6MirrorEbb
libwx_gtk2u_core-2.8.so.0:_ZN17wxTransformMatrix6RotateERKdS1_S1_
libwx_gtk2u_core-2.8.so.0:_ZN17wxTransformMatrix6RotateEd
libwx_gtk2u_core-2.8.so.0:_ZN17wxTransformMatrix8IdentityEv
libwx_gtk2u_core-2.8.so.0:_ZN17wxTransformMatrix8SetValueEiid
libwx_gtk2u_core-2.8.so.0:_ZN17wxTransformMatrix9TranslateEdd
libwx_gtk2u_core-2.8.so.0:_ZN17wxTransformMatrixC1ERKS_
libwx_gtk2u_core-2.8.so.0:_ZN17wxTransformMatrixC1Ev
libwx_gtk2u_core-2.8.so.0:_ZN17wxTransformMatrixC2ERKS_
libwx_gtk2u_core-2.8.so.0:_ZN17wxTransformMatrixC2Ev
libwx_gtk2u_core-2.8.so.0:_ZN17wxTransformMatrixaSERKS_
libwx_gtk2u_core-2.8.so.0:_ZN17wxTransformMatrixclEii
libwx_gtk2u_core-2.8.so.0:_ZN17wxTransformMatrixdVERKd
libwx_gtk2u_core-2.8.so.0:_ZN17wxTransformMatrixmIERKS_
libwx_gtk2u_core-2.8.so.0:_ZN17wxTransformMatrixmLERKS_
libwx_gtk2u_core-2.8.so.0:_ZN17wxTransformMatrixmLERKd
libwx_gtk2u_core-2.8.so.0:_ZN17wxTransformMatrixpLERKS_
libwx_gtk2u_core-2.8.so.0:_ZN17wxTreeRenameTimer6NotifyEv
libwx_gtk2u_core-2.8.so.0:_ZN17wxTreeRenameTimerC1EP17wxGenericTreeCtrl
libwx_gtk2u_core-2.8.so.0:_ZN17wxTreeRenameTimerC2EP17wxGenericTreeCtrl
libwx_gtk2u_core-2.8.so.0:_ZN17wxVScrolledWindow10RefreshAllEv
libwx_gtk2u_core-2.8.so.0:_ZN17wxVScrolledWindow11RefreshLineEm
libwx_gtk2u_core-2.8.so.0:_ZN17wxVScrolledWindow11ScrollLinesEi
libwx_gtk2u_core-2.8.so.0:_ZN17wxVScrolledWindow11ScrollPagesEi
libwx_gtk2u_core-2.8.so.0:_ZN17wxVScrolledWindow12OnMouseWheelER12wxMouseEvent
libwx_gtk2u_core-2.8.so.0:_ZN17wxVScrolledWindow12RefreshLinesEmm
libwx_gtk2u_core-2.8.so.0:_ZN17wxVScrolledWindow12ScrollToLineEm
libwx_gtk2u_core-2.8.so.0:_ZN17wxVScrolledWindow12SetLineCountEm
libwx_gtk2u_core-2.8.so.0:_ZN17wxVScrolledWindow15RemoveScrollbarEv
libwx_gtk2u_core-2.8.so.0:_ZN17wxVScrolledWindow15UpdateScrollbarEv
libwx_gtk2u_core-2.8.so.0:_ZN17wxVScrolledWindow19FindFirstFromBottomEmb
libwx_gtk2u_core-2.8.so.0:_ZN17wxVScrolledWindow4InitEv
libwx_gtk2u_core-2.8.so.0:_ZN17wxVScrolledWindow6LayoutEv
libwx_gtk2u_core-2.8.so.0:_ZN17wxVScrolledWindow6OnSizeER11wxSizeEvent
libwx_gtk2u_core-2.8.so.0:_ZN17wxVScrolledWindow8OnScrollER16wxScrollWinEvent
libwx_gtk2u_core-2.8.so.0:_ZN17wxwxAccelListNode10DeleteDataEv
libwx_gtk2u_core-2.8.so.0:_ZN18wxAcceleratorEntry10FromStringERK8wxString
libwx_gtk2u_core-2.8.so.0:_ZN18wxAcceleratorEntry10ParseAccelERK8wxStringPiS3_
libwx_gtk2u_core-2.8.so.0:_ZN18wxAcceleratorEntry6CreateERK8wxString
libwx_gtk2u_core-2.8.so.0:_ZN18wxAcceleratorTable14wxCreateObjectEv
libwx_gtk2u_core-2.8.so.0:_ZN18wxAcceleratorTable3AddERK18wxAcceleratorEntry
libwx_gtk2u_core-2.8.so.0:_ZN18wxAcceleratorTable6RemoveERK18wxAcceleratorEntry
libwx_gtk2u_core-2.8.so.0:_ZN18wxAcceleratorTableC1EiPK18wxAcceleratorEntry
libwx_gtk2u_core-2.8.so.0:_ZN18wxAcceleratorTableC1Ev
libwx_gtk2u_core-2.8.so.0:_ZN18wxAcceleratorTableC2EiPK18wxAcceleratorEntry
libwx_gtk2u_core-2.8.so.0:_ZN18wxAcceleratorTableC2Ev
libwx_gtk2u_core-2.8.so.0:_ZN18wxAcceleratorTableD0Ev
libwx_gtk2u_core-2.8.so.0:_ZN18wxAcceleratorTableD1Ev
libwx_gtk2u_core-2.8.so.0:_ZN18wxAcceleratorTableD2Ev
libwx_gtk2u_core-2.8.so.0:_ZN18wxArtProviderCache15ConstructHashIDERK8wxStringS2_RK6wxSize
libwx_gtk2u_core-2.8.so.0:_ZN18wxArtProviderCache5ClearEv
libwx_gtk2u_core-2.8.so.0:_ZN18wxArtProviderCache9GetBitmapERK8wxStringP8wxBitmap
libwx_gtk2u_core-2.8.so.0:_ZN18wxBitmapBaseModule14wxCreateObjectEv
libwx_gtk2u_core-2.8.so.0:_ZN18wxBitmapDataObject14DoConvertToPngEv
libwx_gtk2u_core-2.8.so.0:_ZN18wxBitmapDataObject7SetDataEmPKv
libwx_gtk2u_core-2.8.so.0:_ZN18wxBitmapDataObject9SetBitmapERK8wxBitmap
libwx_gtk2u_core-2.8.so.0:_ZN18wxBitmapDataObjectC1ERK8wxBitmap
libwx_gtk2u_core-2.8.so.0:_ZN18wxBitmapDataObjectC1Ev
libwx_gtk2u_core-2.8.so.0:_ZN18wxBitmapDataObjectC2ERK8wxBitmap
libwx_gtk2u_core-2.8.so.0:_ZN18wxBitmapDataObjectC2Ev
libwx_gtk2u_core-2.8.so.0:_ZN18wxBitmapDataObjectD0Ev
libwx_gtk2u_core-2.8.so.0:_ZN18wxBitmapDataObjectD1Ev
libwx_gtk2u_core-2.8.so.0:_ZN18wxBitmapDataObjectD2Ev
libwx_gtk2u_core-2.8.so.0:_ZN18wxColourPickerCtrl14OnColourChangeER19wxColourPickerEvent
libwx_gtk2u_core-2.8.so.0:_ZN18wxColourPickerCtrl14wxCreateObjectEv
libwx_gtk2u_core-2.8.so.0:_ZN18wxColourPickerCtrl24UpdatePickerFromTextCtrlEv
libwx_gtk2u_core-2.8.so.0:_ZN18wxColourPickerCtrl24UpdateTextCtrlFromPickerEv
libwx_gtk2u_core-2.8.so.0:_ZN18wxColourPickerCtrl6CreateEP8wxWindowiRK8wxColourRK7wxPointRK6wxSizelRK11wxValidatorRK8wxString
libwx_gtk2u_core-2.8.so.0:_ZN18wxColourPickerCtrl9SetColourERK8wxColour
libwx_gtk2u_core-2.8.so.0:_ZN18wxColourPickerCtrl9SetColourERK8wxString
libwx_gtk2u_core-2.8.so.0:_ZN18wxComboPopupWindow15ProcessLeftDownER12wxMouseEvent
libwx_gtk2u_core-2.8.so.0:_ZN18wxComboPopupWindow4ShowEb
libwx_gtk2u_core-2.8.so.0:_ZN18wxComboPopupWindow9OnDismissEv
libwx_gtk2u_core-2.8.so.0:_ZN18wxCommandProcessor10InitializeEv
libwx_gtk2u_core-2.8.so.0:_ZN18wxCommandProcessor11UndoCommandER9wxCommand
libwx_gtk2u_core-2.8.so.0:_ZN18wxCommandProcessor13ClearCommandsEv
libwx_gtk2u_core-2.8.so.0:_ZN18wxCommandProcessor14SetMenuStringsEv
libwx_gtk2u_core-2.8.so.0:_ZN18wxCommandProcessor14wxCreateObjectEv
libwx_gtk2u_core-2.8.so.0:_ZN18wxCommandProcessor4RedoEv
libwx_gtk2u_core-2.8.so.0:_ZN18wxCommandProcessor4UndoEv
libwx_gtk2u_core-2.8.so.0:_ZN18wxCommandProcessor5StoreEP9wxCommand
libwx_gtk2u_core-2.8.so.0:_ZN18wxCommandProcessor6SubmitEP9wxCommandb
libwx_gtk2u_core-2.8.so.0:_ZN18wxCommandProcessor9DoCommandER9wxCommand
libwx_gtk2u_core-2.8.so.0:_ZN18wxCommandProcessorC1Ei
libwx_gtk2u_core-2.8.so.0:_ZN18wxCommandProcessorC2Ei
libwx_gtk2u_core-2.8.so.0:_ZN18wxCommandProcessorD0Ev
libwx_gtk2u_core-2.8.so.0:_ZN18wxCommandProcessorD1Ev
libwx_gtk2u_core-2.8.so.0:_ZN18wxCommandProcessorD2Ev
libwx_gtk2u_core-2.8.so.0:_ZN18wxContextMenuEvent14wxCreateObjectEv
libwx_gtk2u_core-2.8.so.0:_ZN18wxControlContainer10DoSetFocusEv
libwx_gtk2u_core-2.8.so.0:_ZN18wxControlContainer12SetLastFocusEP8wxWindow
libwx_gtk2u_core-2.8.so.0:_ZN18wxControlContainer13HandleOnFocusER12wxFocusEvent
libwx_gtk2u_core-2.8.so.0:_ZN18wxControlContainer15SetFocusToChildEv
libwx_gtk2u_core-2.8.so.0:_ZN18wxControlContainer21HandleOnNavigationKeyER20wxNavigationKeyEvent
libwx_gtk2u_core-2.8.so.0:_ZN18wxControlContainer21HandleOnWindowDestroyEP12wxWindowBase
libwx_gtk2u_core-2.8.so.0:_ZN18wxControlContainerC1EP8wxWindow
libwx_gtk2u_core-2.8.so.0:_ZN18wxControlContainerC2EP8wxWindow
libwx_gtk2u_core-2.8.so.0:_ZN18wxControlWithItems25InitCommandEventWithItemsER14wxCommandEventi
libwx_gtk2u_core-2.8.so.0:_ZN18wxControlWithItemsD0Ev
libwx_gtk2u_core-2.8.so.0:_ZN18wxControlWithItemsD1Ev
libwx_gtk2u_core-2.8.so.0:_ZN18wxControlWithItemsD2Ev
libwx_gtk2u_core-2.8.so.0:_ZN18wxCustomDataObject4FreeEv
libwx_gtk2u_core-2.8.so.0:_ZN18wxCustomDataObject5AllocEm
libwx_gtk2u_core-2.8.so.0:_ZN18wxCustomDataObject7SetDataEmPKv
libwx_gtk2u_core-2.8.so.0:_ZN18wxCustomDataObject8TakeDataEmPv
libwx_gtk2u_core-2.8.so.0:_ZN18wxCustomDataObjectC1ERK12wxDataFormat
libwx_gtk2u_core-2.8.so.0:_ZN18wxCustomDataObjectC2ERK12wxDataFormat
libwx_gtk2u_core-2.8.so.0:_ZN18wxCustomDataObjectD0Ev
libwx_gtk2u_core-2.8.so.0:_ZN18wxCustomDataObjectD1Ev
libwx_gtk2u_core-2.8.so.0:_ZN18wxCustomDataObjectD2Ev
libwx_gtk2u_core-2.8.so.0:_ZN18wxDocMDIChildFrame10OnActivateER15wxActivateEvent
libwx_gtk2u_core-2.8.so.0:_ZN18wxDocMDIChildFrame12ProcessEventER7wxEvent
libwx_gtk2u_core-2.8.so.0:_ZN18wxDocMDIChildFrame13OnCloseWindowER12wxCloseEvent
libwx_gtk2u_core-2.8.so.0:_ZN18wxDocMDIChildFrame4InitEv
libwx_gtk2u_core-2.8.so.0:_ZN18wxDocMDIChildFrame6CreateEP10wxDocumentP6wxViewP16wxMDIParentFrameiRK8wxStringRK7wxPointRK6wxSizelS8_
libwx_gtk2u_core-2.8.so.0:_ZN18wxDocMDIChildFrameC1EP10wxDocumentP6wxViewP16wxMDIParentFrameiRK8wxStringRK7wxPointRK6wxSizelS8_
libwx_gtk2u_core-2.8.so.0:_ZN18wxDocMDIChildFrameC1Ev
libwx_gtk2u_core-2.8.so.0:_ZN18wxDocMDIChildFrameC2EP10wxDocumentP6wxViewP16wxMDIParentFrameiRK8wxStringRK7wxPointRK6wxSizelS8_
libwx_gtk2u_core-2.8.so.0:_ZN18wxDocMDIChildFrameC2Ev
libwx_gtk2u_core-2.8.so.0:_ZN18wxDocMDIChildFrameD0Ev
libwx_gtk2u_core-2.8.so.0:_ZN18wxDocMDIChildFrameD1Ev
libwx_gtk2u_core-2.8.so.0:_ZN18wxDocMDIChildFrameD2Ev
libwx_gtk2u_core-2.8.so.0:_ZN18wxGUIAppTraitsBase14CreateRendererEv
libwx_gtk2u_core-2.8.so.0:_ZN18wxGUIAppTraitsBase15CreateLogTargetEv
libwx_gtk2u_core-2.8.so.0:_ZN18wxGUIAppTraitsBase16CreateFontMapperEv
libwx_gtk2u_core-2.8.so.0:_ZN18wxGUIAppTraitsBase18ScheduleForDestroyEP8wxObject
libwx_gtk2u_core-2.8.so.0:_ZN18wxGUIAppTraitsBase19CreateMessageOutputEv
libwx_gtk2u_core-2.8.so.0:_ZN18wxGUIAppTraitsBase23RemoveFromPendingDeleteEP8wxObject
libwx_gtk2u_core-2.8.so.0:_ZN18wxGUIAppTraitsBase26GetSocketGUIFunctionsTableEv
libwx_gtk2u_core-2.8.so.0:_ZN18wxGUIAppTraitsBase9HasStderrEv
libwx_gtk2u_core-2.8.so.0:_ZN18wxGenericComboCtrl12OnMouseEventER12wxMouseEvent
libwx_gtk2u_core-2.8.so.0:_ZN18wxGenericComboCtrl12OnPaintEventER12wxPaintEvent
libwx_gtk2u_core-2.8.so.0:_ZN18wxGenericComboCtrl14wxCreateObjectEv
libwx_gtk2u_core-2.8.so.0:_ZN18wxGenericComboCtrl19SetCustomPaintWidthEi
libwx_gtk2u_core-2.8.so.0:_ZN18wxGenericComboCtrl4InitEv
libwx_gtk2u_core-2.8.so.0:_ZN18wxGenericComboCtrl6CreateEP8wxWindowiRK8wxStringRK7wxPointRK6wxSizelRK11wxValidatorS4_
libwx_gtk2u_core-2.8.so.0:_ZN18wxGenericComboCtrl8OnResizeEv
libwx_gtk2u_core-2.8.so.0:_ZN18wxGenericComboCtrlD0Ev
libwx_gtk2u_core-2.8.so.0:_ZN18wxGenericComboCtrlD1Ev
libwx_gtk2u_core-2.8.so.0:_ZN18wxGenericComboCtrlD2Ev
libwx_gtk2u_core-2.8.so.0:_ZN18wxGenericDirButton14wxCreateObjectEv
libwx_gtk2u_core-2.8.so.0:_ZN18wxGenericDirDialog12OnShowHiddenER14wxCommandEvent
libwx_gtk2u_core-2.8.so.0:_ZN18wxGenericDirDialog13OnCloseWindowER12wxCloseEvent
libwx_gtk2u_core-2.8.so.0:_ZN18wxGenericDirDialog13OnTreeKeyDownER11wxTreeEvent
libwx_gtk2u_core-2.8.so.0:_ZN18wxGenericDirDialog14OnTreeSelectedER11wxTreeEvent
libwx_gtk2u_core-2.8.so.0:_ZN18wxGenericDirDialog14wxCreateObjectEv
libwx_gtk2u_core-2.8.so.0:_ZN18wxGenericDirDialog4OnOKER14wxCommandEvent
libwx_gtk2u_core-2.8.so.0:_ZN18wxGenericDirDialog5OnNewER14wxCommandEvent
libwx_gtk2u_core-2.8.so.0:_ZN18wxGenericDirDialog6CreateEP8wxWindowRK8wxStringS4_lRK7wxPointRK6wxSizeS4_
libwx_gtk2u_core-2.8.so.0:_ZN18wxGenericDirDialog7SetPathERK8wxString
libwx_gtk2u_core-2.8.so.0:_ZN18wxGenericDirDialog8EndModalEi
libwx_gtk2u_core-2.8.so.0:_ZN18wxGenericDirDialog8OnGoHomeER14wxCommandEvent
libwx_gtk2u_core-2.8.so.0:_ZN18wxGenericDirDialog9ShowModalEv
libwx_gtk2u_core-2.8.so.0:_ZN18wxGenericDirDialogC1EP8wxWindowRK8wxStringS4_lRK7wxPointRK6wxSizeS4_
libwx_gtk2u_core-2.8.so.0:_ZN18wxGenericDirDialogC2EP8wxWindowRK8wxStringS4_lRK7wxPointRK6wxSizeS4_
libwx_gtk2u_core-2.8.so.0:_ZN18wxGenericDragImage11RedrawImageERK7wxPointS2_bb
libwx_gtk2u_core-2.8.so.0:_ZN18wxGenericDragImage14wxCreateObjectEv
libwx_gtk2u_core-2.8.so.0:_ZN18wxGenericDragImage4HideEv
libwx_gtk2u_core-2.8.so.0:_ZN18wxGenericDragImage4InitEv
libwx_gtk2u_core-2.8.so.0:_ZN18wxGenericDragImage4MoveERK7wxPoint
libwx_gtk2u_core-2.8.so.0:_ZN18wxGenericDragImage4ShowEv
libwx_gtk2u_core-2.8.so.0:_ZN18wxGenericDragImage6CreateERK10wxListCtrll
libwx_gtk2u_core-2.8.so.0:_ZN18wxGenericDragImage6CreateERK10wxTreeCtrlR12wxTreeItemId
libwx_gtk2u_core-2.8.so.0:_ZN18wxGenericDragImage6CreateERK6wxIconRK8wxCursor
libwx_gtk2u_core-2.8.so.0:_ZN18wxGenericDragImage6CreateERK6wxIconRK8wxCursorRK7wxPoint
libwx_gtk2u_core-2.8.so.0:_ZN18wxGenericDragImage6CreateERK8wxBitmapRK8wxCursor
libwx_gtk2u_core-2.8.so.0:_ZN18wxGenericDragImage6CreateERK8wxBitmapRK8wxCursorRK7wxPoint
libwx_gtk2u_core-2.8.so.0:_ZN18wxGenericDragImage6CreateERK8wxCursor
libwx_gtk2u_core-2.8.so.0:_ZN18wxGenericDragImage6CreateERK8wxCursorRK7wxPoint
libwx_gtk2u_core-2.8.so.0:_ZN18wxGenericDragImage6CreateERK8wxStringRK8wxCursor
libwx_gtk2u_core-2.8.so.0:_ZN18wxGenericDragImage6CreateERK8wxStringRK8wxCursorRK7wxPoint
libwx_gtk2u_core-2.8.so.0:_ZN18wxGenericDragImage7EndDragEv
libwx_gtk2u_core-2.8.so.0:_ZN18wxGenericDragImage9BeginDragERK7wxPointP8wxWindowS4_
libwx_gtk2u_core-2.8.so.0:_ZN18wxGenericDragImage9BeginDragERK7wxPointP8wxWindowbP6wxRect
libwx_gtk2u_core-2.8.so.0:_ZN18wxGenericDragImageC1ERK6wxIconRK8wxCursorRK7wxPoint
libwx_gtk2u_core-2.8.so.0:_ZN18wxGenericDragImageC1ERK8wxBitmapRK8wxCursorRK7wxPoint
libwx_gtk2u_core-2.8.so.0:_ZN18wxGenericDragImageC1ERK8wxCursorRK7wxPoint
libwx_gtk2u_core-2.8.so.0:_ZN18wxGenericDragImageC1ERK8wxStringRK8wxCursorRK7wxPoint
libwx_gtk2u_core-2.8.so.0:_ZN18wxGenericDragImageC2ERK6wxIconRK8wxCursorRK7wxPoint
libwx_gtk2u_core-2.8.so.0:_ZN18wxGenericDragImageC2ERK8wxBitmapRK8wxCursorRK7wxPoint
libwx_gtk2u_core-2.8.so.0:_ZN18wxGenericDragImageC2ERK8wxCursorRK7wxPoint
libwx_gtk2u_core-2.8.so.0:_ZN18wxGenericDragImageC2ERK8wxStringRK8wxCursorRK7wxPoint
libwx_gtk2u_core-2.8.so.0:_ZN18wxGenericDragImageD0Ev
libwx_gtk2u_core-2.8.so.0:_ZN18wxGenericDragImageD1Ev
libwx_gtk2u_core-2.8.so.0:_ZN18wxGenericDragImageD2Ev
libwx_gtk2u_core-2.8.so.0:_ZN18wxGenericImageList14wxCreateObjectEv
libwx_gtk2u_core-2.8.so.0:_ZN18wxGenericImageList3AddERK8wxBitmap
libwx_gtk2u_core-2.8.so.0:_ZN18wxGenericImageList3AddERK8wxBitmapRK8wxColour
libwx_gtk2u_core-2.8.so.0:_ZN18wxGenericImageList3AddERK8wxBitmapS2_
libwx_gtk2u_core-2.8.so.0:_ZN18wxGenericImageList4DrawEiR4wxDCiiib
libwx_gtk2u_core-2.8.so.0:_ZN18wxGenericImageList6CreateEiibi
libwx_gtk2u_core-2.8.so.0:_ZN18wxGenericImageList6CreateEv
libwx_gtk2u_core-2.8.so.0:_ZN18wxGenericImageList6RemoveEi
libwx_gtk2u_core-2.8.so.0:_ZN18wxGenericImageList7ReplaceEiRK8wxBitmap
libwx_gtk2u_core-2.8.so.0:_ZN18wxGenericImageList7ReplaceEiRK8wxBitmapS2_
libwx_gtk2u_core-2.8.so.0:_ZN18wxGenericImageList9RemoveAllEv
libwx_gtk2u_core-2.8.so.0:_ZN18wxGenericImageListC1Eiibi
libwx_gtk2u_core-2.8.so.0:_ZN18wxGenericImageListC2Eiibi
libwx_gtk2u_core-2.8.so.0:_ZN18wxGenericImageListD0Ev
libwx_gtk2u_core-2.8.so.0:_ZN18wxGenericImageListD1Ev
libwx_gtk2u_core-2.8.so.0:_ZN18wxGenericImageListD2Ev
libwx_gtk2u_core-2.8.so.0:_ZN18wxGenericValidator10InitializeEv
libwx_gtk2u_core-2.8.so.0:_ZN18wxGenericValidator16TransferToWindowEv
libwx_gtk2u_core-2.8.so.0:_ZN18wxGenericValidator18TransferFromWindowEv
libwx_gtk2u_core-2.8.so.0:_ZN18wxGenericValidator4CopyERKS_
libwx_gtk2u_core-2.8.so.0:_ZN18wxGenericValidatorC1EP10wxArrayInt
libwx_gtk2u_core-2.8.so.0:_ZN18wxGenericValidatorC1EP8wxString
libwx_gtk2u_core-2.8.so.0:_ZN18wxGenericValidatorC1EPb
libwx_gtk2u_core-2.8.so.0:_ZN18wxGenericValidatorC1EPi
libwx_gtk2u_core-2.8.so.0:_ZN18wxGenericValidatorC1ERKS_
libwx_gtk2u_core-2.8.so.0:_ZN18wxGenericValidatorC2EP10wxArrayInt
libwx_gtk2u_core-2.8.so.0:_ZN18wxGenericValidatorC2EP8wxString
libwx_gtk2u_core-2.8.so.0:_ZN18wxGenericValidatorC2EPb
libwx_gtk2u_core-2.8.so.0:_ZN18wxGenericValidatorC2EPi
libwx_gtk2u_core-2.8.so.0:_ZN18wxGenericValidatorC2ERKS_
libwx_gtk2u_core-2.8.so.0:_ZN18wxImageVariantData17GetValueClassInfoEv
libwx_gtk2u_core-2.8.so.0:_ZN18wxListHeaderWindow10OnSetFocusER12wxFocusEvent
libwx_gtk2u_core-2.8.so.0:_ZN18wxListHeaderWindow11DrawCurrentEv
libwx_gtk2u_core-2.8.so.0:_ZN18wxListHeaderWindow13SendListEventEiRK7wxPoint
libwx_gtk2u_core-2.8.so.0:_ZN18wxListHeaderWindow14wxCreateObjectEv
libwx_gtk2u_core-2.8.so.0:_ZN18wxListHeaderWindow4InitEv
libwx_gtk2u_core-2.8.so.0:_ZN18wxListHeaderWindow7OnMouseER12wxMouseEvent
libwx_gtk2u_core-2.8.so.0:_ZN18wxListHeaderWindow7OnPaintER12wxPaintEvent
libwx_gtk2u_core-2.8.so.0:_ZN18wxListHeaderWindow8AdjustDCER4wxDC
libwx_gtk2u_core-2.8.so.0:_ZN18wxListHeaderWindowC1EP8wxWindowiP16wxListMainWindowRK7wxPointRK6wxSizelRK8wxString
libwx_gtk2u_core-2.8.so.0:_ZN18wxListHeaderWindowC1Ev
libwx_gtk2u_core-2.8.so.0:_ZN18wxListHeaderWindowC2EP8wxWindowiP16wxListMainWindowRK7wxPointRK6wxSizelRK8wxString
libwx_gtk2u_core-2.8.so.0:_ZN18wxListHeaderWindowC2Ev
libwx_gtk2u_core-2.8.so.0:_ZN18wxListHeaderWindowD0Ev
libwx_gtk2u_core-2.8.so.0:_ZN18wxListHeaderWindowD1Ev
libwx_gtk2u_core-2.8.so.0:_ZN18wxListHeaderWindowD2Ev
libwx_gtk2u_core-2.8.so.0:_ZN18wxPrintAbortDialog8OnCancelER14wxCommandEvent
libwx_gtk2u_core-2.8.so.0:_ZN18wxPrintPaperModule14wxCreateObjectEv
libwx_gtk2u_core-2.8.so.0:_ZN18wxPrintPaperModule6OnExitEv
libwx_gtk2u_core-2.8.so.0:_ZN18wxPrintPaperModule6OnInitEv
libwx_gtk2u_core-2.8.so.0:_ZN18wxPrintPreviewBase10RenderPageEi
libwx_gtk2u_core-2.8.so.0:_ZN18wxPrintPreviewBase11SetPrintoutEP10wxPrintout
libwx_gtk2u_core-2.8.so.0:_ZN18wxPrintPreviewBase13DrawBlankPageEP15wxPreviewCanvasR4wxDC
libwx_gtk2u_core-2.8.so.0:_ZN18wxPrintPreviewBase14SetCurrentPageEi
libwx_gtk2u_core-2.8.so.0:_ZN18wxPrintPreviewBase16AdjustScrollbarsEP15wxPreviewCanvas
libwx_gtk2u_core-2.8.so.0:_ZN18wxPrintPreviewBase16RenderPageIntoDCER4wxDCi
libwx_gtk2u_core-2.8.so.0:_ZN18wxPrintPreviewBase18GetPrintDialogDataEv
libwx_gtk2u_core-2.8.so.0:_ZN18wxPrintPreviewBase20RenderPageIntoBitmapER8wxBitmapi
libwx_gtk2u_core-2.8.so.0:_ZN18wxPrintPreviewBase4InitEP10wxPrintoutS1_
libwx_gtk2u_core-2.8.so.0:_ZN18wxPrintPreviewBase5SetOkEb
libwx_gtk2u_core-2.8.so.0:_ZN18wxPrintPreviewBase7SetZoomEi
libwx_gtk2u_core-2.8.so.0:_ZN18wxPrintPreviewBase8SetFrameEP7wxFrame
libwx_gtk2u_core-2.8.so.0:_ZN18wxPrintPreviewBase9CalcRectsEP15wxPreviewCanvasR6wxRectS3_
libwx_gtk2u_core-2.8.so.0:_ZN18wxPrintPreviewBase9PaintPageEP15wxPreviewCanvasR4wxDC
libwx_gtk2u_core-2.8.so.0:_ZN18wxPrintPreviewBase9SetCanvasEP15wxPreviewCanvas
libwx_gtk2u_core-2.8.so.0:_ZN18wxPrintPreviewBaseC1EP10wxPrintoutS1_P11wxPrintData
libwx_gtk2u_core-2.8.so.0:_ZN18wxPrintPreviewBaseC1EP10wxPrintoutS1_P17wxPrintDialogData
libwx_gtk2u_core-2.8.so.0:_ZN18wxPrintPreviewBaseC2EP10wxPrintoutS1_P11wxPrintData
libwx_gtk2u_core-2.8.so.0:_ZN18wxPrintPreviewBaseC2EP10wxPrintoutS1_P17wxPrintDialogData
libwx_gtk2u_core-2.8.so.0:_ZN18wxPrintPreviewBaseD0Ev
libwx_gtk2u_core-2.8.so.0:_ZN18wxPrintPreviewBaseD1Ev
libwx_gtk2u_core-2.8.so.0:_ZN18wxPrintPreviewBaseD2Ev
libwx_gtk2u_core-2.8.so.0:_ZN18wxStaticBitmapBaseD0Ev
libwx_gtk2u_core-2.8.so.0:_ZN18wxStaticBitmapBaseD1Ev
libwx_gtk2u_core-2.8.so.0:_ZN18wxStaticBitmapBaseD2Ev
libwx_gtk2u_core-2.8.so.0:_ZN18wxwxListStringNode10DeleteDataEv
libwx_gtk2u_core-2.8.so.0:_ZN19wxANIFrameInfoArray3AddERK14wxANIFrameInfom
libwx_gtk2u_core-2.8.so.0:_ZN19wxANIFrameInfoArray6DoCopyERKS_
libwx_gtk2u_core-2.8.so.0:_ZN19wxANIFrameInfoArray6InsertERK14wxANIFrameInfomm
libwx_gtk2u_core-2.8.so.0:_ZN19wxANIFrameInfoArray7DoEmptyEv
libwx_gtk2u_core-2.8.so.0:_ZN19wxANIFrameInfoArray8RemoveAtEmm
libwx_gtk2u_core-2.8.so.0:_ZN19wxANIFrameInfoArrayC1ERKS_
libwx_gtk2u_core-2.8.so.0:_ZN19wxANIFrameInfoArrayC2ERKS_
libwx_gtk2u_core-2.8.so.0:_ZN19wxANIFrameInfoArrayD1Ev
libwx_gtk2u_core-2.8.so.0:_ZN19wxANIFrameInfoArrayD2Ev
libwx_gtk2u_core-2.8.so.0:_ZN19wxANIFrameInfoArrayaSERKS_
libwx_gtk2u_core-2.8.so.0:_ZN19wxArtProviderModule14wxCreateObjectEv
libwx_gtk2u_core-2.8.so.0:_ZN19wxBitmapHandlerBase6CreateEP8wxBitmapPKvliii
libwx_gtk2u_core-2.8.so.0:_ZN19wxBitmapHandlerBase8LoadFileEP8wxBitmapRK8wxStringlii
libwx_gtk2u_core-2.8.so.0:_ZN19wxBitmapHandlerBase8SaveFileEPK8wxBitmapRK8wxStringiPK9wxPalette
libwx_gtk2u_core-2.8.so.0:_ZN19wxBitmapVariantData17GetValueClassInfoEv
libwx_gtk2u_core-2.8.so.0:_ZN19wxColourPickerEvent14wxCreateObjectEv
libwx_gtk2u_core-2.8.so.0:_ZN19wxColourVariantData17GetValueClassInfoEv
libwx_gtk2u_core-2.8.so.0:_ZN19wxContextHelpButton13OnContextHelpER14wxCommandEvent
libwx_gtk2u_core-2.8.so.0:_ZN19wxContextHelpButtonC1EP8wxWindowiRK7wxPointRK6wxSizel
libwx_gtk2u_core-2.8.so.0:_ZN19wxContextHelpButtonC2EP8wxWindowiRK7wxPointRK6wxSizel
libwx_gtk2u_core-2.8.so.0:_ZN19wxDialUpManagerImpl12CheckConnectEv
libwx_gtk2u_core-2.8.so.0:_ZN19wxDialUpManagerImpl12CheckProcNetEv
libwx_gtk2u_core-2.8.so.0:_ZN19wxDialUpManagerImpl13CancelDialingEv
libwx_gtk2u_core-2.8.so.0:_ZN19wxDialUpManagerImpl13CheckIfconfigEv
libwx_gtk2u_core-2.8.so.0:_ZN19wxDialUpManagerImpl16SetWellKnownHostERK8wxStringi
libwx_gtk2u_core-2.8.so.0:_ZN19wxDialUpManagerImpl19CheckConnectAndPingEv
libwx_gtk2u_core-2.8.so.0:_ZN19wxDialUpManagerImpl19CheckStatusInternalEv
libwx_gtk2u_core-2.8.so.0:_ZN19wxDialUpManagerImpl27EnableAutoCheckOnlineStatusEm
libwx_gtk2u_core-2.8.so.0:_ZN19wxDialUpManagerImpl28DisableAutoCheckOnlineStatusEv
libwx_gtk2u_core-2.8.so.0:_ZN19wxDialUpManagerImpl4DialERK8wxStringS2_S2_b
libwx_gtk2u_core-2.8.so.0:_ZN19wxDialUpManagerImpl6HangUpEv
libwx_gtk2u_core-2.8.so.0:_ZN19wxDialUpManagerImpl9CheckPingEv
libwx_gtk2u_core-2.8.so.0:_ZN19wxDialUpManagerImplC1Ev
libwx_gtk2u_core-2.8.so.0:_ZN19wxDialUpManagerImplC2Ev
libwx_gtk2u_core-2.8.so.0:_ZN19wxDialUpManagerImplD0Ev
libwx_gtk2u_core-2.8.so.0:_ZN19wxDialUpManagerImplD1Ev
libwx_gtk2u_core-2.8.so.0:_ZN19wxDialUpManagerImplD2Ev
libwx_gtk2u_core-2.8.so.0:_ZN19wxDirFilterListCtrl11OnSelFilterER14wxCommandEvent
libwx_gtk2u_core-2.8.so.0:_ZN19wxDirFilterListCtrl14FillFilterListERK8wxStringi
libwx_gtk2u_core-2.8.so.0:_ZN19wxDirFilterListCtrl4InitEv
libwx_gtk2u_core-2.8.so.0:_ZN19wxDirFilterListCtrl6CreateEP16wxGenericDirCtrliRK7wxPointRK6wxSizel
libwx_gtk2u_core-2.8.so.0:_ZN19wxDisplayFactoryX1112GetFromPointERK7wxPoint
libwx_gtk2u_core-2.8.so.0:_ZN19wxDisplayFactoryX1113CreateDisplayEj
libwx_gtk2u_core-2.8.so.0:_ZN19wxDisplayFactoryX118GetCountEv
libwx_gtk2u_core-2.8.so.0:_ZN19wxDocMDIParentFrame12ProcessEventER7wxEvent
libwx_gtk2u_core-2.8.so.0:_ZN19wxDocMDIParentFrame13OnCloseWindowER12wxCloseEvent
libwx_gtk2u_core-2.8.so.0:_ZN19wxDocMDIParentFrame4InitEv
libwx_gtk2u_core-2.8.so.0:_ZN19wxDocMDIParentFrame6CreateEP12wxDocManagerP7wxFrameiRK8wxStringRK7wxPointRK6wxSizelS6_
libwx_gtk2u_core-2.8.so.0:_ZN19wxDocMDIParentFrame6OnExitER14wxCommandEvent
libwx_gtk2u_core-2.8.so.0:_ZN19wxDocMDIParentFrame9OnMRUFileER14wxCommandEvent
libwx_gtk2u_core-2.8.so.0:_ZN19wxDocMDIParentFrameC1EP12wxDocManagerP7wxFrameiRK8wxStringRK7wxPointRK6wxSizelS6_
libwx_gtk2u_core-2.8.so.0:_ZN19wxDocMDIParentFrameC1Ev
libwx_gtk2u_core-2.8.so.0:_ZN19wxDocMDIParentFrameC2EP12wxDocManagerP7wxFrameiRK8wxStringRK7wxPointRK6wxSizelS6_
libwx_gtk2u_core-2.8.so.0:_ZN19wxDocMDIParentFrameC2Ev
libwx_gtk2u_core-2.8.so.0:_ZN19wxFindReplaceDialog12OnReplaceAllER14wxCommandEvent
libwx_gtk2u_core-2.8.so.0:_ZN19wxFindReplaceDialog13OnCloseWindowER12wxCloseEvent
libwx_gtk2u_core-2.8.so.0:_ZN19wxFindReplaceDialog14OnUpdateFindUIER15wxUpdateUIEvent
libwx_gtk2u_core-2.8.so.0:_ZN19wxFindReplaceDialog14wxCreateObjectEv
libwx_gtk2u_core-2.8.so.0:_ZN19wxFindReplaceDialog4InitEv
libwx_gtk2u_core-2.8.so.0:_ZN19wxFindReplaceDialog6CreateEP8wxWindowP17wxFindReplaceDataRK8wxStringi
libwx_gtk2u_core-2.8.so.0:_ZN19wxFindReplaceDialog6OnFindER14wxCommandEvent
libwx_gtk2u_core-2.8.so.0:_ZN19wxFindReplaceDialog8OnCancelER14wxCommandEvent
libwx_gtk2u_core-2.8.so.0:_ZN19wxFindReplaceDialog9OnReplaceER14wxCommandEvent
libwx_gtk2u_core-2.8.so.0:_ZN19wxFindReplaceDialog9SendEventERKi
libwx_gtk2u_core-2.8.so.0:_ZN19wxGenericFileButton14wxCreateObjectEv
libwx_gtk2u_core-2.8.so.0:_ZN19wxGenericFileDialog10OnSelectedER11wxListEvent
libwx_gtk2u_core-2.8.so.0:_ZN19wxGenericFileDialog11OnActivatedER11wxListEvent
libwx_gtk2u_core-2.8.so.0:_ZN19wxGenericFileDialog11OnTextEnterER14wxCommandEvent
libwx_gtk2u_core-2.8.so.0:_ZN19wxGenericFileDialog11SetWildcardERK8wxString
libwx_gtk2u_core-2.8.so.0:_ZN19wxGenericFileDialog12HandleActionERK8wxString
libwx_gtk2u_core-2.8.so.0:_ZN19wxGenericFileDialog12OnTextChangeER14wxCommandEvent
libwx_gtk2u_core-2.8.so.0:_ZN19wxGenericFileDialog14OnChoiceFilterER14wxCommandEvent
libwx_gtk2u_core-2.8.so.0:_ZN19wxGenericFileDialog14SetFilterIndexEi
libwx_gtk2u_core-2.8.so.0:_ZN19wxGenericFileDialog14UpdateControlsEv
libwx_gtk2u_core-2.8.so.0:_ZN19wxGenericFileDialog14wxCreateObjectEv
libwx_gtk2u_core-2.8.so.0:_ZN19wxGenericFileDialog16DoSetFilterIndexEi
libwx_gtk2u_core-2.8.so.0:_ZN19wxGenericFileDialog4InitEv
libwx_gtk2u_core-2.8.so.0:_ZN19wxGenericFileDialog4OnUpER14wxCommandEvent
libwx_gtk2u_core-2.8.so.0:_ZN19wxGenericFileDialog4ShowEb
libwx_gtk2u_core-2.8.so.0:_ZN19wxGenericFileDialog5OnNewER14wxCommandEvent
libwx_gtk2u_core-2.8.so.0:_ZN19wxGenericFileDialog6CreateEP8wxWindowRK8wxStringS4_S4_S4_lRK7wxPointRK6wxSizeS4_b
libwx_gtk2u_core-2.8.so.0:_ZN19wxGenericFileDialog6OnHomeER14wxCommandEvent
libwx_gtk2u_core-2.8.so.0:_ZN19wxGenericFileDialog6OnListER14wxCommandEvent
libwx_gtk2u_core-2.8.so.0:_ZN19wxGenericFileDialog7OnCheckER14wxCommandEvent
libwx_gtk2u_core-2.8.so.0:_ZN19wxGenericFileDialog7SetPathERK8wxString
libwx_gtk2u_core-2.8.so.0:_ZN19wxGenericFileDialog8OnListOkER14wxCommandEvent
libwx_gtk2u_core-2.8.so.0:_ZN19wxGenericFileDialog8OnReportER14wxCommandEvent
libwx_gtk2u_core-2.8.so.0:_ZN19wxGenericFileDialog9ShowModalEv
libwx_gtk2u_core-2.8.so.0:_ZN19wxGenericFileDialogC1EP8wxWindowRK8wxStringS4_S4_S4_lRK7wxPointRK6wxSizeS4_b
libwx_gtk2u_core-2.8.so.0:_ZN19wxGenericFileDialogC2EP8wxWindowRK8wxStringS4_S4_S4_lRK7wxPointRK6wxSizeS4_b
libwx_gtk2u_core-2.8.so.0:_ZN19wxGenericFileDialogD0Ev
libwx_gtk2u_core-2.8.so.0:_ZN19wxGenericFileDialogD1Ev
libwx_gtk2u_core-2.8.so.0:_ZN19wxGenericFileDialogD2Ev
libwx_gtk2u_core-2.8.so.0:_ZN19wxGenericFontButton10UpdateFontEv
libwx_gtk2u_core-2.8.so.0:_ZN19wxGenericFontButton12InitFontDataEv
libwx_gtk2u_core-2.8.so.0:_ZN19wxGenericFontButton13OnButtonClickER14wxCommandEvent
libwx_gtk2u_core-2.8.so.0:_ZN19wxGenericFontButton14wxCreateObjectEv
libwx_gtk2u_core-2.8.so.0:_ZN19wxGenericFontButton6CreateEP8wxWindowiRK6wxFontRK7wxPointRK6wxSizelRK11wxValidatorRK8wxString
libwx_gtk2u_core-2.8.so.0:_ZN19wxLayoutConstraints14wxCreateObjectEv
libwx_gtk2u_core-2.8.so.0:_ZN19wxLayoutConstraints18SatisfyConstraintsEP12wxWindowBasePi
libwx_gtk2u_core-2.8.so.0:_ZN19wxLayoutConstraintsC1Ev
libwx_gtk2u_core-2.8.so.0:_ZN19wxLayoutConstraintsC2Ev
libwx_gtk2u_core-2.8.so.0:_ZN19wxListLineDataArray3AddERK14wxListLineDatam
libwx_gtk2u_core-2.8.so.0:_ZN19wxListLineDataArray6DoCopyERKS_
libwx_gtk2u_core-2.8.so.0:_ZN19wxListLineDataArray6InsertERK14wxListLineDatamm
libwx_gtk2u_core-2.8.so.0:_ZN19wxListLineDataArray7DoEmptyEv
libwx_gtk2u_core-2.8.so.0:_ZN19wxListLineDataArray8RemoveAtEmm
libwx_gtk2u_core-2.8.so.0:_ZN19wxListLineDataArrayC1ERKS_
libwx_gtk2u_core-2.8.so.0:_ZN19wxListLineDataArrayC2ERKS_
libwx_gtk2u_core-2.8.so.0:_ZN19wxListLineDataArrayD1Ev
libwx_gtk2u_core-2.8.so.0:_ZN19wxListLineDataArrayD2Ev
libwx_gtk2u_core-2.8.so.0:_ZN19wxListLineDataArrayaSERKS_
libwx_gtk2u_core-2.8.so.0:_ZN19wxMultiChoiceDialog10CreateListEiPK8wxStringl
libwx_gtk2u_core-2.8.so.0:_ZN19wxMultiChoiceDialog13SetSelectionsERK10wxArrayInt
libwx_gtk2u_core-2.8.so.0:_ZN19wxMultiChoiceDialog14wxCreateObjectEv
libwx_gtk2u_core-2.8.so.0:_ZN19wxMultiChoiceDialog22TransferDataFromWindowEv
libwx_gtk2u_core-2.8.so.0:_ZN19wxMultiChoiceDialog6CreateEP8wxWindowRK8wxStringS4_RK13wxArrayStringlRK7wxPoint
libwx_gtk2u_core-2.8.so.0:_ZN19wxMultiChoiceDialog6CreateEP8wxWindowRK8wxStringS4_iPS3_lRK7wxPoint
libwx_gtk2u_core-2.8.so.0:_ZN19wxNumberEntryDialog4OnOKER14wxCommandEvent
libwx_gtk2u_core-2.8.so.0:_ZN19wxNumberEntryDialog8OnCancelER14wxCommandEvent
libwx_gtk2u_core-2.8.so.0:_ZN19wxNumberEntryDialogC1EP8wxWindowRK8wxStringS4_S4_lllRK7wxPoint
